Archive member included because of file (symbol)

c:/altera/13.0/nios2eds/bin/gnu/h-i686-mingw32/bin/../lib/gcc/nios2-elf/4.1.2/mno-hw-mul\libgcc.a(_fixunsdfsi.o)
                              obj/default/dm9000a.o (__fixunsdfsi)
c:/altera/13.0/nios2eds/bin/gnu/h-i686-mingw32/bin/../lib/gcc/nios2-elf/4.1.2/mno-hw-mul\libgcc.a(_addsub_df.o)
                              c:/altera/13.0/nios2eds/bin/gnu/h-i686-mingw32/bin/../lib/gcc/nios2-elf/4.1.2/mno-hw-mul\libgcc.a(_fixunsdfsi.o) (__subdf3)
c:/altera/13.0/nios2eds/bin/gnu/h-i686-mingw32/bin/../lib/gcc/nios2-elf/4.1.2/mno-hw-mul\libgcc.a(_mul_df.o)
                              obj/default/dm9000a.o (__muldf3)
c:/altera/13.0/nios2eds/bin/gnu/h-i686-mingw32/bin/../lib/gcc/nios2-elf/4.1.2/mno-hw-mul\libgcc.a(_ge_df.o)
                              c:/altera/13.0/nios2eds/bin/gnu/h-i686-mingw32/bin/../lib/gcc/nios2-elf/4.1.2/mno-hw-mul\libgcc.a(_fixunsdfsi.o) (__gedf2)
c:/altera/13.0/nios2eds/bin/gnu/h-i686-mingw32/bin/../lib/gcc/nios2-elf/4.1.2/mno-hw-mul\libgcc.a(_df_to_si.o)
                              c:/altera/13.0/nios2eds/bin/gnu/h-i686-mingw32/bin/../lib/gcc/nios2-elf/4.1.2/mno-hw-mul\libgcc.a(_fixunsdfsi.o) (__fixdfsi)
c:/altera/13.0/nios2eds/bin/gnu/h-i686-mingw32/bin/../lib/gcc/nios2-elf/4.1.2/mno-hw-mul\libgcc.a(_thenan_df.o)
                              c:/altera/13.0/nios2eds/bin/gnu/h-i686-mingw32/bin/../lib/gcc/nios2-elf/4.1.2/mno-hw-mul\libgcc.a(_addsub_df.o) (__thenan_df)
c:/altera/13.0/nios2eds/bin/gnu/h-i686-mingw32/bin/../lib/gcc/nios2-elf/4.1.2/mno-hw-mul\libgcc.a(_usi_to_df.o)
                              obj/default/dm9000a.o (__floatunsidf)
c:/altera/13.0/nios2eds/bin/gnu/h-i686-mingw32/bin/../lib/gcc/nios2-elf/4.1.2/mno-hw-mul\libgcc.a(lib2-mul.o)
                              obj/default/iniche_init.o (__mulsi3)
c:/altera/13.0/nios2eds/bin/gnu/h-i686-mingw32/bin/../lib/gcc/nios2-elf/4.1.2/mno-hw-mul\libgcc.a(_muldi3.o)
                              c:/altera/13.0/nios2eds/bin/gnu/h-i686-mingw32/bin/../lib/gcc/nios2-elf/4.1.2/mno-hw-mul\libgcc.a(_mul_df.o) (__muldi3)
c:/altera/13.0/nios2eds/bin/gnu/h-i686-mingw32/bin/../lib/gcc/nios2-elf/4.1.2/mno-hw-mul\libgcc.a(_clzsi2.o)
                              c:/altera/13.0/nios2eds/bin/gnu/h-i686-mingw32/bin/../lib/gcc/nios2-elf/4.1.2/mno-hw-mul\libgcc.a(_usi_to_df.o) (__clzsi2)
c:/altera/13.0/nios2eds/bin/gnu/h-i686-mingw32/bin/../lib/gcc/nios2-elf/4.1.2/mno-hw-mul\libgcc.a(_pack_df.o)
                              c:/altera/13.0/nios2eds/bin/gnu/h-i686-mingw32/bin/../lib/gcc/nios2-elf/4.1.2/mno-hw-mul\libgcc.a(_addsub_df.o) (__pack_d)
c:/altera/13.0/nios2eds/bin/gnu/h-i686-mingw32/bin/../lib/gcc/nios2-elf/4.1.2/mno-hw-mul\libgcc.a(_unpack_df.o)
                              c:/altera/13.0/nios2eds/bin/gnu/h-i686-mingw32/bin/../lib/gcc/nios2-elf/4.1.2/mno-hw-mul\libgcc.a(_addsub_df.o) (__unpack_d)
c:/altera/13.0/nios2eds/bin/gnu/h-i686-mingw32/bin/../lib/gcc/nios2-elf/4.1.2/mno-hw-mul\libgcc.a(_fpcmp_parts_df.o)
                              c:/altera/13.0/nios2eds/bin/gnu/h-i686-mingw32/bin/../lib/gcc/nios2-elf/4.1.2/mno-hw-mul\libgcc.a(_ge_df.o) (__fpcmp_parts_d)
c:/altera/13.0/nios2eds/bin/gnu/h-i686-mingw32/bin/../lib/gcc/nios2-elf/4.1.2/mno-hw-mul\libgcc.a(_clz.o)
                              c:/altera/13.0/nios2eds/bin/gnu/h-i686-mingw32/bin/../lib/gcc/nios2-elf/4.1.2/mno-hw-mul\libgcc.a(_clzsi2.o) (__clz_tab)
c:/altera/13.0/nios2eds/bin/gnu/h-i686-mingw32/bin/../lib/gcc/nios2-elf/4.1.2/../../../../nios2-elf/lib/mno-hw-mul\libc.a(lib_a-ctype_.o)
                              obj/default/network_utilities.o (__ctype_ptr)
c:/altera/13.0/nios2eds/bin/gnu/h-i686-mingw32/bin/../lib/gcc/nios2-elf/4.1.2/../../../../nios2-elf/lib/mno-hw-mul\libc.a(lib_a-exit.o)
                              obj/default/simple_socket_server.o (exit)
c:/altera/13.0/nios2eds/bin/gnu/h-i686-mingw32/bin/../lib/gcc/nios2-elf/4.1.2/../../../../nios2-elf/lib/mno-hw-mul\libc.a(lib_a-fprintf.o)
                              obj/default/alt_error_handler.o (fprintf)
c:/altera/13.0/nios2eds/bin/gnu/h-i686-mingw32/bin/../lib/gcc/nios2-elf/4.1.2/../../../../nios2-elf/lib/mno-hw-mul\libc.a(lib_a-fwrite.o)
                              obj/default/alt_error_handler.o (fwrite)
c:/altera/13.0/nios2eds/bin/gnu/h-i686-mingw32/bin/../lib/gcc/nios2-elf/4.1.2/../../../../nios2-elf/lib/mno-hw-mul\libc.a(lib_a-getc.o)
                              obj/default/network_utilities.o (getc)
c:/altera/13.0/nios2eds/bin/gnu/h-i686-mingw32/bin/../lib/gcc/nios2-elf/4.1.2/../../../../nios2-elf/lib/mno-hw-mul\libc.a(lib_a-impure.o)
                              obj/default/alt_error_handler.o (_impure_ptr)
c:/altera/13.0/nios2eds/bin/gnu/h-i686-mingw32/bin/../lib/gcc/nios2-elf/4.1.2/../../../../nios2-elf/lib/mno-hw-mul\libc.a(lib_a-memcpy.o)
                              obj/default/simple_socket_server.o (memcpy)
c:/altera/13.0/nios2eds/bin/gnu/h-i686-mingw32/bin/../lib/gcc/nios2-elf/4.1.2/../../../../nios2-elf/lib/mno-hw-mul\libc.a(lib_a-memmove.o)
                              obj/default/simple_socket_server.o (memmove)
c:/altera/13.0/nios2eds/bin/gnu/h-i686-mingw32/bin/../lib/gcc/nios2-elf/4.1.2/../../../../nios2-elf/lib/mno-hw-mul\libc.a(lib_a-memset.o)
                              obj/default/simple_socket_server.o (memset)
c:/altera/13.0/nios2eds/bin/gnu/h-i686-mingw32/bin/../lib/gcc/nios2-elf/4.1.2/../../../../nios2-elf/lib/mno-hw-mul\libc.a(lib_a-perror.o)
                              obj/default/alt_error_handler.o (perror)
c:/altera/13.0/nios2eds/bin/gnu/h-i686-mingw32/bin/../lib/gcc/nios2-elf/4.1.2/../../../../nios2-elf/lib/mno-hw-mul\libc.a(lib_a-printf.o)
                              obj/default/SSS_DE2_115.o (printf)
c:/altera/13.0/nios2eds/bin/gnu/h-i686-mingw32/bin/../lib/gcc/nios2-elf/4.1.2/../../../../nios2-elf/lib/mno-hw-mul\libc.a(lib_a-putc.o)
                              obj/default/network_utilities.o (putc)
c:/altera/13.0/nios2eds/bin/gnu/h-i686-mingw32/bin/../lib/gcc/nios2-elf/4.1.2/../../../../nios2-elf/lib/mno-hw-mul\libc.a(lib_a-putchar.o)
                              obj/default/network_utilities.o (putchar)
c:/altera/13.0/nios2eds/bin/gnu/h-i686-mingw32/bin/../lib/gcc/nios2-elf/4.1.2/../../../../nios2-elf/lib/mno-hw-mul\libc.a(lib_a-puts.o)
                              obj/default/SSS_DE2_115.o (puts)
c:/altera/13.0/nios2eds/bin/gnu/h-i686-mingw32/bin/../lib/gcc/nios2-elf/4.1.2/../../../../nios2-elf/lib/mno-hw-mul\libc.a(lib_a-rget.o)
                              c:/altera/13.0/nios2eds/bin/gnu/h-i686-mingw32/bin/../lib/gcc/nios2-elf/4.1.2/../../../../nios2-elf/lib/mno-hw-mul\libc.a(lib_a-getc.o) (__srget_r)
c:/altera/13.0/nios2eds/bin/gnu/h-i686-mingw32/bin/../lib/gcc/nios2-elf/4.1.2/../../../../nios2-elf/lib/mno-hw-mul\libc.a(lib_a-strchr.o)
                              obj/default/simple_socket_server.o (strchr)
c:/altera/13.0/nios2eds/bin/gnu/h-i686-mingw32/bin/../lib/gcc/nios2-elf/4.1.2/../../../../nios2-elf/lib/mno-hw-mul\libc.a(lib_a-strerror.o)
                              c:/altera/13.0/nios2eds/bin/gnu/h-i686-mingw32/bin/../lib/gcc/nios2-elf/4.1.2/../../../../nios2-elf/lib/mno-hw-mul\libc.a(lib_a-perror.o) (strerror)
c:/altera/13.0/nios2eds/bin/gnu/h-i686-mingw32/bin/../lib/gcc/nios2-elf/4.1.2/../../../../nios2-elf/lib/mno-hw-mul\libc.a(lib_a-strlen.o)
                              c:/altera/13.0/nios2eds/bin/gnu/h-i686-mingw32/bin/../lib/gcc/nios2-elf/4.1.2/../../../../nios2-elf/lib/mno-hw-mul\libc.a(lib_a-puts.o) (strlen)
c:/altera/13.0/nios2eds/bin/gnu/h-i686-mingw32/bin/../lib/gcc/nios2-elf/4.1.2/../../../../nios2-elf/lib/mno-hw-mul\libc.a(lib_a-u_strerr.o)
                              c:/altera/13.0/nios2eds/bin/gnu/h-i686-mingw32/bin/../lib/gcc/nios2-elf/4.1.2/../../../../nios2-elf/lib/mno-hw-mul\libc.a(lib_a-strerror.o) (_user_strerror)
c:/altera/13.0/nios2eds/bin/gnu/h-i686-mingw32/bin/../lib/gcc/nios2-elf/4.1.2/../../../../nios2-elf/lib/mno-hw-mul\libc.a(lib_a-vfprintf.o)
                              c:/altera/13.0/nios2eds/bin/gnu/h-i686-mingw32/bin/../lib/gcc/nios2-elf/4.1.2/../../../../nios2-elf/lib/mno-hw-mul\libc.a(lib_a-printf.o) (___vfprintf_internal_r)
c:/altera/13.0/nios2eds/bin/gnu/h-i686-mingw32/bin/../lib/gcc/nios2-elf/4.1.2/../../../../nios2-elf/lib/mno-hw-mul\libc.a(lib_a-wbuf.o)
                              c:/altera/13.0/nios2eds/bin/gnu/h-i686-mingw32/bin/../lib/gcc/nios2-elf/4.1.2/../../../../nios2-elf/lib/mno-hw-mul\libc.a(lib_a-putc.o) (__swbuf_r)
c:/altera/13.0/nios2eds/bin/gnu/h-i686-mingw32/bin/../lib/gcc/nios2-elf/4.1.2/../../../../nios2-elf/lib/mno-hw-mul\libc.a(lib_a-wsetup.o)
                              c:/altera/13.0/nios2eds/bin/gnu/h-i686-mingw32/bin/../lib/gcc/nios2-elf/4.1.2/../../../../nios2-elf/lib/mno-hw-mul\libc.a(lib_a-vfprintf.o) (__swsetup_r)
c:/altera/13.0/nios2eds/bin/gnu/h-i686-mingw32/bin/../lib/gcc/nios2-elf/4.1.2/../../../../nios2-elf/lib/mno-hw-mul\libc.a(lib_a-__call_atexit.o)
                              c:/altera/13.0/nios2eds/bin/gnu/h-i686-mingw32/bin/../lib/gcc/nios2-elf/4.1.2/../../../../nios2-elf/lib/mno-hw-mul\libc.a(lib_a-exit.o) (__call_exitprocs)
c:/altera/13.0/nios2eds/bin/gnu/h-i686-mingw32/bin/../lib/gcc/nios2-elf/4.1.2/../../../../nios2-elf/lib/mno-hw-mul\libc.a(lib_a-dtoa.o)
                              c:/altera/13.0/nios2eds/bin/gnu/h-i686-mingw32/bin/../lib/gcc/nios2-elf/4.1.2/../../../../nios2-elf/lib/mno-hw-mul\libc.a(lib_a-vfprintf.o) (_dtoa_r)
c:/altera/13.0/nios2eds/bin/gnu/h-i686-mingw32/bin/../lib/gcc/nios2-elf/4.1.2/../../../../nios2-elf/lib/mno-hw-mul\libc.a(lib_a-fflush.o)
                              c:/altera/13.0/nios2eds/bin/gnu/h-i686-mingw32/bin/../lib/gcc/nios2-elf/4.1.2/../../../../nios2-elf/lib/mno-hw-mul\libc.a(lib_a-vfprintf.o) (_fflush_r)
c:/altera/13.0/nios2eds/bin/gnu/h-i686-mingw32/bin/../lib/gcc/nios2-elf/4.1.2/../../../../nios2-elf/lib/mno-hw-mul\libc.a(lib_a-findfp.o)
                              c:/altera/13.0/nios2eds/bin/gnu/h-i686-mingw32/bin/../lib/gcc/nios2-elf/4.1.2/../../../../nios2-elf/lib/mno-hw-mul\libc.a(lib_a-fwrite.o) (__sinit)
c:/altera/13.0/nios2eds/bin/gnu/h-i686-mingw32/bin/../lib/gcc/nios2-elf/4.1.2/../../../../nios2-elf/lib/mno-hw-mul\libc.a(lib_a-fputc.o)
                              c:/altera/13.0/nios2eds/bin/gnu/h-i686-mingw32/bin/../lib/gcc/nios2-elf/4.1.2/../../../../nios2-elf/lib/mno-hw-mul\libc.a(lib_a-perror.o) (fputc)
c:/altera/13.0/nios2eds/bin/gnu/h-i686-mingw32/bin/../lib/gcc/nios2-elf/4.1.2/../../../../nios2-elf/lib/mno-hw-mul\libc.a(lib_a-fputs.o)
                              c:/altera/13.0/nios2eds/bin/gnu/h-i686-mingw32/bin/../lib/gcc/nios2-elf/4.1.2/../../../../nios2-elf/lib/mno-hw-mul\libc.a(lib_a-perror.o) (fputs)
c:/altera/13.0/nios2eds/bin/gnu/h-i686-mingw32/bin/../lib/gcc/nios2-elf/4.1.2/../../../../nios2-elf/lib/mno-hw-mul\libc.a(lib_a-freer.o)
                              c:/altera/13.0/nios2eds/bin/gnu/h-i686-mingw32/bin/../lib/gcc/nios2-elf/4.1.2/../../../../nios2-elf/lib/mno-hw-mul\libc.a(lib_a-wsetup.o) (_free_r)
c:/altera/13.0/nios2eds/bin/gnu/h-i686-mingw32/bin/../lib/gcc/nios2-elf/4.1.2/../../../../nios2-elf/lib/mno-hw-mul\libc.a(lib_a-fvwrite.o)
                              c:/altera/13.0/nios2eds/bin/gnu/h-i686-mingw32/bin/../lib/gcc/nios2-elf/4.1.2/../../../../nios2-elf/lib/mno-hw-mul\libc.a(lib_a-fwrite.o) (__sfvwrite_r)
c:/altera/13.0/nios2eds/bin/gnu/h-i686-mingw32/bin/../lib/gcc/nios2-elf/4.1.2/../../../../nios2-elf/lib/mno-hw-mul\libc.a(lib_a-fwalk.o)
                              c:/altera/13.0/nios2eds/bin/gnu/h-i686-mingw32/bin/../lib/gcc/nios2-elf/4.1.2/../../../../nios2-elf/lib/mno-hw-mul\libc.a(lib_a-fflush.o) (_fwalk_reent)
c:/altera/13.0/nios2eds/bin/gnu/h-i686-mingw32/bin/../lib/gcc/nios2-elf/4.1.2/../../../../nios2-elf/lib/mno-hw-mul\libc.a(lib_a-locale.o)
                              c:/altera/13.0/nios2eds/bin/gnu/h-i686-mingw32/bin/../lib/gcc/nios2-elf/4.1.2/../../../../nios2-elf/lib/mno-hw-mul\libc.a(lib_a-vfprintf.o) (_localeconv_r)
c:/altera/13.0/nios2eds/bin/gnu/h-i686-mingw32/bin/../lib/gcc/nios2-elf/4.1.2/../../../../nios2-elf/lib/mno-hw-mul\libc.a(lib_a-makebuf.o)
                              c:/altera/13.0/nios2eds/bin/gnu/h-i686-mingw32/bin/../lib/gcc/nios2-elf/4.1.2/../../../../nios2-elf/lib/mno-hw-mul\libc.a(lib_a-wsetup.o) (__smakebuf_r)
c:/altera/13.0/nios2eds/bin/gnu/h-i686-mingw32/bin/../lib/gcc/nios2-elf/4.1.2/../../../../nios2-elf/lib/mno-hw-mul\libc.a(lib_a-mallocr.o)
                              c:/altera/13.0/nios2eds/bin/gnu/h-i686-mingw32/bin/../lib/gcc/nios2-elf/4.1.2/../../../../nios2-elf/lib/mno-hw-mul\libc.a(lib_a-findfp.o) (_malloc_r)
c:/altera/13.0/nios2eds/bin/gnu/h-i686-mingw32/bin/../lib/gcc/nios2-elf/4.1.2/../../../../nios2-elf/lib/mno-hw-mul\libc.a(lib_a-memchr.o)
                              c:/altera/13.0/nios2eds/bin/gnu/h-i686-mingw32/bin/../lib/gcc/nios2-elf/4.1.2/../../../../nios2-elf/lib/mno-hw-mul\libc.a(lib_a-vfprintf.o) (memchr)
c:/altera/13.0/nios2eds/bin/gnu/h-i686-mingw32/bin/../lib/gcc/nios2-elf/4.1.2/../../../../nios2-elf/lib/mno-hw-mul\libc.a(lib_a-mprec.o)
                              c:/altera/13.0/nios2eds/bin/gnu/h-i686-mingw32/bin/../lib/gcc/nios2-elf/4.1.2/../../../../nios2-elf/lib/mno-hw-mul\libc.a(lib_a-dtoa.o) (_Bfree)
c:/altera/13.0/nios2eds/bin/gnu/h-i686-mingw32/bin/../lib/gcc/nios2-elf/4.1.2/../../../../nios2-elf/lib/mno-hw-mul\libc.a(lib_a-reallocr.o)
                              c:/altera/13.0/nios2eds/bin/gnu/h-i686-mingw32/bin/../lib/gcc/nios2-elf/4.1.2/../../../../nios2-elf/lib/mno-hw-mul\libc.a(lib_a-fvwrite.o) (_realloc_r)
c:/altera/13.0/nios2eds/bin/gnu/h-i686-mingw32/bin/../lib/gcc/nios2-elf/4.1.2/../../../../nios2-elf/lib/mno-hw-mul\libc.a(lib_a-refill.o)
                              c:/altera/13.0/nios2eds/bin/gnu/h-i686-mingw32/bin/../lib/gcc/nios2-elf/4.1.2/../../../../nios2-elf/lib/mno-hw-mul\libc.a(lib_a-rget.o) (__srefill_r)
c:/altera/13.0/nios2eds/bin/gnu/h-i686-mingw32/bin/../lib/gcc/nios2-elf/4.1.2/../../../../nios2-elf/lib/mno-hw-mul\libc.a(lib_a-s_isinfd.o)
                              c:/altera/13.0/nios2eds/bin/gnu/h-i686-mingw32/bin/../lib/gcc/nios2-elf/4.1.2/../../../../nios2-elf/lib/mno-hw-mul\libc.a(lib_a-vfprintf.o) (__isinfd)
c:/altera/13.0/nios2eds/bin/gnu/h-i686-mingw32/bin/../lib/gcc/nios2-elf/4.1.2/../../../../nios2-elf/lib/mno-hw-mul\libc.a(lib_a-s_isnand.o)
                              c:/altera/13.0/nios2eds/bin/gnu/h-i686-mingw32/bin/../lib/gcc/nios2-elf/4.1.2/../../../../nios2-elf/lib/mno-hw-mul\libc.a(lib_a-vfprintf.o) (__isnand)
c:/altera/13.0/nios2eds/bin/gnu/h-i686-mingw32/bin/../lib/gcc/nios2-elf/4.1.2/../../../../nios2-elf/lib/mno-hw-mul\libc.a(lib_a-sbrkr.o)
                              c:/altera/13.0/nios2eds/bin/gnu/h-i686-mingw32/bin/../lib/gcc/nios2-elf/4.1.2/../../../../nios2-elf/lib/mno-hw-mul\libc.a(lib_a-freer.o) (_sbrk_r)
c:/altera/13.0/nios2eds/bin/gnu/h-i686-mingw32/bin/../lib/gcc/nios2-elf/4.1.2/../../../../nios2-elf/lib/mno-hw-mul\libc.a(lib_a-stdio.o)
                              c:/altera/13.0/nios2eds/bin/gnu/h-i686-mingw32/bin/../lib/gcc/nios2-elf/4.1.2/../../../../nios2-elf/lib/mno-hw-mul\libc.a(lib_a-findfp.o) (__sclose)
c:/altera/13.0/nios2eds/bin/gnu/h-i686-mingw32/bin/../lib/gcc/nios2-elf/4.1.2/../../../../nios2-elf/lib/mno-hw-mul\libc.a(lib_a-strcmp.o)
                              c:/altera/13.0/nios2eds/bin/gnu/h-i686-mingw32/bin/../lib/gcc/nios2-elf/4.1.2/../../../../nios2-elf/lib/mno-hw-mul\libc.a(lib_a-locale.o) (strcmp)
c:/altera/13.0/nios2eds/bin/gnu/h-i686-mingw32/bin/../lib/gcc/nios2-elf/4.1.2/../../../../nios2-elf/lib/mno-hw-mul\libc.a(lib_a-writer.o)
                              c:/altera/13.0/nios2eds/bin/gnu/h-i686-mingw32/bin/../lib/gcc/nios2-elf/4.1.2/../../../../nios2-elf/lib/mno-hw-mul\libc.a(lib_a-stdio.o) (_write_r)
c:/altera/13.0/nios2eds/bin/gnu/h-i686-mingw32/bin/../lib/gcc/nios2-elf/4.1.2/../../../../nios2-elf/lib/mno-hw-mul\libc.a(lib_a-callocr.o)
                              c:/altera/13.0/nios2eds/bin/gnu/h-i686-mingw32/bin/../lib/gcc/nios2-elf/4.1.2/../../../../nios2-elf/lib/mno-hw-mul\libc.a(lib_a-mprec.o) (_calloc_r)
c:/altera/13.0/nios2eds/bin/gnu/h-i686-mingw32/bin/../lib/gcc/nios2-elf/4.1.2/../../../../nios2-elf/lib/mno-hw-mul\libc.a(lib_a-closer.o)
                              c:/altera/13.0/nios2eds/bin/gnu/h-i686-mingw32/bin/../lib/gcc/nios2-elf/4.1.2/../../../../nios2-elf/lib/mno-hw-mul\libc.a(lib_a-stdio.o) (_close_r)
c:/altera/13.0/nios2eds/bin/gnu/h-i686-mingw32/bin/../lib/gcc/nios2-elf/4.1.2/../../../../nios2-elf/lib/mno-hw-mul\libc.a(lib_a-fclose.o)
                              c:/altera/13.0/nios2eds/bin/gnu/h-i686-mingw32/bin/../lib/gcc/nios2-elf/4.1.2/../../../../nios2-elf/lib/mno-hw-mul\libc.a(lib_a-findfp.o) (fclose)
c:/altera/13.0/nios2eds/bin/gnu/h-i686-mingw32/bin/../lib/gcc/nios2-elf/4.1.2/../../../../nios2-elf/lib/mno-hw-mul\libc.a(lib_a-fstatr.o)
                              c:/altera/13.0/nios2eds/bin/gnu/h-i686-mingw32/bin/../lib/gcc/nios2-elf/4.1.2/../../../../nios2-elf/lib/mno-hw-mul\libc.a(lib_a-makebuf.o) (_fstat_r)
c:/altera/13.0/nios2eds/bin/gnu/h-i686-mingw32/bin/../lib/gcc/nios2-elf/4.1.2/../../../../nios2-elf/lib/mno-hw-mul\libc.a(lib_a-int_errno.o)
                              c:/altera/13.0/nios2eds/bin/gnu/h-i686-mingw32/bin/../lib/gcc/nios2-elf/4.1.2/../../../../nios2-elf/lib/mno-hw-mul\libc.a(lib_a-sbrkr.o) (errno)
c:/altera/13.0/nios2eds/bin/gnu/h-i686-mingw32/bin/../lib/gcc/nios2-elf/4.1.2/../../../../nios2-elf/lib/mno-hw-mul\libc.a(lib_a-isattyr.o)
                              c:/altera/13.0/nios2eds/bin/gnu/h-i686-mingw32/bin/../lib/gcc/nios2-elf/4.1.2/../../../../nios2-elf/lib/mno-hw-mul\libc.a(lib_a-makebuf.o) (_isatty_r)
c:/altera/13.0/nios2eds/bin/gnu/h-i686-mingw32/bin/../lib/gcc/nios2-elf/4.1.2/../../../../nios2-elf/lib/mno-hw-mul\libc.a(lib_a-lseekr.o)
                              c:/altera/13.0/nios2eds/bin/gnu/h-i686-mingw32/bin/../lib/gcc/nios2-elf/4.1.2/../../../../nios2-elf/lib/mno-hw-mul\libc.a(lib_a-stdio.o) (_lseek_r)
c:/altera/13.0/nios2eds/bin/gnu/h-i686-mingw32/bin/../lib/gcc/nios2-elf/4.1.2/../../../../nios2-elf/lib/mno-hw-mul\libc.a(lib_a-readr.o)
                              c:/altera/13.0/nios2eds/bin/gnu/h-i686-mingw32/bin/../lib/gcc/nios2-elf/4.1.2/../../../../nios2-elf/lib/mno-hw-mul\libc.a(lib_a-stdio.o) (_read_r)
c:/altera/13.0/nios2eds/bin/gnu/h-i686-mingw32/bin/../lib/gcc/nios2-elf/4.1.2/mno-hw-mul\libgcc.a(_udivdi3.o)
                              c:/altera/13.0/nios2eds/bin/gnu/h-i686-mingw32/bin/../lib/gcc/nios2-elf/4.1.2/../../../../nios2-elf/lib/mno-hw-mul\libc.a(lib_a-vfprintf.o) (__udivdi3)
c:/altera/13.0/nios2eds/bin/gnu/h-i686-mingw32/bin/../lib/gcc/nios2-elf/4.1.2/mno-hw-mul\libgcc.a(_umoddi3.o)
                              c:/altera/13.0/nios2eds/bin/gnu/h-i686-mingw32/bin/../lib/gcc/nios2-elf/4.1.2/../../../../nios2-elf/lib/mno-hw-mul\libc.a(lib_a-vfprintf.o) (__umoddi3)
c:/altera/13.0/nios2eds/bin/gnu/h-i686-mingw32/bin/../lib/gcc/nios2-elf/4.1.2/mno-hw-mul\libgcc.a(_div_df.o)
                              c:/altera/13.0/nios2eds/bin/gnu/h-i686-mingw32/bin/../lib/gcc/nios2-elf/4.1.2/../../../../nios2-elf/lib/mno-hw-mul\libc.a(lib_a-dtoa.o) (__divdf3)
c:/altera/13.0/nios2eds/bin/gnu/h-i686-mingw32/bin/../lib/gcc/nios2-elf/4.1.2/mno-hw-mul\libgcc.a(_eq_df.o)
                              c:/altera/13.0/nios2eds/bin/gnu/h-i686-mingw32/bin/../lib/gcc/nios2-elf/4.1.2/../../../../nios2-elf/lib/mno-hw-mul\libc.a(lib_a-vfprintf.o) (__eqdf2)
c:/altera/13.0/nios2eds/bin/gnu/h-i686-mingw32/bin/../lib/gcc/nios2-elf/4.1.2/mno-hw-mul\libgcc.a(_ne_df.o)
                              c:/altera/13.0/nios2eds/bin/gnu/h-i686-mingw32/bin/../lib/gcc/nios2-elf/4.1.2/../../../../nios2-elf/lib/mno-hw-mul\libc.a(lib_a-vfprintf.o) (__nedf2)
c:/altera/13.0/nios2eds/bin/gnu/h-i686-mingw32/bin/../lib/gcc/nios2-elf/4.1.2/mno-hw-mul\libgcc.a(_gt_df.o)
                              c:/altera/13.0/nios2eds/bin/gnu/h-i686-mingw32/bin/../lib/gcc/nios2-elf/4.1.2/../../../../nios2-elf/lib/mno-hw-mul\libc.a(lib_a-dtoa.o) (__gtdf2)
c:/altera/13.0/nios2eds/bin/gnu/h-i686-mingw32/bin/../lib/gcc/nios2-elf/4.1.2/mno-hw-mul\libgcc.a(_lt_df.o)
                              c:/altera/13.0/nios2eds/bin/gnu/h-i686-mingw32/bin/../lib/gcc/nios2-elf/4.1.2/../../../../nios2-elf/lib/mno-hw-mul\libc.a(lib_a-vfprintf.o) (__ltdf2)
c:/altera/13.0/nios2eds/bin/gnu/h-i686-mingw32/bin/../lib/gcc/nios2-elf/4.1.2/mno-hw-mul\libgcc.a(_si_to_df.o)
                              c:/altera/13.0/nios2eds/bin/gnu/h-i686-mingw32/bin/../lib/gcc/nios2-elf/4.1.2/../../../../nios2-elf/lib/mno-hw-mul\libc.a(lib_a-dtoa.o) (__floatsidf)
c:/altera/13.0/nios2eds/bin/gnu/h-i686-mingw32/bin/../lib/gcc/nios2-elf/4.1.2/mno-hw-mul\libgcc.a(lib2-divmod.o)
                              c:/altera/13.0/nios2eds/bin/gnu/h-i686-mingw32/bin/../lib/gcc/nios2-elf/4.1.2/../../../../nios2-elf/lib/mno-hw-mul\libc.a(lib_a-vfprintf.o) (__divsi3)
../cool_bsp/\libucosii_bsp.a(alt_exit.o)
                              c:/altera/13.0/nios2eds/bin/gnu/h-i686-mingw32/bin/../lib/gcc/nios2-elf/4.1.2/../../../../nios2-elf/lib/mno-hw-mul\libc.a(lib_a-exit.o) (_exit)
../cool_bsp/\libucosii_bsp.a(alt_flash_dev.o)
                              obj/default/SSS_DE2_115.o (alt_flash_open_dev)
../cool_bsp/\libucosii_bsp.a(alt_fstat.o)
                              c:/altera/13.0/nios2eds/bin/gnu/h-i686-mingw32/bin/../lib/gcc/nios2-elf/4.1.2/../../../../nios2-elf/lib/mno-hw-mul\libc.a(lib_a-fstatr.o) (fstat)
../cool_bsp/\libucosii_bsp.a(alt_irq_register.o)
                              obj/default/dm9000a.o (alt_irq_register)
../cool_bsp/\libucosii_bsp.a(alt_irq_vars.o)
                              ../cool_bsp/\libucosii_bsp.a(alt_irq_register.o) (alt_irq_active)
../cool_bsp/\libucosii_bsp.a(alt_isatty.o)
                              c:/altera/13.0/nios2eds/bin/gnu/h-i686-mingw32/bin/../lib/gcc/nios2-elf/4.1.2/../../../../nios2-elf/lib/mno-hw-mul\libc.a(lib_a-isattyr.o) (isatty)
../cool_bsp/\libucosii_bsp.a(alt_lseek.o)
                              c:/altera/13.0/nios2eds/bin/gnu/h-i686-mingw32/bin/../lib/gcc/nios2-elf/4.1.2/../../../../nios2-elf/lib/mno-hw-mul\libc.a(lib_a-lseekr.o) (lseek)
../cool_bsp/\libucosii_bsp.a(alt_main.o)
                              ../cool_bsp//obj/HAL/src/crt0.o (alt_main)
../cool_bsp/\libucosii_bsp.a(alt_sbrk.o)
                              c:/altera/13.0/nios2eds/bin/gnu/h-i686-mingw32/bin/../lib/gcc/nios2-elf/4.1.2/../../../../nios2-elf/lib/mno-hw-mul\libc.a(lib_a-sbrkr.o) (sbrk)
../cool_bsp/\libucosii_bsp.a(alt_usleep.o)
                              obj/default/dm9000a.o (usleep)
../cool_bsp/\libucosii_bsp.a(alt_env_lock.o)
                              ../cool_bsp/\libucosii_bsp.a(alt_main.o) (alt_envsem)
../cool_bsp/\libucosii_bsp.a(alt_malloc_lock.o)
                              c:/altera/13.0/nios2eds/bin/gnu/h-i686-mingw32/bin/../lib/gcc/nios2-elf/4.1.2/../../../../nios2-elf/lib/mno-hw-mul\libc.a(lib_a-freer.o) (__malloc_lock)
../cool_bsp/\libucosii_bsp.a(os_core.o)
                              ../cool_bsp/\libucosii_bsp.a(alt_main.o) (OSInit)
../cool_bsp/\libucosii_bsp.a(os_dbg.o)
                              ../cool_bsp/\libucosii_bsp.a(os_core.o) (OSDebugInit)
../cool_bsp/\libucosii_bsp.a(os_flag.o)
                              obj/default/simple_socket_server.o (OSFlagCreate)
../cool_bsp/\libucosii_bsp.a(os_mem.o)
                              ../cool_bsp/\libucosii_bsp.a(os_core.o) (OS_MemInit)
../cool_bsp/\libucosii_bsp.a(os_q.o)
                              obj/default/simple_socket_server.o (OSQCreate)
../cool_bsp/\libucosii_bsp.a(os_sem.o)
                              obj/default/simple_socket_server.o (OSSemCreate)
../cool_bsp/\libucosii_bsp.a(os_task.o)
                              obj/default/iniche_init.o (OSTaskCreateExt)
../cool_bsp/\libucosii_bsp.a(os_time.o)
                              obj/default/iniche_init.o (OSTimeDly)
../cool_bsp/\libucosii_bsp.a(alt_sys_init.o)
                              ../cool_bsp/\libucosii_bsp.a(alt_main.o) (alt_irq_init)
../cool_bsp/\libucosii_bsp.a(altera_avalon_cfi_flash.o)
                              ../cool_bsp/\libucosii_bsp.a(alt_sys_init.o) (alt_flash_cfi_init)
../cool_bsp/\libucosii_bsp.a(altera_avalon_cfi_flash_table.o)
                              ../cool_bsp/\libucosii_bsp.a(altera_avalon_cfi_flash.o) (alt_set_flash_width_func)
../cool_bsp/\libucosii_bsp.a(altera_avalon_epcs_flash_controller.o)
                              ../cool_bsp/\libucosii_bsp.a(alt_sys_init.o) (alt_epcs_flash_init)
../cool_bsp/\libucosii_bsp.a(altera_avalon_jtag_uart_fd.o)
                              ../cool_bsp/\libucosii_bsp.a(alt_sys_init.o) (altera_avalon_jtag_uart_read_fd)
../cool_bsp/\libucosii_bsp.a(altera_avalon_jtag_uart_init.o)
                              ../cool_bsp/\libucosii_bsp.a(alt_sys_init.o) (altera_avalon_jtag_uart_init)
../cool_bsp/\libucosii_bsp.a(altera_avalon_jtag_uart_ioctl.o)
                              ../cool_bsp/\libucosii_bsp.a(altera_avalon_jtag_uart_fd.o) (altera_avalon_jtag_uart_ioctl)
../cool_bsp/\libucosii_bsp.a(altera_avalon_jtag_uart_read.o)
                              ../cool_bsp/\libucosii_bsp.a(altera_avalon_jtag_uart_fd.o) (altera_avalon_jtag_uart_read)
../cool_bsp/\libucosii_bsp.a(altera_avalon_jtag_uart_write.o)
                              ../cool_bsp/\libucosii_bsp.a(altera_avalon_jtag_uart_fd.o) (altera_avalon_jtag_uart_write)
../cool_bsp/\libucosii_bsp.a(altera_avalon_timer_sc.o)
                              ../cool_bsp/\libucosii_bsp.a(alt_sys_init.o) (alt_avalon_timer_sc_init)
../cool_bsp/\libucosii_bsp.a(epcs_commands.o)
                              ../cool_bsp/\libucosii_bsp.a(altera_avalon_epcs_flash_controller.o) (epcs_sector_erase)
../cool_bsp/\libucosii_bsp.a(alt_iniche_close.o)
                              obj/default/simple_socket_server.o (close)
../cool_bsp/\libucosii_bsp.a(alt_iniche_dev.o)
                              obj/default/iniche_init.o (alt_iniche_dev_list)
../cool_bsp/\libucosii_bsp.a(alt_iniche_read.o)
                              c:/altera/13.0/nios2eds/bin/gnu/h-i686-mingw32/bin/../lib/gcc/nios2-elf/4.1.2/../../../../nios2-elf/lib/mno-hw-mul\libc.a(lib_a-readr.o) (read)
../cool_bsp/\libucosii_bsp.a(alt_iniche_write.o)
                              c:/altera/13.0/nios2eds/bin/gnu/h-i686-mingw32/bin/../lib/gcc/nios2-elf/4.1.2/../../../../nios2-elf/lib/mno-hw-mul\libc.a(lib_a-writer.o) (write)
../cool_bsp/\libucosii_bsp.a(ipnet.o)
                              obj/default/dm9000a.o (rcvdq)
../cool_bsp/\libucosii_bsp.a(ipstart.o)
                              ../cool_bsp/\libucosii_bsp.a(ipnet.o) (ifNumber)
../cool_bsp/\libucosii_bsp.a(igmp_cmn.o)
                              ../cool_bsp/\libucosii_bsp.a(ipstart.o) (igmp_init)
../cool_bsp/\libucosii_bsp.a(bsdsock.o)
                              obj/default/simple_socket_server.o (bsd_accept)
../cool_bsp/\libucosii_bsp.a(cksum.o)
                              ../cool_bsp/\libucosii_bsp.a(igmp_cmn.o) (cksum)
../cool_bsp/\libucosii_bsp.a(in_utils.o)
                              ../cool_bsp/\libucosii_bsp.a(igmp_cmn.o) (ns_printf)
../cool_bsp/\libucosii_bsp.a(netmain.o)
                              obj/default/iniche_init.o (iniche_net_ready)
../cool_bsp/\libucosii_bsp.a(parseip.o)
                              obj/default/simple_socket_server.o (inet_pton)
../cool_bsp/\libucosii_bsp.a(tk_crnos.o)
                              ../cool_bsp/\libucosii_bsp.a(ipnet.o) (tk_yield)
../cool_bsp/\libucosii_bsp.a(dhcpclnt.o)
                              ../cool_bsp/\libucosii_bsp.a(netmain.o) (dhc_second)
../cool_bsp/\libucosii_bsp.a(dhcputil.o)
                              ../cool_bsp/\libucosii_bsp.a(dhcpclnt.o) (find_opt)
../cool_bsp/\libucosii_bsp.a(pktalloc.o)
                              ../cool_bsp/\libucosii_bsp.a(ipnet.o) (pk_init)
../cool_bsp/\libucosii_bsp.a(q.o)
                              ../cool_bsp/\libucosii_bsp.a(ipnet.o) (getq)
../cool_bsp/\libucosii_bsp.a(udp_open.o)
                              ../cool_bsp/\libucosii_bsp.a(dhcpclnt.o) (udp_open)
../cool_bsp/\libucosii_bsp.a(asm_cksum.o)
                              ../cool_bsp/\libucosii_bsp.a(cksum.o) (asm_cksum)
../cool_bsp/\libucosii_bsp.a(brdutils.o)
                              ../cool_bsp/\libucosii_bsp.a(ipnet.o) (dtrap)
../cool_bsp/\libucosii_bsp.a(osportco.o)
                              ../cool_bsp/\libucosii_bsp.a(tk_crnos.o) (tcp_sleep_count)
../cool_bsp/\libucosii_bsp.a(targnios.o)
                              obj/default/iniche_init.o (alt_iniche_init)
../cool_bsp/\libucosii_bsp.a(nptcp.o)
                              ../cool_bsp/\libucosii_bsp.a(bsdsock.o) (soq)
../cool_bsp/\libucosii_bsp.a(rawsock.o)
                              ../cool_bsp/\libucosii_bsp.a(nptcp.o) (rawip_usrreq)
../cool_bsp/\libucosii_bsp.a(sockcall.o)
                              obj/default/simple_socket_server.o (t_socket)
../cool_bsp/\libucosii_bsp.a(socket.o)
                              ../cool_bsp/\libucosii_bsp.a(sockcall.o) (socreate)
../cool_bsp/\libucosii_bsp.a(socket2.o)
                              ../cool_bsp/\libucosii_bsp.a(sockcall.o) (soqremque)
../cool_bsp/\libucosii_bsp.a(soselect.o)
                              ../cool_bsp/\libucosii_bsp.a(bsdsock.o) (t_select)
../cool_bsp/\libucosii_bsp.a(tcp_in.o)
                              ../cool_bsp/\libucosii_bsp.a(nptcp.o) (tcp_input)
../cool_bsp/\libucosii_bsp.a(tcp_out.o)
                              ../cool_bsp/\libucosii_bsp.a(tcp_in.o) (tcp_output)
../cool_bsp/\libucosii_bsp.a(tcp_subr.o)
                              ../cool_bsp/\libucosii_bsp.a(nptcp.o) (tcp_init)
../cool_bsp/\libucosii_bsp.a(tcp_timr.o)
                              ../cool_bsp/\libucosii_bsp.a(tcp_in.o) (tcp_keepidle)
../cool_bsp/\libucosii_bsp.a(tcp_usr.o)
                              ../cool_bsp/\libucosii_bsp.a(nptcp.o) (tcp_usrreq)
../cool_bsp/\libucosii_bsp.a(tcpport.o)
                              ../cool_bsp/\libucosii_bsp.a(ipstart.o) (tcpinit)
../cool_bsp/\libucosii_bsp.a(udpsock.o)
                              ../cool_bsp/\libucosii_bsp.a(nptcp.o) (udp_usrreq)
../cool_bsp/\libucosii_bsp.a(alt_alarm_start.o)
                              ../cool_bsp/\libucosii_bsp.a(altera_avalon_jtag_uart_init.o) (alt_alarm_start)
../cool_bsp/\libucosii_bsp.a(alt_busy_sleep.o)
                              ../cool_bsp/\libucosii_bsp.a(alt_usleep.o) (alt_busy_sleep)
../cool_bsp/\libucosii_bsp.a(alt_close.o)
                              ../cool_bsp/\libucosii_bsp.a(alt_iniche_close.o) (alt_close)
../cool_bsp/\libucosii_bsp.a(alt_dcache_flush.o)
                              ../cool_bsp/\libucosii_bsp.a(altera_avalon_cfi_flash.o) (alt_dcache_flush)
../cool_bsp/\libucosii_bsp.a(alt_dev.o)
                              ../cool_bsp/\libucosii_bsp.a(alt_sys_init.o) (alt_dev_list)
../cool_bsp/\libucosii_bsp.a(alt_dev_llist_insert.o)
                              ../cool_bsp/\libucosii_bsp.a(alt_sys_init.o) (alt_dev_llist_insert)
../cool_bsp/\libucosii_bsp.a(alt_do_ctors.o)
                              ../cool_bsp/\libucosii_bsp.a(alt_main.o) (_do_ctors)
../cool_bsp/\libucosii_bsp.a(alt_do_dtors.o)
                              ../cool_bsp/\libucosii_bsp.a(alt_main.o) (_do_dtors)
../cool_bsp/\libucosii_bsp.a(alt_errno.o)
                              ../cool_bsp/\libucosii_bsp.a(alt_fstat.o) (alt_errno)
../cool_bsp/\libucosii_bsp.a(alt_find_dev.o)
                              ../cool_bsp/\libucosii_bsp.a(alt_flash_dev.o) (alt_find_dev)
../cool_bsp/\libucosii_bsp.a(alt_iic.o)
                              ../cool_bsp/\libucosii_bsp.a(altera_avalon_jtag_uart_init.o) (alt_ic_isr_register)
../cool_bsp/\libucosii_bsp.a(alt_iic_isr_register.o)
                              ../cool_bsp/\libucosii_bsp.a(alt_iic.o) (alt_iic_isr_register)
../cool_bsp/\libucosii_bsp.a(alt_io_redirect.o)
                              ../cool_bsp/\libucosii_bsp.a(alt_main.o) (alt_io_redirect)
../cool_bsp/\libucosii_bsp.a(alt_irq_entry.o)
                              ../cool_bsp/\libucosii_bsp.a(alt_irq_register.o) (alt_irq_entry)
../cool_bsp/\libucosii_bsp.a(alt_irq_handler.o)
                              ../cool_bsp/\libucosii_bsp.a(alt_irq_register.o) (alt_irq_handler)
../cool_bsp/\libucosii_bsp.a(alt_open.o)
                              ../cool_bsp/\libucosii_bsp.a(alt_io_redirect.o) (open)
../cool_bsp/\libucosii_bsp.a(alt_read.o)
                              ../cool_bsp/\libucosii_bsp.a(alt_iniche_read.o) (alt_read)
../cool_bsp/\libucosii_bsp.a(alt_release_fd.o)
                              ../cool_bsp/\libucosii_bsp.a(alt_close.o) (alt_release_fd)
../cool_bsp/\libucosii_bsp.a(alt_remap_cached.o)
                              ../cool_bsp/\libucosii_bsp.a(targnios.o) (alt_remap_cached)
../cool_bsp/\libucosii_bsp.a(alt_remap_uncached.o)
                              ../cool_bsp/\libucosii_bsp.a(targnios.o) (alt_remap_uncached)
../cool_bsp/\libucosii_bsp.a(alt_tick.o)
                              ../cool_bsp/\libucosii_bsp.a(alt_usleep.o) (_alt_tick_rate)
../cool_bsp/\libucosii_bsp.a(alt_write.o)
                              ../cool_bsp/\libucosii_bsp.a(alt_iniche_write.o) (alt_write)
../cool_bsp/\libucosii_bsp.a(altera_nios2_qsys_irq.o)
                              ../cool_bsp/\libucosii_bsp.a(alt_sys_init.o) (altera_nios2_qsys_irq_init)
../cool_bsp/\libucosii_bsp.a(os_cpu_a.o)
                              ../cool_bsp/\libucosii_bsp.a(os_core.o) (OSIntCtxSw)
../cool_bsp/\libucosii_bsp.a(os_cpu_c.o)
                              ../cool_bsp/\libucosii_bsp.a(os_task.o) (OSTaskStkInit)
../cool_bsp/\libucosii_bsp.a(altera_avalon_cfi_flash_amd.o)
                              ../cool_bsp/\libucosii_bsp.a(altera_avalon_cfi_flash_table.o) (alt_program_amd)
../cool_bsp/\libucosii_bsp.a(altera_avalon_cfi_flash_intel.o)
                              ../cool_bsp/\libucosii_bsp.a(altera_avalon_cfi_flash_table.o) (alt_program_intel)
../cool_bsp/\libucosii_bsp.a(altera_avalon_spi.o)
                              ../cool_bsp/\libucosii_bsp.a(epcs_commands.o) (alt_avalon_spi_command)
../cool_bsp/\libucosii_bsp.a(allports.o)
                              ../cool_bsp/\libucosii_bsp.a(dhcpclnt.o) (name)
../cool_bsp/\libucosii_bsp.a(timeouts.o)
                              ../cool_bsp/\libucosii_bsp.a(netmain.o) (inet_timer)
../cool_bsp/\libucosii_bsp.a(tk_misc.o)
                              ../cool_bsp/\libucosii_bsp.a(netmain.o) (create_apptasks)
../cool_bsp/\libucosii_bsp.a(alt_iniche_fcntl.o)
                              ../cool_bsp/\libucosii_bsp.a(brdutils.o) (fcntl)
../cool_bsp/\libucosii_bsp.a(et_arp.o)
                              ../cool_bsp/\libucosii_bsp.a(ipstart.o) (etainit)
../cool_bsp/\libucosii_bsp.a(iface.o)
                              ../cool_bsp/\libucosii_bsp.a(ipnet.o) (netlist)
../cool_bsp/\libucosii_bsp.a(ip.o)
                              ../cool_bsp/\libucosii_bsp.a(ipstart.o) (ip_init)
../cool_bsp/\libucosii_bsp.a(ip_reasm.o)
                              ../cool_bsp/\libucosii_bsp.a(timeouts.o) (ire_cticks)
../cool_bsp/\libucosii_bsp.a(ipdemux.o)
                              ../cool_bsp/\libucosii_bsp.a(ipnet.o) (ip_rcv)
../cool_bsp/\libucosii_bsp.a(ipmc.o)
                              ../cool_bsp/\libucosii_bsp.a(ipstart.o) (in_addmulti)
../cool_bsp/\libucosii_bsp.a(ipport.o)
                              ../cool_bsp/\libucosii_bsp.a(targnios.o) (port_prep)
../cool_bsp/\libucosii_bsp.a(ipraw.o)
                              ../cool_bsp/\libucosii_bsp.a(rawsock.o) (ipraw_eps)
../cool_bsp/\libucosii_bsp.a(iproute.o)
                              ../cool_bsp/\libucosii_bsp.a(ip.o) (cachedRoute)
../cool_bsp/\libucosii_bsp.a(udp.o)
                              ../cool_bsp/\libucosii_bsp.a(ipdemux.o) (udpdemux)
../cool_bsp/\libucosii_bsp.a(igmp.o)
                              ../cool_bsp/\libucosii_bsp.a(igmp_cmn.o) (igmpv1_input)
../cool_bsp/\libucosii_bsp.a(igmp2.o)
                              ../cool_bsp/\libucosii_bsp.a(igmp_cmn.o) (igmpv2_input)
../cool_bsp/\libucosii_bsp.a(ipopt.o)
                              ../cool_bsp/\libucosii_bsp.a(socket.o) (ip_setmoptions)
../cool_bsp/\libucosii_bsp.a(u_mctest.o)
                              ../cool_bsp/\libucosii_bsp.a(allports.o) (u_mctest_init)
../cool_bsp/\libucosii_bsp.a(dhcsetup.o)
                              ../cool_bsp/\libucosii_bsp.a(allports.o) (dhc_setup)
../cool_bsp/\libucosii_bsp.a(memdev.o)
                              ../cool_bsp/\libucosii_bsp.a(allports.o) (init_memdev)
../cool_bsp/\libucosii_bsp.a(tcpcksum.o)
                              ../cool_bsp/\libucosii_bsp.a(nptcp.o) (tcp_cksum)
../cool_bsp/\libucosii_bsp.a(in_pcb.o)
                              ../cool_bsp/\libucosii_bsp.a(tcp_usr.o) (in_pcballoc)
../cool_bsp/\libucosii_bsp.a(vfsfiles.o)
                              ../cool_bsp/\libucosii_bsp.a(memdev.o) (vfsystems)
../cool_bsp/\libucosii_bsp.a(vfsport.o)
                              ../cool_bsp/\libucosii_bsp.a(allports.o) (prep_vfs)
../cool_bsp/\libucosii_bsp.a(alt_exception_entry.o)
                              ../cool_bsp/\libucosii_bsp.a(alt_irq_entry.o) (alt_exception)
../cool_bsp/\libucosii_bsp.a(alt_fcntl.o)
                              ../cool_bsp/\libucosii_bsp.a(alt_iniche_fcntl.o) (alt_fcntl)
../cool_bsp/\libucosii_bsp.a(alt_find_file.o)
                              ../cool_bsp/\libucosii_bsp.a(alt_open.o) (alt_find_file)
../cool_bsp/\libucosii_bsp.a(alt_get_fd.o)
                              ../cool_bsp/\libucosii_bsp.a(alt_open.o) (alt_get_fd)
../cool_bsp/\libucosii_bsp.a(icmp.o)
                              ../cool_bsp/\libucosii_bsp.a(ipdemux.o) (icmprcv)
c:/altera/13.0/nios2eds/bin/gnu/h-i686-mingw32/bin/../lib/gcc/nios2-elf/4.1.2/../../../../nios2-elf/lib/mno-hw-mul\libc.a(lib_a-atexit.o)
                              ../cool_bsp/\libucosii_bsp.a(alt_main.o) (atexit)
c:/altera/13.0/nios2eds/bin/gnu/h-i686-mingw32/bin/../lib/gcc/nios2-elf/4.1.2/../../../../nios2-elf/lib/mno-hw-mul\libc.a(lib_a-atoi.o)
                              ../cool_bsp/\libucosii_bsp.a(parseip.o) (atoi)
c:/altera/13.0/nios2eds/bin/gnu/h-i686-mingw32/bin/../lib/gcc/nios2-elf/4.1.2/../../../../nios2-elf/lib/mno-hw-mul\libc.a(lib_a-calloc.o)
                              ../cool_bsp/\libucosii_bsp.a(targnios.o) (calloc)
c:/altera/13.0/nios2eds/bin/gnu/h-i686-mingw32/bin/../lib/gcc/nios2-elf/4.1.2/../../../../nios2-elf/lib/mno-hw-mul\libc.a(lib_a-malloc.o)
                              ../cool_bsp/\libucosii_bsp.a(targnios.o) (free)
c:/altera/13.0/nios2eds/bin/gnu/h-i686-mingw32/bin/../lib/gcc/nios2-elf/4.1.2/../../../../nios2-elf/lib/mno-hw-mul\libc.a(lib_a-memcmp.o)
                              ../cool_bsp/\libucosii_bsp.a(altera_avalon_cfi_flash.o) (memcmp)
c:/altera/13.0/nios2eds/bin/gnu/h-i686-mingw32/bin/../lib/gcc/nios2-elf/4.1.2/../../../../nios2-elf/lib/mno-hw-mul\libc.a(lib_a-sprintf.o)
                              ../cool_bsp/\libucosii_bsp.a(in_utils.o) (sprintf)
c:/altera/13.0/nios2eds/bin/gnu/h-i686-mingw32/bin/../lib/gcc/nios2-elf/4.1.2/../../../../nios2-elf/lib/mno-hw-mul\libc.a(lib_a-strcpy.o)
                              ../cool_bsp/\libucosii_bsp.a(parseip.o) (strcpy)
c:/altera/13.0/nios2eds/bin/gnu/h-i686-mingw32/bin/../lib/gcc/nios2-elf/4.1.2/../../../../nios2-elf/lib/mno-hw-mul\libc.a(lib_a-strncmp.o)
                              ../cool_bsp/\libucosii_bsp.a(vfsfiles.o) (strncmp)
c:/altera/13.0/nios2eds/bin/gnu/h-i686-mingw32/bin/../lib/gcc/nios2-elf/4.1.2/../../../../nios2-elf/lib/mno-hw-mul\libc.a(lib_a-strncpy.o)
                              ../cool_bsp/\libucosii_bsp.a(dhcpclnt.o) (strncpy)
c:/altera/13.0/nios2eds/bin/gnu/h-i686-mingw32/bin/../lib/gcc/nios2-elf/4.1.2/../../../../nios2-elf/lib/mno-hw-mul\libc.a(lib_a-strtol.o)
                              c:/altera/13.0/nios2eds/bin/gnu/h-i686-mingw32/bin/../lib/gcc/nios2-elf/4.1.2/../../../../nios2-elf/lib/mno-hw-mul\libc.a(lib_a-atoi.o) (_strtol_r)
c:/altera/13.0/nios2eds/bin/gnu/h-i686-mingw32/bin/../lib/gcc/nios2-elf/4.1.2/../../../../nios2-elf/lib/mno-hw-mul\libc.a(lib_a-vprintf.o)
                              ../cool_bsp/\libucosii_bsp.a(in_utils.o) (vprintf)
c:/altera/13.0/nios2eds/bin/gnu/h-i686-mingw32/bin/../lib/gcc/nios2-elf/4.1.2/../../../../nios2-elf/lib/mno-hw-mul\libc.a(lib_a-vsprintf.o)
                              ../cool_bsp/\libucosii_bsp.a(in_utils.o) (vsprintf)
c:/altera/13.0/nios2eds/bin/gnu/h-i686-mingw32/bin/../lib/gcc/nios2-elf/4.1.2/../../../../nios2-elf/lib/mno-hw-mul\libc.a(lib_a-__atexit.o)
                              c:/altera/13.0/nios2eds/bin/gnu/h-i686-mingw32/bin/../lib/gcc/nios2-elf/4.1.2/../../../../nios2-elf/lib/mno-hw-mul\libc.a(lib_a-atexit.o) (__register_exitproc)

Allocating common symbols
Common symbol       size              file

soq                 0x14              ../cool_bsp/\libucosii_bsp.a(nptcp.o)
alt_irq             0x100             ../cool_bsp/\libucosii_bsp.a(alt_irq_handler.o)
tcp_optionbuf       0x4               ../cool_bsp/\libucosii_bsp.a(tcp_out.o)
last_flash_sector_offset
                    0x4               obj/default/SSS_DE2_115.o
rt_mib              0x4               ../cool_bsp/\libucosii_bsp.a(ip.o)
so_evtmap_create    0x4               ../cool_bsp/\libucosii_bsp.a(ipport.o)
SSSLEDCommandQ      0x4               obj/default/simple_socket_server.o
OSLockNesting       0x1               ../cool_bsp/\libucosii_bsp.a(os_core.o)
tcb                 0x2c              ../cool_bsp/\libucosii_bsp.a(tcp_subr.o)
OSRunning           0x1               ../cool_bsp/\libucosii_bsp.a(os_core.o)
dhc_states          0xf0              ../cool_bsp/\libucosii_bsp.a(dhcpclnt.o)
tcpstat             0xe0              ../cool_bsp/\libucosii_bsp.a(tcp_subr.o)
OSIdleCtr           0x4               ../cool_bsp/\libucosii_bsp.a(os_core.o)
SSSLEDLightshowSem  0x4               obj/default/simple_socket_server.o
udp_mib             0x10              ../cool_bsp/\libucosii_bsp.a(udp.o)
to_netmain          0x1               ../cool_bsp/\libucosii_bsp.a(netmain.o)
OSPrioHighRdy       0x1               ../cool_bsp/\libucosii_bsp.a(os_core.o)
errno               0x4               c:/altera/13.0/nios2eds/bin/gnu/h-i686-mingw32/bin/../lib/gcc/nios2-elf/4.1.2/../../../../nios2-elf/lib/mno-hw-mul\libc.a(lib_a-int_errno.o)
lilfreeq            0x14              ../cool_bsp/\libucosii_bsp.a(pktalloc.o)
icmp_mib            0x68              ../cool_bsp/\libucosii_bsp.a(icmp.o)
resid_semaphore     0x40              ../cool_bsp/\libucosii_bsp.a(targnios.o)
alt_heapsem         0x4               ../cool_bsp/\libucosii_bsp.a(alt_malloc_lock.o)
OSFlagTbl           0x370             ../cool_bsp/\libucosii_bsp.a(os_core.o)
mbstat              0x8               ../cool_bsp/\libucosii_bsp.a(nptcp.o)
netq_intmask        0x4               ../cool_bsp/\libucosii_bsp.a(osportco.o)
select_wait         0x2               ../cool_bsp/\libucosii_bsp.a(nptcp.o)
tcpmib              0x3c              ../cool_bsp/\libucosii_bsp.a(nptcp.o)
OSPrioCur           0x1               ../cool_bsp/\libucosii_bsp.a(os_core.o)
mheap_sem_ptr       0x4               ../cool_bsp/\libucosii_bsp.a(targnios.o)
netlist             0x14              ../cool_bsp/\libucosii_bsp.a(iface.o)
mbufq               0x14              ../cool_bsp/\libucosii_bsp.a(nptcp.o)
OSTCBList           0x4               ../cool_bsp/\libucosii_bsp.a(os_core.o)
alt_fd_list_lock    0x4               ../cool_bsp/\libucosii_bsp.a(alt_dev.o)
OSMemTbl            0xc30             ../cool_bsp/\libucosii_bsp.a(os_core.o)
OSTickStepState     0x1               ../cool_bsp/\libucosii_bsp.a(os_core.o)
OSTaskStatStk       0x800             ../cool_bsp/\libucosii_bsp.a(os_core.o)
OSCtxSwCtr          0x4               ../cool_bsp/\libucosii_bsp.a(os_core.o)
igmpstats           0x64              ../cool_bsp/\libucosii_bsp.a(igmp_cmn.o)
ire_stats           0x18              ../cool_bsp/\libucosii_bsp.a(ip_reasm.o)
old_mode            0x4               ../cool_bsp/\libucosii_bsp.a(osportco.o)
vfs_dir_stale       0x4               ../cool_bsp/\libucosii_bsp.a(vfsfiles.o)
cticks_factor       0x4               ../cool_bsp/\libucosii_bsp.a(brdutils.o)
g_dm9ka             0x44              obj/default/dm9000a.o
OSIdleCtrMax        0x4               ../cool_bsp/\libucosii_bsp.a(os_core.o)
memestats           0x10              ../cool_bsp/\libucosii_bsp.a(pktalloc.o)
intimers            0x64              ../cool_bsp/\libucosii_bsp.a(timeouts.o)
OSTCBFreeList       0x4               ../cool_bsp/\libucosii_bsp.a(os_core.o)
global_TCPwakeup_setIndx
                    0x4               ../cool_bsp/\libucosii_bsp.a(osportco.o)
SSSInitialTaskStk   0x2000            obj/default/iniche_init.o
rcvdq               0x14              ../cool_bsp/\libucosii_bsp.a(ipnet.o)
global_tcb_ext      0xfc              ../cool_bsp/\libucosii_bsp.a(osportco.o)
netstatic           0x300             ../cool_bsp/\libucosii_bsp.a(ipstart.o)
tcp_maxidle         0x4               ../cool_bsp/\libucosii_bsp.a(tcp_timr.o)
LED7SegLightshowTaskStk
                    0x2000            obj/default/simple_socket_server.o
OSCPUUsage          0x1               ../cool_bsp/\libucosii_bsp.a(os_core.o)
nets                0x10              ../cool_bsp/\libucosii_bsp.a(ipstart.o)
pktlog              0xf0              ../cool_bsp/\libucosii_bsp.a(pktalloc.o)
OSTaskCtr           0x1               ../cool_bsp/\libucosii_bsp.a(os_core.o)
SSSLEDEventFlag     0x4               obj/default/simple_socket_server.o
OSMemFreeList       0x4               ../cool_bsp/\libucosii_bsp.a(os_core.o)
vfs_open_files      0x4               ../cool_bsp/\libucosii_bsp.a(vfsfiles.o)
cticks              0x4               ../cool_bsp/\libucosii_bsp.a(osportco.o)
to_nettick          0x1               ../cool_bsp/\libucosii_bsp.a(netmain.o)
last_flash_sector   0x4               obj/default/SSS_DE2_115.o
OSQTbl              0x1e0             ../cool_bsp/\libucosii_bsp.a(os_core.o)
OSTCBHighRdy        0x4               ../cool_bsp/\libucosii_bsp.a(os_core.o)
OSQFreeList         0x4               ../cool_bsp/\libucosii_bsp.a(os_core.o)
OSRdyGrp            0x1               ../cool_bsp/\libucosii_bsp.a(os_core.o)
ip_mib              0x50              ../cool_bsp/\libucosii_bsp.a(ip.o)
SSSLEDCommandQTbl   0x78              obj/default/simple_socket_server.o
OS_TPS              0x4               ../cool_bsp/\libucosii_bsp.a(brdutils.o)
_atexit0            0x190             c:/altera/13.0/nios2eds/bin/gnu/h-i686-mingw32/bin/../lib/gcc/nios2-elf/4.1.2/../../../../nios2-elf/lib/mno-hw-mul\libc.a(lib_a-atexit.o)
OSRdyTbl            0x3               ../cool_bsp/\libucosii_bsp.a(os_core.o)
igmp_all_hosts_group
                    0x4               ../cool_bsp/\libucosii_bsp.a(igmp_cmn.o)
eth_prt_buf         0x12              ../cool_bsp/\libucosii_bsp.a(in_utils.o)
app_semaphore       0x18              ../cool_bsp/\libucosii_bsp.a(targnios.o)
LEDManagementTaskStk
                    0x2000            obj/default/simple_socket_server.o
rcvdq_sem_ptr       0x4               ../cool_bsp/\libucosii_bsp.a(targnios.o)
OSEventFreeList     0x4               ../cool_bsp/\libucosii_bsp.a(os_core.o)
mfreeq              0x14              ../cool_bsp/\libucosii_bsp.a(nptcp.o)
to_ssstask          0x1               obj/default/iniche_init.o
global_TCPwakeup_set
                    0xf0              ../cool_bsp/\libucosii_bsp.a(osportco.o)
bigfreeq            0x14              ../cool_bsp/\libucosii_bsp.a(pktalloc.o)
so_evtmap_delete    0x4               ../cool_bsp/\libucosii_bsp.a(ipport.o)
tcp_saveti          0x28              ../cool_bsp/\libucosii_bsp.a(tcp_in.o)
OSIntNesting        0x1               ../cool_bsp/\libucosii_bsp.a(os_core.o)
so_evtmap           0x1               ../cool_bsp/\libucosii_bsp.a(ipport.o)
OSTCBCur            0x4               ../cool_bsp/\libucosii_bsp.a(os_core.o)
arp_table           0x100             ../cool_bsp/\libucosii_bsp.a(et_arp.o)
tcp_iss             0x4               ../cool_bsp/\libucosii_bsp.a(tcp_timr.o)
vfs_total_rw_space  0x4               ../cool_bsp/\libucosii_bsp.a(vfsfiles.o)
OSTime              0x4               ../cool_bsp/\libucosii_bsp.a(os_core.o)
OSTaskIdleStk       0x800             ../cool_bsp/\libucosii_bsp.a(os_core.o)
OSEventTbl          0xb40             ../cool_bsp/\libucosii_bsp.a(os_core.o)
vfs_total_dyna_files
                    0x4               ../cool_bsp/\libucosii_bsp.a(vfsfiles.o)
OSTCBTbl            0x510             ../cool_bsp/\libucosii_bsp.a(os_core.o)
ipreturn            0x12              ../cool_bsp/\libucosii_bsp.a(in_utils.o)
OSFlagFreeList      0x4               ../cool_bsp/\libucosii_bsp.a(os_core.o)
dropline            0x4               ../cool_bsp/\libucosii_bsp.a(tcp_in.o)
OSStatRdy           0x1               ../cool_bsp/\libucosii_bsp.a(os_core.o)
OSTCBPrioTbl        0x54              ../cool_bsp/\libucosii_bsp.a(os_core.o)
igmp_all_rtrs_group
                    0x4               ../cool_bsp/\libucosii_bsp.a(igmp_cmn.o)
alt_envsem          0x4               ../cool_bsp/\libucosii_bsp.a(alt_env_lock.o)
OSIdleCtrRun        0x4               ../cool_bsp/\libucosii_bsp.a(os_core.o)

Memory Configuration

Name             Origin             Length             Attributes
sdram_0_BEFORE_EXCEPTION 0x00800000         0x00000020
sdram_0          0x00800020         0x007fffe0
reset            0x01400000         0x00000020
cfi_flash_0      0x01400020         0x003fffe0
sram_0           0x01800000         0x00080000
epcs_controller  0x01881000         0x00000800
*default*        0x00000000         0xffffffff

Linker script and memory map

LOAD ../cool_bsp//obj/HAL/src/crt0.o
LOAD obj/default/SSS_DE2_115.o
LOAD obj/default/alt_error_handler.o
LOAD obj/default/dm9000a.o
LOAD obj/default/iniche_init.o
LOAD obj/default/led.o
LOAD obj/default/network_utilities.o
LOAD obj/default/simple_socket_server.o
LOAD obj/default/tse_my_system.o
LOAD c:/altera/13.0/nios2eds/bin/gnu/h-i686-mingw32/bin/../lib/gcc/nios2-elf/4.1.2/../../../../nios2-elf/lib/mno-hw-mul\libstdc++.a
LOAD c:/altera/13.0/nios2eds/bin/gnu/h-i686-mingw32/bin/../lib/gcc/nios2-elf/4.1.2/../../../../nios2-elf/lib/mno-hw-mul\libm.a
LOAD c:/altera/13.0/nios2eds/bin/gnu/h-i686-mingw32/bin/../lib/gcc/nios2-elf/4.1.2/mno-hw-mul\libgcc.a
START GROUP
LOAD c:/altera/13.0/nios2eds/bin/gnu/h-i686-mingw32/bin/../lib/gcc/nios2-elf/4.1.2/../../../../nios2-elf/lib/mno-hw-mul\libc.a
LOAD c:/altera/13.0/nios2eds/bin/gnu/h-i686-mingw32/bin/../lib/gcc/nios2-elf/4.1.2/mno-hw-mul\libgcc.a
LOAD ../cool_bsp/\libucosii_bsp.a
END GROUP
LOAD c:/altera/13.0/nios2eds/bin/gnu/h-i686-mingw32/bin/../lib/gcc/nios2-elf/4.1.2/mno-hw-mul\libgcc.a
                0x00800000                __alt_mem_sdram_0 = 0x800000
                0x01400000                __alt_mem_cfi_flash_0 = 0x1400000
                0x01800000                __alt_mem_sram_0 = 0x1800000
                0x01881000                __alt_mem_epcs_controller = 0x1881000

.entry          0x01400000        0x0
 *(.entry)
 .entry         0x01400000        0x0 ../cool_bsp//obj/HAL/src/crt0.o
                0x01400000                __reset

.exceptions     0x00800020      0x19c
                0x00800020                PROVIDE (__ram_exceptions_start, ABSOLUTE (.))
                0x00800020                . = ALIGN (0x20)
 *(.irq)
 *(.exceptions.entry.label)
 .exceptions.entry.label
                0x00800020        0x0 ../cool_bsp/\libucosii_bsp.a(alt_irq_entry.o)
                0x00800020                alt_irq_entry
 .exceptions.entry.label
                0x00800020        0x0 ../cool_bsp/\libucosii_bsp.a(alt_exception_entry.o)
                0x00800020                alt_exception
 *(.exceptions.entry.user)
 *(.exceptions.entry)
 .exceptions.entry
                0x00800020       0x54 ../cool_bsp/\libucosii_bsp.a(alt_exception_entry.o)
 *(.exceptions.irqtest.user)
 *(.exceptions.irqtest)
 .exceptions.irqtest
                0x00800074       0x10 ../cool_bsp/\libucosii_bsp.a(alt_irq_entry.o)
 *(.exceptions.irqhandler.user)
 *(.exceptions.irqhandler)
 .exceptions.irqhandler
                0x00800084        0x4 ../cool_bsp/\libucosii_bsp.a(alt_irq_entry.o)
 *(.exceptions.irqreturn.user)
 *(.exceptions.irqreturn)
 .exceptions.irqreturn
                0x00800088        0x4 ../cool_bsp/\libucosii_bsp.a(alt_irq_entry.o)
 *(.exceptions.notirq.label)
 .exceptions.notirq.label
                0x0080008c        0x0 ../cool_bsp/\libucosii_bsp.a(alt_irq_entry.o)
 *(.exceptions.notirq.user)
 *(.exceptions.notirq)
 .exceptions.notirq
                0x0080008c        0x8 ../cool_bsp/\libucosii_bsp.a(alt_exception_entry.o)
 *(.exceptions.soft.user)
 *(.exceptions.soft)
 *(.exceptions.unknown.user)
 *(.exceptions.unknown)
 .exceptions.unknown
                0x00800094        0x4 ../cool_bsp/\libucosii_bsp.a(alt_exception_entry.o)
 *(.exceptions.exit.label)
 .exceptions.exit.label
                0x00800098        0x0 ../cool_bsp/\libucosii_bsp.a(alt_irq_entry.o)
 .exceptions.exit.label
                0x00800098        0x0 ../cool_bsp/\libucosii_bsp.a(alt_exception_entry.o)
 *(.exceptions.exit.user)
 *(.exceptions.exit)
 .exceptions.exit
                0x00800098       0x54 ../cool_bsp/\libucosii_bsp.a(alt_exception_entry.o)
 *(.exceptions)
 .exceptions    0x008000ec       0xd0 ../cool_bsp/\libucosii_bsp.a(alt_irq_handler.o)
                0x008000ec                alt_irq_handler
                0x008001bc                PROVIDE (__ram_exceptions_end, ABSOLUTE (.))
                0x00800020                PROVIDE (__flash_exceptions_start, LOADADDR (.exceptions))

.text           0x008001bc    0x45670
                0x008001bc                PROVIDE (stext, ABSOLUTE (.))
 *(.interp)
 *(.hash)
 *(.dynsym)
 *(.dynstr)
 *(.gnu.version)
 *(.gnu.version_d)
 *(.gnu.version_r)
 *(.rel.init)
 *(.rela.init)
 *(.rel.text .rel.text.* .rel.gnu.linkonce.t.*)
 *(.rela.text .rela.text.* .rela.gnu.linkonce.t.*)
 *(.rel.fini)
 *(.rela.fini)
 *(.rel.rodata .rel.rodata.* .rel.gnu.linkonce.r.*)
 *(.rela.rodata .rela.rodata.* .rela.gnu.linkonce.r.*)
 *(.rel.data .rel.data.* .rel.gnu.linkonce.d.*)
 *(.rela.data .rela.data.* .rela.gnu.linkonce.d.*)
 *(.rel.tdata .rel.tdata.* .rel.gnu.linkonce.td.*)
 *(.rela.tdata .rela.tdata.* .rela.gnu.linkonce.td.*)
 *(.rel.tbss .rel.tbss.* .rel.gnu.linkonce.tb.*)
 *(.rela.tbss .rela.tbss.* .rela.gnu.linkonce.tb.*)
 *(.rel.ctors)
 *(.rela.ctors)
 *(.rel.dtors)
 *(.rela.dtors)
 *(.rel.got)
 *(.rela.got)
 *(.rel.sdata .rel.sdata.* .rel.gnu.linkonce.s.*)
 *(.rela.sdata .rela.sdata.* .rela.gnu.linkonce.s.*)
 *(.rel.sbss .rel.sbss.* .rel.gnu.linkonce.sb.*)
 *(.rela.sbss .rela.sbss.* .rela.gnu.linkonce.sb.*)
 *(.rel.sdata2 .rel.sdata2.* .rel.gnu.linkonce.s2.*)
 *(.rela.sdata2 .rela.sdata2.* .rela.gnu.linkonce.s2.*)
 *(.rel.sbss2 .rel.sbss2.* .rel.gnu.linkonce.sb2.*)
 *(.rela.sbss2 .rela.sbss2.* .rela.gnu.linkonce.sb2.*)
 *(.rel.bss .rel.bss.* .rel.gnu.linkonce.b.*)
 *(.rela.bss .rela.bss.* .rela.gnu.linkonce.b.*)
 *(.rel.plt)
 *(.rela.plt)
 *(.rel.dyn)
 *(.init)
 *(.plt)
 *(.text .stub .text.* .gnu.linkonce.t.*)
 .text          0x008001bc       0x38 ../cool_bsp//obj/HAL/src/crt0.o
                0x008001bc                _start
 .text          0x008001f4      0x2ec obj/default/SSS_DE2_115.o
                0x008001f4                get_DE2_115_mac_addr
                0x0080039c                FindLastFlashSectorOffset
 .text          0x008004e0      0xba8 obj/default/alt_error_handler.o
                0x008004e0                alt_uCOSIIErrorHandler
                0x00800b04                alt_NetworkErrorHandler
                0x00800d9c                alt_SSSErrorHandler
 .text          0x00801088      0xe48 obj/default/dm9000a.o
                0x00801088                dm9000a_iow
                0x008010dc                dm9000a_ior
                0x00801128                phy_write
                0x008011c4                dm9000a_reset
                0x00801388                TransmitPacket
                0x008014a4                prep_dm9000a
                0x008016c0                dm9000a_init
                0x00801b10                dm9Ka_isr_wrap
                0x00801b50                dm9ka_init
                0x00801c48                dm9ka_close
                0x00801d58                dm9ka_stats
                0x00801db4                dm9ka_pkt_send
 .text          0x00801ed0      0x464 obj/default/iniche_init.o
                0x00801ed0                SSSInitialTask
                0x008020dc                main
                0x008021d8                delay
                0x00802230                toInt
 .text          0x00802334      0x324 obj/default/led.o
                0x00802334                led_bit_toggle
                0x00802400                LED7SegLightshowTask
                0x00802474                LEDManagementTask
 .text          0x00802658      0x740 obj/default/network_utilities.o
                0x00802658                get_mac_addr
                0x008026b0                get_ip_addr
                0x0080271c                get_serial_number
                0x008028fc                generate_and_store_mac_addr
                0x00802ac8                generate_mac_addr
                0x00802c04                get_board_mac_addr
 .text          0x00802d98      0x9f8 obj/default/simple_socket_server.o
                0x00802d98                SSSCreateOSDataStructs
                0x00802e40                SSSCreateTasks
                0x00802f04                sss_reset_connection
                0x00802f74                sss_send_menu
                0x00803104                sss_handle_accept
                0x008031c4                sss_exec_command
                0x00803338                sss_handle_receive
                0x00803524                SSSSimpleSocketServerTask
 .text          0x00803790        0x0 obj/default/tse_my_system.o
 .text          0x00803790       0xa4 c:/altera/13.0/nios2eds/bin/gnu/h-i686-mingw32/bin/../lib/gcc/nios2-elf/4.1.2/mno-hw-mul\libgcc.a(_fixunsdfsi.o)
                0x00803790                __fixunsdfsi
 .text          0x00803834      0x504 c:/altera/13.0/nios2eds/bin/gnu/h-i686-mingw32/bin/../lib/gcc/nios2-elf/4.1.2/mno-hw-mul\libgcc.a(_addsub_df.o)
                0x00803c44                __subdf3
                0x00803cc4                __adddf3
 .text          0x00803d38      0x3c4 c:/altera/13.0/nios2eds/bin/gnu/h-i686-mingw32/bin/../lib/gcc/nios2-elf/4.1.2/mno-hw-mul\libgcc.a(_mul_df.o)
                0x00803d38                __muldf3
 .text          0x008040fc       0x88 c:/altera/13.0/nios2eds/bin/gnu/h-i686-mingw32/bin/../lib/gcc/nios2-elf/4.1.2/mno-hw-mul\libgcc.a(_ge_df.o)
                0x008040fc                __gedf2
 .text          0x00804184       0xd8 c:/altera/13.0/nios2eds/bin/gnu/h-i686-mingw32/bin/../lib/gcc/nios2-elf/4.1.2/mno-hw-mul\libgcc.a(_df_to_si.o)
                0x00804184                __fixdfsi
 .text          0x0080425c        0x0 c:/altera/13.0/nios2eds/bin/gnu/h-i686-mingw32/bin/../lib/gcc/nios2-elf/4.1.2/mno-hw-mul\libgcc.a(_thenan_df.o)
 .text          0x0080425c      0x194 c:/altera/13.0/nios2eds/bin/gnu/h-i686-mingw32/bin/../lib/gcc/nios2-elf/4.1.2/mno-hw-mul\libgcc.a(_usi_to_df.o)
                0x0080425c                __floatunsidf
 .text          0x008043f0       0x38 c:/altera/13.0/nios2eds/bin/gnu/h-i686-mingw32/bin/../lib/gcc/nios2-elf/4.1.2/mno-hw-mul\libgcc.a(lib2-mul.o)
                0x008043f0                __mulsi3
 .text          0x00804428      0x124 c:/altera/13.0/nios2eds/bin/gnu/h-i686-mingw32/bin/../lib/gcc/nios2-elf/4.1.2/mno-hw-mul\libgcc.a(_muldi3.o)
                0x00804428                __muldi3
 .text          0x0080454c       0x80 c:/altera/13.0/nios2eds/bin/gnu/h-i686-mingw32/bin/../lib/gcc/nios2-elf/4.1.2/mno-hw-mul\libgcc.a(_clzsi2.o)
                0x0080454c                __clzsi2
 .text          0x008045cc      0x314 c:/altera/13.0/nios2eds/bin/gnu/h-i686-mingw32/bin/../lib/gcc/nios2-elf/4.1.2/mno-hw-mul\libgcc.a(_pack_df.o)
                0x008045cc                __pack_d
 .text          0x008048e0      0x138 c:/altera/13.0/nios2eds/bin/gnu/h-i686-mingw32/bin/../lib/gcc/nios2-elf/4.1.2/mno-hw-mul\libgcc.a(_unpack_df.o)
                0x008048e0                __unpack_d
 .text          0x00804a18       0xc8 c:/altera/13.0/nios2eds/bin/gnu/h-i686-mingw32/bin/../lib/gcc/nios2-elf/4.1.2/mno-hw-mul\libgcc.a(_fpcmp_parts_df.o)
                0x00804a18                __fpcmp_parts_d
 .text          0x00804ae0        0x0 c:/altera/13.0/nios2eds/bin/gnu/h-i686-mingw32/bin/../lib/gcc/nios2-elf/4.1.2/mno-hw-mul\libgcc.a(_clz.o)
 .text          0x00804ae0        0x0 c:/altera/13.0/nios2eds/bin/gnu/h-i686-mingw32/bin/../lib/gcc/nios2-elf/4.1.2/../../../../nios2-elf/lib/mno-hw-mul\libc.a(lib_a-ctype_.o)
 .text          0x00804ae0       0x38 c:/altera/13.0/nios2eds/bin/gnu/h-i686-mingw32/bin/../lib/gcc/nios2-elf/4.1.2/../../../../nios2-elf/lib/mno-hw-mul\libc.a(lib_a-exit.o)
                0x00804ae0                exit
 .text          0x00804b18       0x60 c:/altera/13.0/nios2eds/bin/gnu/h-i686-mingw32/bin/../lib/gcc/nios2-elf/4.1.2/../../../../nios2-elf/lib/mno-hw-mul\libc.a(lib_a-fprintf.o)
                0x00804b18                fprintf
                0x00804b44                _fprintf_r
 .text          0x00804b78       0xec c:/altera/13.0/nios2eds/bin/gnu/h-i686-mingw32/bin/../lib/gcc/nios2-elf/4.1.2/../../../../nios2-elf/lib/mno-hw-mul\libc.a(lib_a-fwrite.o)
                0x00804b78                _fwrite_r
                0x00804c24                fwrite
 .text          0x00804c64      0x128 c:/altera/13.0/nios2eds/bin/gnu/h-i686-mingw32/bin/../lib/gcc/nios2-elf/4.1.2/../../../../nios2-elf/lib/mno-hw-mul\libc.a(lib_a-getc.o)
                0x00804c64                getc
                0x00804cfc                _getc_r
 .text          0x00804d8c        0x0 c:/altera/13.0/nios2eds/bin/gnu/h-i686-mingw32/bin/../lib/gcc/nios2-elf/4.1.2/../../../../nios2-elf/lib/mno-hw-mul\libc.a(lib_a-impure.o)
 .text          0x00804d8c       0xa0 c:/altera/13.0/nios2eds/bin/gnu/h-i686-mingw32/bin/../lib/gcc/nios2-elf/4.1.2/../../../../nios2-elf/lib/mno-hw-mul\libc.a(lib_a-memcpy.o)
                0x00804d8c                memcpy
 .text          0x00804e2c       0xe0 c:/altera/13.0/nios2eds/bin/gnu/h-i686-mingw32/bin/../lib/gcc/nios2-elf/4.1.2/../../../../nios2-elf/lib/mno-hw-mul\libc.a(lib_a-memmove.o)
                0x00804e2c                memmove
 .text          0x00804f0c       0x98 c:/altera/13.0/nios2eds/bin/gnu/h-i686-mingw32/bin/../lib/gcc/nios2-elf/4.1.2/../../../../nios2-elf/lib/mno-hw-mul\libc.a(lib_a-memset.o)
                0x00804f0c                memset
 .text          0x00804fa4       0x80 c:/altera/13.0/nios2eds/bin/gnu/h-i686-mingw32/bin/../lib/gcc/nios2-elf/4.1.2/../../../../nios2-elf/lib/mno-hw-mul\libc.a(lib_a-perror.o)
                0x00804fa4                _perror_r
                0x00805010                perror
 .text          0x00805024       0x78 c:/altera/13.0/nios2eds/bin/gnu/h-i686-mingw32/bin/../lib/gcc/nios2-elf/4.1.2/../../../../nios2-elf/lib/mno-hw-mul\libc.a(lib_a-printf.o)
                0x00805024                printf
                0x00805068                _printf_r
 .text          0x0080509c      0x1ec c:/altera/13.0/nios2eds/bin/gnu/h-i686-mingw32/bin/../lib/gcc/nios2-elf/4.1.2/../../../../nios2-elf/lib/mno-hw-mul\libc.a(lib_a-putc.o)
                0x0080509c                putc
                0x008051a0                _putc_r
 .text          0x00805288       0x24 c:/altera/13.0/nios2eds/bin/gnu/h-i686-mingw32/bin/../lib/gcc/nios2-elf/4.1.2/../../../../nios2-elf/lib/mno-hw-mul\libc.a(lib_a-putchar.o)
                0x00805288                putchar
                0x008052a4                _putchar_r
 .text          0x008052ac       0xb4 c:/altera/13.0/nios2eds/bin/gnu/h-i686-mingw32/bin/../lib/gcc/nios2-elf/4.1.2/../../../../nios2-elf/lib/mno-hw-mul\libc.a(lib_a-puts.o)
                0x008052ac                _puts_r
                0x0080534c                puts
 .text          0x00805360       0x60 c:/altera/13.0/nios2eds/bin/gnu/h-i686-mingw32/bin/../lib/gcc/nios2-elf/4.1.2/../../../../nios2-elf/lib/mno-hw-mul\libc.a(lib_a-rget.o)
                0x00805360                __srget_r
                0x008053ac                __srget
 .text          0x008053c0       0xe0 c:/altera/13.0/nios2eds/bin/gnu/h-i686-mingw32/bin/../lib/gcc/nios2-elf/4.1.2/../../../../nios2-elf/lib/mno-hw-mul\libc.a(lib_a-strchr.o)
                0x008053c0                strchr
 .text          0x008054a0      0x674 c:/altera/13.0/nios2eds/bin/gnu/h-i686-mingw32/bin/../lib/gcc/nios2-elf/4.1.2/../../../../nios2-elf/lib/mno-hw-mul\libc.a(lib_a-strerror.o)
                0x008054a0                strerror
 .text          0x00805b14       0x74 c:/altera/13.0/nios2eds/bin/gnu/h-i686-mingw32/bin/../lib/gcc/nios2-elf/4.1.2/../../../../nios2-elf/lib/mno-hw-mul\libc.a(lib_a-strlen.o)
                0x00805b14                strlen
 .text          0x00805b88        0x8 c:/altera/13.0/nios2eds/bin/gnu/h-i686-mingw32/bin/../lib/gcc/nios2-elf/4.1.2/../../../../nios2-elf/lib/mno-hw-mul\libc.a(lib_a-u_strerr.o)
                0x00805b88                _user_strerror
 .text          0x00805b90     0x1f40 c:/altera/13.0/nios2eds/bin/gnu/h-i686-mingw32/bin/../lib/gcc/nios2-elf/4.1.2/../../../../nios2-elf/lib/mno-hw-mul\libc.a(lib_a-vfprintf.o)
                0x00805be8                ___vfprintf_internal_r
                0x00807aac                __vfprintf_internal
 .text          0x00807ad0      0x14c c:/altera/13.0/nios2eds/bin/gnu/h-i686-mingw32/bin/../lib/gcc/nios2-elf/4.1.2/../../../../nios2-elf/lib/mno-hw-mul\libc.a(lib_a-wbuf.o)
                0x00807ad0                __swbuf_r
                0x00807c00                __swbuf
 .text          0x00807c1c      0x13c c:/altera/13.0/nios2eds/bin/gnu/h-i686-mingw32/bin/../lib/gcc/nios2-elf/4.1.2/../../../../nios2-elf/lib/mno-hw-mul\libc.a(lib_a-wsetup.o)
                0x00807c1c                __swsetup_r
 .text          0x00807d58      0x1b4 c:/altera/13.0/nios2eds/bin/gnu/h-i686-mingw32/bin/../lib/gcc/nios2-elf/4.1.2/../../../../nios2-elf/lib/mno-hw-mul\libc.a(lib_a-__call_atexit.o)
                0x00807d5c                __call_exitprocs
 .text          0x00807f0c     0x17f8 c:/altera/13.0/nios2eds/bin/gnu/h-i686-mingw32/bin/../lib/gcc/nios2-elf/4.1.2/../../../../nios2-elf/lib/mno-hw-mul\libc.a(lib_a-dtoa.o)
                0x00808150                _dtoa_r
 .text          0x00809704      0x230 c:/altera/13.0/nios2eds/bin/gnu/h-i686-mingw32/bin/../lib/gcc/nios2-elf/4.1.2/../../../../nios2-elf/lib/mno-hw-mul\libc.a(lib_a-fflush.o)
                0x00809704                _fflush_r
                0x00809900                fflush
 .text          0x00809934      0x2f4 c:/altera/13.0/nios2eds/bin/gnu/h-i686-mingw32/bin/../lib/gcc/nios2-elf/4.1.2/../../../../nios2-elf/lib/mno-hw-mul\libc.a(lib_a-findfp.o)
                0x0080998c                __sfp_lock_acquire
                0x00809990                __sfp_lock_release
                0x00809994                __sinit_lock_acquire
                0x00809998                __sinit_lock_release
                0x0080999c                __sinit
                0x00809a50                __fp_unlock_all
                0x00809a68                __fp_lock_all
                0x00809a80                _cleanup_r
                0x00809a8c                _cleanup
                0x00809a9c                __sfmoreglue
                0x00809b38                __sfp
 .text          0x00809c28       0xbc c:/altera/13.0/nios2eds/bin/gnu/h-i686-mingw32/bin/../lib/gcc/nios2-elf/4.1.2/../../../../nios2-elf/lib/mno-hw-mul\libc.a(lib_a-fputc.o)
                0x00809c28                fputc
                0x00809c8c                _fputc_r
 .text          0x00809ce4       0x90 c:/altera/13.0/nios2eds/bin/gnu/h-i686-mingw32/bin/../lib/gcc/nios2-elf/4.1.2/../../../../nios2-elf/lib/mno-hw-mul\libc.a(lib_a-fputs.o)
                0x00809ce4                _fputs_r
                0x00809d58                fputs
 .text          0x00809d74      0x440 c:/altera/13.0/nios2eds/bin/gnu/h-i686-mingw32/bin/../lib/gcc/nios2-elf/4.1.2/../../../../nios2-elf/lib/mno-hw-mul\libc.a(lib_a-freer.o)
                0x00809d74                _malloc_trim_r
                0x00809ea0                _free_r
 .text          0x0080a1b4      0x49c c:/altera/13.0/nios2eds/bin/gnu/h-i686-mingw32/bin/../lib/gcc/nios2-elf/4.1.2/../../../../nios2-elf/lib/mno-hw-mul\libc.a(lib_a-fvwrite.o)
                0x0080a1b4                __sfvwrite_r
 .text          0x0080a650      0x180 c:/altera/13.0/nios2eds/bin/gnu/h-i686-mingw32/bin/../lib/gcc/nios2-elf/4.1.2/../../../../nios2-elf/lib/mno-hw-mul\libc.a(lib_a-fwalk.o)
                0x0080a650                _fwalk_reent
                0x0080a718                _fwalk
 .text          0x0080a7d0       0xc4 c:/altera/13.0/nios2eds/bin/gnu/h-i686-mingw32/bin/../lib/gcc/nios2-elf/4.1.2/../../../../nios2-elf/lib/mno-hw-mul\libc.a(lib_a-locale.o)
                0x0080a7d0                __locale_charset
                0x0080a7d8                _localeconv_r
                0x0080a7e4                localeconv
                0x0080a7f4                _setlocale_r
                0x0080a878                setlocale
 .text          0x0080a894      0x194 c:/altera/13.0/nios2eds/bin/gnu/h-i686-mingw32/bin/../lib/gcc/nios2-elf/4.1.2/../../../../nios2-elf/lib/mno-hw-mul\libc.a(lib_a-makebuf.o)
                0x0080a894                __smakebuf_r
 .text          0x0080aa28      0x740 c:/altera/13.0/nios2eds/bin/gnu/h-i686-mingw32/bin/../lib/gcc/nios2-elf/4.1.2/../../../../nios2-elf/lib/mno-hw-mul\libc.a(lib_a-mallocr.o)
                0x0080aa28                _malloc_r
 .text          0x0080b168       0xe4 c:/altera/13.0/nios2eds/bin/gnu/h-i686-mingw32/bin/../lib/gcc/nios2-elf/4.1.2/../../../../nios2-elf/lib/mno-hw-mul\libc.a(lib_a-memchr.o)
                0x0080b168                memchr
 .text          0x0080b24c     0x108c c:/altera/13.0/nios2eds/bin/gnu/h-i686-mingw32/bin/../lib/gcc/nios2-elf/4.1.2/../../../../nios2-elf/lib/mno-hw-mul\libc.a(lib_a-mprec.o)
                0x0080b24c                _Bfree
                0x0080b274                __hi0bits
                0x0080b2e4                __lo0bits
                0x0080b3a8                __mcmp
                0x0080b408                __ulp
                0x0080b488                __b2d
                0x0080b5a8                __ratio
                0x0080b658                _mprec_log10
                0x0080b6ec                __copybits
                0x0080b744                __any_on
                0x0080b7cc                _Balloc
                0x0080b888                __d2b
                0x0080ba04                __mdiff
                0x0080bb90                __lshift
                0x0080bcdc                __multiply
                0x0080bf30                __i2b
                0x0080bf6c                __multadd
                0x0080c098                __pow5mult
                0x0080c1b8                __s2b
 .text          0x0080c2d8      0x5f4 c:/altera/13.0/nios2eds/bin/gnu/h-i686-mingw32/bin/../lib/gcc/nios2-elf/4.1.2/../../../../nios2-elf/lib/mno-hw-mul\libc.a(lib_a-reallocr.o)
                0x0080c2d8                _realloc_r
 .text          0x0080c8cc      0x1e0 c:/altera/13.0/nios2eds/bin/gnu/h-i686-mingw32/bin/../lib/gcc/nios2-elf/4.1.2/../../../../nios2-elf/lib/mno-hw-mul\libc.a(lib_a-refill.o)
                0x0080c8cc                __srefill_r
 .text          0x0080caac       0x40 c:/altera/13.0/nios2eds/bin/gnu/h-i686-mingw32/bin/../lib/gcc/nios2-elf/4.1.2/../../../../nios2-elf/lib/mno-hw-mul\libc.a(lib_a-s_isinfd.o)
                0x0080caac                __isinfd
 .text          0x0080caec       0x30 c:/altera/13.0/nios2eds/bin/gnu/h-i686-mingw32/bin/../lib/gcc/nios2-elf/4.1.2/../../../../nios2-elf/lib/mno-hw-mul\libc.a(lib_a-s_isnand.o)
                0x0080caec                __isnand
 .text          0x0080cb1c       0x70 c:/altera/13.0/nios2eds/bin/gnu/h-i686-mingw32/bin/../lib/gcc/nios2-elf/4.1.2/../../../../nios2-elf/lib/mno-hw-mul\libc.a(lib_a-sbrkr.o)
                0x0080cb1c                _sbrk_r
 .text          0x0080cb8c      0x14c c:/altera/13.0/nios2eds/bin/gnu/h-i686-mingw32/bin/../lib/gcc/nios2-elf/4.1.2/../../../../nios2-elf/lib/mno-hw-mul\libc.a(lib_a-stdio.o)
                0x0080cb8c                __sclose
                0x0080cb94                __sseek
                0x0080cbfc                __swrite
                0x0080cc78                __sread
 .text          0x0080ccd8       0xbc c:/altera/13.0/nios2eds/bin/gnu/h-i686-mingw32/bin/../lib/gcc/nios2-elf/4.1.2/../../../../nios2-elf/lib/mno-hw-mul\libc.a(lib_a-strcmp.o)
                0x0080ccd8                strcmp
 .text          0x0080cd94       0x78 c:/altera/13.0/nios2eds/bin/gnu/h-i686-mingw32/bin/../lib/gcc/nios2-elf/4.1.2/../../../../nios2-elf/lib/mno-hw-mul\libc.a(lib_a-writer.o)
                0x0080cd94                _write_r
 .text          0x0080ce0c       0xc8 c:/altera/13.0/nios2eds/bin/gnu/h-i686-mingw32/bin/../lib/gcc/nios2-elf/4.1.2/../../../../nios2-elf/lib/mno-hw-mul\libc.a(lib_a-callocr.o)
                0x0080ce0c                _calloc_r
 .text          0x0080ced4       0x70 c:/altera/13.0/nios2eds/bin/gnu/h-i686-mingw32/bin/../lib/gcc/nios2-elf/4.1.2/../../../../nios2-elf/lib/mno-hw-mul\libc.a(lib_a-closer.o)
                0x0080ced4                _close_r
 .text          0x0080cf44      0x124 c:/altera/13.0/nios2eds/bin/gnu/h-i686-mingw32/bin/../lib/gcc/nios2-elf/4.1.2/../../../../nios2-elf/lib/mno-hw-mul\libc.a(lib_a-fclose.o)
                0x0080cf44                _fclose_r
                0x0080d054                fclose
 .text          0x0080d068       0x74 c:/altera/13.0/nios2eds/bin/gnu/h-i686-mingw32/bin/../lib/gcc/nios2-elf/4.1.2/../../../../nios2-elf/lib/mno-hw-mul\libc.a(lib_a-fstatr.o)
                0x0080d068                _fstat_r
 .text          0x0080d0dc        0x0 c:/altera/13.0/nios2eds/bin/gnu/h-i686-mingw32/bin/../lib/gcc/nios2-elf/4.1.2/../../../../nios2-elf/lib/mno-hw-mul\libc.a(lib_a-int_errno.o)
 .text          0x0080d0dc       0x70 c:/altera/13.0/nios2eds/bin/gnu/h-i686-mingw32/bin/../lib/gcc/nios2-elf/4.1.2/../../../../nios2-elf/lib/mno-hw-mul\libc.a(lib_a-isattyr.o)
                0x0080d0dc                _isatty_r
 .text          0x0080d14c       0x78 c:/altera/13.0/nios2eds/bin/gnu/h-i686-mingw32/bin/../lib/gcc/nios2-elf/4.1.2/../../../../nios2-elf/lib/mno-hw-mul\libc.a(lib_a-lseekr.o)
                0x0080d14c                _lseek_r
 .text          0x0080d1c4       0x78 c:/altera/13.0/nios2eds/bin/gnu/h-i686-mingw32/bin/../lib/gcc/nios2-elf/4.1.2/../../../../nios2-elf/lib/mno-hw-mul\libc.a(lib_a-readr.o)
                0x0080d1c4                _read_r
 .text          0x0080d23c      0x66c c:/altera/13.0/nios2eds/bin/gnu/h-i686-mingw32/bin/../lib/gcc/nios2-elf/4.1.2/mno-hw-mul\libgcc.a(_udivdi3.o)
                0x0080d23c                __udivdi3
 .text          0x0080d8a8      0x660 c:/altera/13.0/nios2eds/bin/gnu/h-i686-mingw32/bin/../lib/gcc/nios2-elf/4.1.2/mno-hw-mul\libgcc.a(_umoddi3.o)
                0x0080d8a8                __umoddi3
 .text          0x0080df08      0x258 c:/altera/13.0/nios2eds/bin/gnu/h-i686-mingw32/bin/../lib/gcc/nios2-elf/4.1.2/mno-hw-mul\libgcc.a(_div_df.o)
                0x0080df08                __divdf3
 .text          0x0080e160       0x88 c:/altera/13.0/nios2eds/bin/gnu/h-i686-mingw32/bin/../lib/gcc/nios2-elf/4.1.2/mno-hw-mul\libgcc.a(_eq_df.o)
                0x0080e160                __eqdf2
 .text          0x0080e1e8       0x88 c:/altera/13.0/nios2eds/bin/gnu/h-i686-mingw32/bin/../lib/gcc/nios2-elf/4.1.2/mno-hw-mul\libgcc.a(_ne_df.o)
                0x0080e1e8                __nedf2
 .text          0x0080e270       0x88 c:/altera/13.0/nios2eds/bin/gnu/h-i686-mingw32/bin/../lib/gcc/nios2-elf/4.1.2/mno-hw-mul\libgcc.a(_gt_df.o)
                0x0080e270                __gtdf2
 .text          0x0080e2f8       0x88 c:/altera/13.0/nios2eds/bin/gnu/h-i686-mingw32/bin/../lib/gcc/nios2-elf/4.1.2/mno-hw-mul\libgcc.a(_lt_df.o)
                0x0080e2f8                __ltdf2
 .text          0x0080e380       0xf8 c:/altera/13.0/nios2eds/bin/gnu/h-i686-mingw32/bin/../lib/gcc/nios2-elf/4.1.2/mno-hw-mul\libgcc.a(_si_to_df.o)
                0x0080e380                __floatsidf
 .text          0x0080e478      0x14c c:/altera/13.0/nios2eds/bin/gnu/h-i686-mingw32/bin/../lib/gcc/nios2-elf/4.1.2/mno-hw-mul\libgcc.a(lib2-divmod.o)
                0x0080e4f4                __divsi3
                0x0080e554                __modsi3
                0x0080e5b4                __udivsi3
                0x0080e5bc                __umodsi3
 .text          0x0080e5c4       0x6c ../cool_bsp/\libucosii_bsp.a(alt_exit.o)
                0x0080e604                _exit
 .text          0x0080e630       0xd0 ../cool_bsp/\libucosii_bsp.a(alt_flash_dev.o)
                0x0080e630                alt_flash_open_dev
                0x0080e6ac                alt_flash_close_dev
 .text          0x0080e700      0x138 ../cool_bsp/\libucosii_bsp.a(alt_fstat.o)
                0x0080e700                fstat
 .text          0x0080e838      0x1c0 ../cool_bsp/\libucosii_bsp.a(alt_irq_register.o)
                0x0080e838                alt_irq_register
 .text          0x0080e9f8        0x0 ../cool_bsp/\libucosii_bsp.a(alt_irq_vars.o)
 .text          0x0080e9f8      0x124 ../cool_bsp/\libucosii_bsp.a(alt_isatty.o)
                0x0080e9f8                isatty
 .text          0x0080eb1c      0x154 ../cool_bsp/\libucosii_bsp.a(alt_lseek.o)
                0x0080eb1c                lseek
 .text          0x0080ec70       0xc8 ../cool_bsp/\libucosii_bsp.a(alt_main.o)
                0x0080ec70                alt_main
 .text          0x0080ed38       0xbc ../cool_bsp/\libucosii_bsp.a(alt_sbrk.o)
                0x0080ed38                sbrk
 .text          0x0080edf4      0x120 ../cool_bsp/\libucosii_bsp.a(alt_usleep.o)
                0x0080edf4                usleep
 .text          0x0080ef14      0x108 ../cool_bsp/\libucosii_bsp.a(alt_env_lock.o)
                0x0080ef14                __env_lock
                0x0080efc0                __env_unlock
 .text          0x0080f01c      0x1d8 ../cool_bsp/\libucosii_bsp.a(alt_malloc_lock.o)
                0x0080f01c                __malloc_lock
                0x0080f124                __malloc_unlock
 .text          0x0080f1f4     0x2128 ../cool_bsp/\libucosii_bsp.a(os_core.o)
                0x0080f1f4                OSEventNameGet
                0x0080f324                OSEventNameSet
                0x0080f468                OSEventPendMulti
                0x0080fb1c                OSInit
                0x0080fb70                OSIntEnter
                0x0080fbec                OSIntExit
                0x0080fcec                OSSchedLock
                0x0080fd78                OSSchedUnlock
                0x0080fe5c                OSStart
                0x0080fecc                OSStatInit
                0x0080ff78                OSTimeTick
                0x008101b8                OSVersion
                0x008101d8                OS_Dummy
                0x008101f4                OS_EventTaskRdy
                0x00810388                OS_EventTaskWait
                0x00810498                OS_EventTaskWaitMulti
                0x008105ec                OS_EventTaskRemove
                0x008106a4                OS_EventTaskRemoveMulti
                0x008107a8                OS_EventWaitListInit
                0x00810b74                OS_MemClr
                0x00810bc8                OS_MemCopy
                0x00810c34                OS_Sched
                0x00810d78                OS_StrCopy
                0x00810df8                OS_StrLen
                0x00810e50                OS_TaskIdle
                0x00810eac                OS_TaskStat
                0x00810f74                OS_TaskStatStkChk
                0x0081103c                OS_TCBInit
 .text          0x0081131c      0x18c ../cool_bsp/\libucosii_bsp.a(os_dbg.o)
                0x0081131c                OSDebugInit
 .text          0x008114a8     0x193c ../cool_bsp/\libucosii_bsp.a(os_flag.o)
                0x008114a8                OSFlagAccept
                0x008117dc                OSFlagCreate
                0x00811918                OSFlagDel
                0x00811bc0                OSFlagNameGet
                0x00811d04                OSFlagNameSet
                0x00811e58                OSFlagPend
                0x0081249c                OSFlagPendGetFlagsRdy
                0x00812504                OSFlagPost
                0x008128ac                OSFlagQuery
                0x00812b44                OS_FlagInit
                0x00812d38                OS_FlagUnlink
 .text          0x00812de4      0x80c ../cool_bsp/\libucosii_bsp.a(os_mem.o)
                0x00812de4                OSMemCreate
                0x00813000                OSMemGet
                0x00813104                OSMemNameGet
                0x00813210                OSMemNameSet
                0x00813330                OSMemPut
                0x00813420                OSMemQuery
                0x0081351c                OS_MemInit
 .text          0x008135f0     0x1334 ../cool_bsp/\libucosii_bsp.a(os_q.o)
                0x008135f0                OSQAccept
                0x00813744                OSQCreate
                0x00813958                OSQDel
                0x00813c58                OSQFlush
                0x00813d20                OSQPend
                0x00814040                OSQPendAbort
                0x008141bc                OSQPost
                0x0081433c                OSQPostFront
                0x008144c4                OSQPostOpt
                0x008146f8                OSQQuery
                0x00814878                OS_QInit
 .text          0x00814924      0xbc8 ../cool_bsp/\libucosii_bsp.a(os_sem.o)
                0x00814924                OSSemAccept
                0x008149e4                OSSemCreate
                0x00814af8                OSSemDel
                0x00814d98                OSSemPend
                0x00815014                OSSemPendAbort
                0x00815190                OSSemPost
                0x008152b8                OSSemQuery
                0x008153e8                OSSemSet
 .text          0x008154ec     0x1a40 ../cool_bsp/\libucosii_bsp.a(os_task.o)
                0x008154ec                OSTaskChangePrio
                0x00815a60                OSTaskCreate
                0x00815c34                OSTaskCreateExt
                0x00815e34                OSTaskDel
                0x00816240                OSTaskDelReq
                0x008163b0                OSTaskNameGet
                0x00816568                OSTaskNameSet
                0x0081672c                OSTaskResume
                0x00816944                OSTaskStkChk
                0x00816b40                OSTaskSuspend
                0x00816d6c                OSTaskQuery
                0x00816eb0                OS_TaskStkClr
 .text          0x00816f2c      0x67c ../cool_bsp/\libucosii_bsp.a(os_time.o)
                0x00816f2c                OSTimeDly
                0x00817078                OSTimeDlyHMSM
                0x008172d0                OSTimeDlyResume
                0x008174e0                OSTimeGet
                0x00817544                OSTimeSet
 .text          0x008175a8       0xe0 ../cool_bsp/\libucosii_bsp.a(alt_sys_init.o)
                0x008175a8                alt_irq_init
                0x008175dc                alt_sys_init
 .text          0x00817688      0x8c8 ../cool_bsp/\libucosii_bsp.a(altera_avalon_cfi_flash.o)
                0x00817688                alt_flash_cfi_init
                0x0081775c                alt_flash_cfi_write
                0x00817a1c                alt_flash_cfi_get_info
                0x00817aac                alt_flash_cfi_read
                0x00817b14                alt_write_value_to_flash
                0x00817c78                alt_flash_program_block
 .text          0x00817f50     0x14b4 ../cool_bsp/\libucosii_bsp.a(altera_avalon_cfi_flash_table.o)
                0x00817f50                alt_read_query_entry_8bit
                0x00817f90                alt_read_query_entry_16bit
                0x00817fd4                alt_read_query_entry_32bit
                0x0081801c                alt_write_flash_command_8bit_device_8bit_mode
                0x00818058                alt_write_flash_command_16bit_device_8bit_mode
                0x008180d4                alt_write_flash_command_32bit_device_8bit_mode
                0x0081811c                alt_write_flash_command_16bit_device_16bit_mode
                0x00818160                alt_write_flash_command_32bit_device_16bit_mode
                0x008181a8                alt_write_flash_command_32bit_device_32bit_mode
                0x008181f0                alt_write_native_8bit
                0x00818224                alt_write_native_16bit
                0x00818258                alt_write_native_32bit
                0x00818288                alt_set_flash_width_func
                0x00818468                alt_set_flash_algorithm_func
                0x00818590                alt_read_cfi_table
                0x00818b7c                alt_read_cfi_width
                0x00819328                alt_check_primary_table
 .text          0x00819404      0x9e4 ../cool_bsp/\libucosii_bsp.a(altera_avalon_epcs_flash_controller.o)
                0x00819404                alt_epcs_flash_init
                0x00819820                alt_epcs_flash_write
                0x00819aa0                alt_epcs_flash_get_info
                0x00819b30                alt_epcs_flash_erase_block
                0x00819c34                alt_epcs_flash_write_block
                0x00819d50                alt_epcs_flash_read
 .text          0x00819de8      0x148 ../cool_bsp/\libucosii_bsp.a(altera_avalon_jtag_uart_fd.o)
                0x00819de8                altera_avalon_jtag_uart_read_fd
                0x00819e40                altera_avalon_jtag_uart_write_fd
                0x00819e98                altera_avalon_jtag_uart_close_fd
                0x00819ee0                altera_avalon_jtag_uart_ioctl_fd
 .text          0x00819f30      0x584 ../cool_bsp/\libucosii_bsp.a(altera_avalon_jtag_uart_init.o)
                0x00819f30                altera_avalon_jtag_uart_init
                0x0081a440                altera_avalon_jtag_uart_close
 .text          0x0081a4b4       0xf4 ../cool_bsp/\libucosii_bsp.a(altera_avalon_jtag_uart_ioctl.o)
                0x0081a4b4                altera_avalon_jtag_uart_ioctl
 .text          0x0081a5a8      0x2c0 ../cool_bsp/\libucosii_bsp.a(altera_avalon_jtag_uart_read.o)
                0x0081a5a8                altera_avalon_jtag_uart_read
 .text          0x0081a868      0x2dc ../cool_bsp/\libucosii_bsp.a(altera_avalon_jtag_uart_write.o)
                0x0081a868                altera_avalon_jtag_uart_write
 .text          0x0081ab44      0x100 ../cool_bsp/\libucosii_bsp.a(altera_avalon_timer_sc.o)
                0x0081abb4                alt_avalon_timer_sc_init
 .text          0x0081ac44      0x6d4 ../cool_bsp/\libucosii_bsp.a(epcs_commands.o)
                0x0081ac44                epcs_read_status_register
                0x0081aca4                epcs_sector_erase
                0x0081ae0c                epcs_read_buffer
                0x0081af58                epcs_write_enable
                0x0081afa8                epcs_write_status_register
                0x0081b00c                epcs_write_buffer
                0x0081b17c                epcs_read_electronic_signature
                0x0081b1e8                epcs_read_device_id
                0x0081b268                epcs_enter_4_bytes_mode
                0x0081b2c0                epcs_exit_4_bytes_mode
 .text          0x0081b318       0x54 ../cool_bsp/\libucosii_bsp.a(alt_iniche_close.o)
                0x0081b318                close
 .text          0x0081b36c      0x144 ../cool_bsp/\libucosii_bsp.a(alt_iniche_dev.o)
                0x0081b36c                iniche_devices_init
 .text          0x0081b4b0       0x78 ../cool_bsp/\libucosii_bsp.a(alt_iniche_read.o)
                0x0081b4b0                read
 .text          0x0081b528       0x70 ../cool_bsp/\libucosii_bsp.a(alt_iniche_write.o)
                0x0081b528                write
 .text          0x0081b598      0xedc ../cool_bsp/\libucosii_bsp.a(ipnet.o)
                0x0081b598                Netinit
                0x0081bbe4                fixup_subnet_mask
                0x0081bd44                netclose
                0x0081be2c                pktdemux
                0x0081c200                c_older
                0x0081c2d0                ip2mac
 .text          0x0081c474      0x4bc ../cool_bsp/\libucosii_bsp.a(ipstart.o)
                0x0081c474                ip_startup
                0x0081c764                exit_hook
                0x0081c7d0                ip_exit
                0x0081c8a0                if_netnumber
 .text          0x0081c930     0x10e8 ../cool_bsp/\libucosii_bsp.a(igmp_cmn.o)
                0x0081c930                igmp_init
                0x0081ca20                igmp_input
                0x0081cb18                igmp_fasttimo
                0x0081cd4c                igmp_send
                0x0081cff4                igmp_joingroup
                0x0081d260                igmp_leavegroup
                0x0081d2dc                igmp_validate
                0x0081d638                igmp_print_stats
 .text          0x0081da18      0xbd8 ../cool_bsp/\libucosii_bsp.a(bsdsock.o)
                0x0081da18                bsd_accept
                0x0081db50                bsd_getpeername
                0x0081dc7c                bsd_getsockname
                0x0081dda8                bsd_i_sockoptlen
                0x0081df60                bsd_getsockopt
                0x0081e080                bsd_ioctl
                0x0081e184                bsd_inet_ntoa
                0x0081e1b4                bsd_recvfrom
                0x0081e314                bsd_select
                0x0081e504                bsd_setsockopt
 .text          0x0081e5f0      0x118 ../cool_bsp/\libucosii_bsp.a(cksum.o)
                0x0081e5f0                ccksum
                0x0081e6a0                cksum
 .text          0x0081e708      0xa9c ../cool_bsp/\libucosii_bsp.a(in_utils.o)
                0x0081e708                do_trap
                0x0081e734                nextarg
                0x0081e7b0                hexdump
                0x0081e8f8                print_ipad
                0x0081e96c                print_uptime
                0x0081ea98                panic
                0x0081eadc                print_eth
                0x0081ec40                uslash
                0x0081ecc0                ns_printf
                0x0081ee44                std_out
                0x0081ee88                con_page
                0x0081ef78                parse_args
 .text          0x0081f1a4      0x1d0 ../cool_bsp/\libucosii_bsp.a(netmain.o)
                0x0081f1a4                netmain
                0x0081f2a0                tk_netmain
                0x0081f328                tk_nettick
 .text          0x0081f374      0x81c ../cool_bsp/\libucosii_bsp.a(parseip.o)
                0x0081f374                parse_ipad
                0x0081f690                inet_addr
                0x0081f6f8                hextoa
                0x0081f768                inet_pton
                0x0081f814                inet_ntop
                0x0081f8a0                print46_addr
                0x0081f900                inet46_addr
                0x0081f9c4                inet_setport
                0x0081fa38                convert_ip
 .text          0x0081fb90      0x62c ../cool_bsp/\libucosii_bsp.a(tk_crnos.o)
                0x0081fb90                TK_OSTimeDly
                0x0081fbbc                TK_OSTaskResume
                0x0081fc2c                tcp_sleep
                0x0081fdf4                tcp_wakeup
                0x0081ff14                TK_OSTaskQuery
                0x0081ff88                tk_yield
                0x0081ffb4                tk_stats
 .text          0x008201bc     0x3598 ../cool_bsp/\libucosii_bsp.a(dhcpclnt.o)
                0x008201bc                dhc_get_srv_ipaddr
                0x0082024c                dhc_init
                0x00820318                dhc_set_callback
                0x00820370                dhc_upcall
                0x00820c30                dhc_buildheader
                0x00820e60                dhc_discover
                0x008213b0                dhc_rx_offer
                0x008214cc                dhc_request
                0x008220c0                dhc_setip
                0x00822360                dhc_resetip
                0x00822444                dhc_decline
                0x00822628                dhc_extract_opts
                0x00822910                dhc_second
                0x00823258                dhc_halt
                0x008232f0                dhc_reclaim
                0x008234f0                dhc_state_init
                0x00823550                dhc_alldone
                0x008235f8                dhc_ifacedone
                0x00823684                dhc_set_state
 .text          0x00823754       0xcc ../cool_bsp/\libucosii_bsp.a(dhcputil.o)
                0x00823754                find_opt
 .text          0x00823820      0x79c ../cool_bsp/\libucosii_bsp.a(pktalloc.o)
                0x00823820                pk_init
                0x00823ab0                pk_alloc
                0x00823b8c                pk_validate
                0x00823e44                pk_free
                0x00823ef0                pk_get_max_intrsafe_buf_len
                0x00823f10                dump_buf_estats
 .text          0x00823fbc      0x288 ../cool_bsp/\libucosii_bsp.a(q.o)
                0x00823fbc                getq
                0x00824084                putq
                0x00824134                qdel
 .text          0x00824244      0x31c ../cool_bsp/\libucosii_bsp.a(udp_open.o)
                0x00824244                udp_open
                0x0082447c                udp_close
 .text          0x00824560      0x194 ../cool_bsp/\libucosii_bsp.a(asm_cksum.o)
                0x00824560                asm_cksum
 .text          0x008246f4      0x2e4 ../cool_bsp/\libucosii_bsp.a(brdutils.o)
                0x008246f4                dtrap
                0x00824724                kbhit
                0x008247d0                getch
                0x00824830                clock_init
                0x0082486c                clock_c
                0x00824888                cticks_hook
                0x00824938                irq_Mask
                0x00824994                irq_Unmask
 .text          0x008249d8      0x488 ../cool_bsp/\libucosii_bsp.a(osportco.o)
                0x008249d8                LOCK_NET_RESOURCE
                0x00824a98                UNLOCK_NET_RESOURCE
                0x00824b20                TK_NEWTASK
                0x00824d34                wait_app_sem
                0x00824de8                post_app_sem
 .text          0x00824e60      0x58c ../cool_bsp/\libucosii_bsp.a(targnios.o)
                0x00824e60                alt_iniche_init
                0x008250a0                pre_task_setup
                0x00825114                post_task_setup
                0x00825134                prep_armintcp
                0x0082516c                calloc2
                0x008251a0                npalloc
                0x00825294                npfree
                0x0082534c                ncpalloc
                0x008253a0                ncpfree
 .text          0x008253ec     0x19b8 ../cool_bsp/\libucosii_bsp.a(nptcp.o)
                0x008253ec                pffindtype
                0x0082548c                pffindproto
                0x0082555c                m_getnbuf
                0x00825704                m_free
                0x00825838                m_freem
                0x0082587c                m_copy
                0x00825ba0                m_adj
                0x00825d70                mbuf_len
                0x00825dc8                dtom
                0x00825e70                remque
                0x00825ee0                insque
                0x00825f5c                nptcp_init
                0x00826080                tcp_rcv
                0x0082626c                ip_output
                0x00826864                in_broadcast
                0x008268a4                np_stripoptions
                0x0082698c                so_icmpdu
                0x00826ce4                tcp_tick
 .text          0x00826da4      0xa2c ../cool_bsp/\libucosii_bsp.a(rawsock.o)
                0x00826da4                rawip_lookup
                0x00826e14                rawip_soinput
                0x00826fe8                rawip_usrreq
 .text          0x008277d0     0x17fc ../cool_bsp/\libucosii_bsp.a(sockcall.o)
                0x008277d0                DOMAIN_CHECK
                0x0082781c                t_socket
                0x008278ac                t_bind
                0x00827a28                t_listen
                0x00827b0c                t_accept
                0x00827da4                t_connect
                0x0082804c                t_getpeername
                0x00828090                t_getsockname
                0x008282d0                t_setsockopt
                0x008284ac                t_getsockopt
                0x00828650                t_recv
                0x00828740                t_recvfrom
                0x00828890                t_sendto
                0x00828abc                t_send
                0x00828ce4                t_shutdown
                0x00828dc8                t_socketclose
                0x00828f30                t_errno
 .text          0x00828fcc     0x23ec ../cool_bsp/\libucosii_bsp.a(socket.o)
                0x00828fcc                socreate
                0x00829198                sobind
                0x008291f4                solisten
                0x008292e4                sofree
                0x00829414                soclose
                0x00829780                soabort
                0x008297d0                soaccept
                0x0082986c                soconnect
                0x00829940                sodisconnect
                0x008299e0                sosend
                0x00829fe8                soreceive
                0x0082a7cc                soshutdown
                0x0082a874                sorflush
                0x0082a974                sosetopt
                0x0082ae34                sogetopt
                0x0082b374                sohasoutofband
 .text          0x0082b3b8     0x12f8 ../cool_bsp/\libucosii_bsp.a(socket2.o)
                0x0082b3b8                soisconnecting
                0x0082b424                soisconnected
                0x0082b520                soisdisconnecting
                0x0082b5ac                soisdisconnected
                0x0082b668                sonewconn
                0x0082b884                soqinsque
                0x0082b930                soqremque
                0x0082ba50                socantsendmore
                0x0082baa0                socantrcvmore
                0x0082baf0                sbselqueue
                0x0082bb28                sbwait
                0x0082bb90                sbwakeup
                0x0082bc2c                soreserve
                0x0082bcac                sbreserve
                0x0082bd0c                sbrelease
                0x0082bd54                sbappend
                0x0082bdfc                sbappendrecord
                0x0082bedc                sbappendaddr
                0x0082c0c4                sbcompress
                0x0082c2ac                sbflush
                0x0082c33c                sbdrop
                0x0082c50c                sbdropend
                0x0082c61c                sbdroprecord
 .text          0x0082c6b0      0x91c ../cool_bsp/\libucosii_bsp.a(soselect.o)
                0x0082c6b0                t_select
                0x0082c8d0                sock_selscan
                0x0082ca30                sock_select
                0x0082cc44                in_pcbnotify
                0x0082cd10                tcp_notify
                0x0082cd78                ifd_clr
                0x0082ce68                ifd_set
                0x0082cedc                ifd_isset
                0x0082cf5c                ifd_get
 .text          0x0082cfcc     0x3028 ../cool_bsp/\libucosii_bsp.a(tcp_in.o)
                0x0082cfcc                tcp_reass
                0x0082d3d4                tcp_input
                0x0082f930                tcp_dooptions
                0x0082fac0                tcp_pulloutofband
                0x0082fbec                tcp_xmit_timer
                0x0082fe90                ip4_tcpmss
                0x0082fed8                tcp_mss
 .text          0x0082fff4     0x1370 ../cool_bsp/\libucosii_bsp.a(tcp_out.o)
                0x0082fff4                tcp_output
                0x00831180                tcp_setpersist
 .text          0x00831364      0x9e8 ../cool_bsp/\libucosii_bsp.a(tcp_subr.o)
                0x00831364                tcp_init
                0x008313bc                tcp_template
                0x008314d4                tcp_respond
                0x0083195c                tcp_newtcpcb
                0x00831a74                tcp_drop
                0x00831b20                tcp_close
                0x00831c08                tcp_quench
                0x00831c54                tcp_putseq
                0x00831cd4                tcp_getseq
 .text          0x00831d4c      0x798 ../cool_bsp/\libucosii_bsp.a(tcp_timr.o)
                0x00831d4c                tcp_slowtimo
                0x00831fec                tcp_canceltimers
                0x00832048                tcp_timers
 .text          0x008324e4      0x9ec ../cool_bsp/\libucosii_bsp.a(tcp_usr.o)
                0x008324e4                tcp_usrreq
                0x00832be8                tcp_attach
                0x00832d1c                tcp_disconnect
                0x00832df0                tcp_usrclosed
 .text          0x00832ed0       0x4c ../cool_bsp/\libucosii_bsp.a(tcpport.o)
                0x00832ed0                tcpinit
 .text          0x00832f1c      0xd20 ../cool_bsp/\libucosii_bsp.a(udpsock.o)
                0x00832f1c                udp_lookup
                0x00832f8c                udp_soinput
                0x00833144                udp_usrreq
                0x008333c8                udp4_sockbind
                0x00833704                udp4_socksend
                0x00833ae0                udp4_sockaddr
 .text          0x00833c3c      0x154 ../cool_bsp/\libucosii_bsp.a(alt_alarm_start.o)
                0x00833c3c                alt_alarm_start
 .text          0x00833d90      0x15c ../cool_bsp/\libucosii_bsp.a(alt_busy_sleep.o)
                0x00833d90                alt_busy_sleep
 .text          0x00833eec      0x160 ../cool_bsp/\libucosii_bsp.a(alt_close.o)
                0x00833eec                alt_close
 .text          0x0083404c       0x24 ../cool_bsp/\libucosii_bsp.a(alt_dcache_flush.o)
                0x0083404c                alt_dcache_flush
 .text          0x00834070       0x2c ../cool_bsp/\libucosii_bsp.a(alt_dev.o)
 .text          0x0083409c      0x114 ../cool_bsp/\libucosii_bsp.a(alt_dev_llist_insert.o)
                0x0083409c                alt_dev_llist_insert
 .text          0x008341b0       0x64 ../cool_bsp/\libucosii_bsp.a(alt_do_ctors.o)
                0x008341b0                _do_ctors
 .text          0x00834214       0x64 ../cool_bsp/\libucosii_bsp.a(alt_do_dtors.o)
                0x00834214                _do_dtors
 .text          0x00834278        0x0 ../cool_bsp/\libucosii_bsp.a(alt_errno.o)
 .text          0x00834278       0x94 ../cool_bsp/\libucosii_bsp.a(alt_find_dev.o)
                0x00834278                alt_find_dev
 .text          0x0083430c      0x1d4 ../cool_bsp/\libucosii_bsp.a(alt_iic.o)
                0x0083430c                alt_ic_isr_register
                0x0083435c                alt_ic_irq_enable
                0x008343f8                alt_ic_irq_disable
                0x00834498                alt_ic_irq_enabled
 .text          0x008344e0       0xf8 ../cool_bsp/\libucosii_bsp.a(alt_iic_isr_register.o)
                0x008344e0                alt_iic_isr_register
 .text          0x008345d8      0x150 ../cool_bsp/\libucosii_bsp.a(alt_io_redirect.o)
                0x008346b0                alt_io_redirect
 .text          0x00834728        0x0 ../cool_bsp/\libucosii_bsp.a(alt_irq_entry.o)
 .text          0x00834728        0x0 ../cool_bsp/\libucosii_bsp.a(alt_irq_handler.o)
 .text          0x00834728      0x2e4 ../cool_bsp/\libucosii_bsp.a(alt_open.o)
                0x00834820                open
 .text          0x00834a0c      0x184 ../cool_bsp/\libucosii_bsp.a(alt_read.o)
                0x00834a0c                alt_read
 .text          0x00834b90       0x78 ../cool_bsp/\libucosii_bsp.a(alt_release_fd.o)
                0x00834b90                alt_release_fd
 .text          0x00834c08       0x38 ../cool_bsp/\libucosii_bsp.a(alt_remap_cached.o)
                0x00834c08                alt_remap_cached
 .text          0x00834c40       0x40 ../cool_bsp/\libucosii_bsp.a(alt_remap_uncached.o)
                0x00834c40                alt_remap_uncached
 .text          0x00834c80      0x1a8 ../cool_bsp/\libucosii_bsp.a(alt_tick.o)
                0x00834c80                alt_alarm_stop
                0x00834d18                alt_tick
 .text          0x00834e28      0x184 ../cool_bsp/\libucosii_bsp.a(alt_write.o)
                0x00834e28                alt_write
 .text          0x00834fac       0x20 ../cool_bsp/\libucosii_bsp.a(altera_nios2_qsys_irq.o)
                0x00834fac                altera_nios2_qsys_irq_init
 .text          0x00834fcc       0xd0 ../cool_bsp/\libucosii_bsp.a(os_cpu_a.o)
                0x00834fcc                OSCtxSw
                0x00834fcc                OSIntCtxSw
                0x00835058                OSStartHighRdy
                0x00835078                OSStartTsk
 .text          0x0083509c      0x424 ../cool_bsp/\libucosii_bsp.a(os_cpu_c.o)
                0x0083509c                OSTaskStkInit
                0x008353ac                OSTaskCreateHook
                0x008353cc                OSTaskDelHook
                0x008353ec                OSTaskSwHook
                0x00835408                OSTaskStatHook
                0x00835424                OSTimeTickHook
                0x0083544c                OSInitHookBegin
                0x00835468                OSInitHookEnd
                0x00835484                OSTaskIdleHook
                0x008354a0                OSTCBInitHook
 .text          0x008354c0      0x464 ../cool_bsp/\libucosii_bsp.a(altera_avalon_cfi_flash_amd.o)
                0x008354c0                alt_program_amd
                0x00835528                alt_erase_block_amd
 .text          0x00835924      0x464 ../cool_bsp/\libucosii_bsp.a(altera_avalon_cfi_flash_intel.o)
                0x00835924                alt_program_intel
                0x008359a8                alt_erase_block_intel
 .text          0x00835d88      0x238 ../cool_bsp/\libucosii_bsp.a(altera_avalon_spi.o)
                0x00835d88                alt_avalon_spi_command
 .text          0x00835fc0      0x444 ../cool_bsp/\libucosii_bsp.a(allports.o)
                0x00835fc0                netmain_init
                0x008360bc                icmp_port_du
                0x00836144                station_state
                0x008362a8                sysuptime
                0x0083633c                packet_check
                0x00836388                mcastlist
                0x008363ac                prep_modules
 .text          0x00836404      0x608 ../cool_bsp/\libucosii_bsp.a(timeouts.o)
                0x00836404                inet_timer
                0x00836744                in_timerset
                0x00836954                in_timerkill
 .text          0x00836a0c       0xa4 ../cool_bsp/\libucosii_bsp.a(tk_misc.o)
                0x00836a0c                create_apptasks
                0x00836a30                task_stats
 .text          0x00836ab0       0xb0 ../cool_bsp/\libucosii_bsp.a(alt_iniche_fcntl.o)
                0x00836ab0                fcntl
 .text          0x00836b60     0x15b0 ../cool_bsp/\libucosii_bsp.a(et_arp.o)
                0x00836b60                etainit
                0x00836bb4                et_send
                0x00836d30                arp_free_pending
                0x00836db8                arp_send_pending
                0x00836e2c                send_arp
                0x008372c4                find_oldest_arp
                0x008374c0                make_arp_entry
                0x008375d4                arpReply
                0x00837868                arprcv
                0x00837ac8                send_via_arp
                0x00837c98                cb_arpent_tmo
                0x00837e44                grat_arp
 .text          0x00838110      0x298 ../cool_bsp/\libucosii_bsp.a(iface.o)
                0x00838110                if_getbynum
                0x00838194                isbcast
                0x00838274                reg_type
                0x00838310                if_killsocks
 .text          0x008383a8     0x22c8 ../cool_bsp/\libucosii_bsp.a(ip.o)
                0x008383a8                ip_init
                0x008384b8                ip_bldhead
                0x0083865c                ip_write_internal
                0x00838ddc                ip_write
                0x00839024                ip_write2
                0x008393d4                ip_raw_write
                0x008394ac                ip_fragment_lc
                0x00839934                ip_fragment
                0x00839f68                ip_mymach
                0x0083a014                ip_dump
                0x0083a2cc                iproute
                0x0083a538                ip_copypkt
 .text          0x0083a670     0x1e08 ../cool_bsp/\libucosii_bsp.a(ip_reasm.o)
                0x0083a670                ip_reasm_match_frag_with_ire
                0x0083a740                ip_reasm_determine_type_of_frag
                0x0083a82c                ip_reasm_check_mem_useage
                0x0083a8c4                ip_reasm_incr_mem_useage
                0x0083a96c                ip_reasm_decr_mem_useage
                0x0083aa0c                ip_reasm_process_first_fragment
                0x0083acec                ip_reassm
                0x0083ad8c                ip_reasm_compute_overlap
                0x0083b31c                ip_reasm_process_subsequent_fragments
                0x0083b8b0                ip_reasm_find_ire
                0x0083b914                ip_reasm_copy_queued_fragments_into_reassy_buffer
                0x0083bc70                ip_reasm_process_timer_tick
                0x0083bd90                ip_reasm_delete_ire
                0x0083bf58                ip_reasm_mark_compact_rfq
                0x0083c0a0                ipr_stats
                0x0083c424                ip_reasm_send_icmp_timex
 .text          0x0083c478      0xe3c ../cool_bsp/\libucosii_bsp.a(ipdemux.o)
                0x0083c478                ip_rcv
                0x0083c878                ip_rcv_phase2
                0x0083ce84                ip_demux
 .text          0x0083d2b4      0x2f0 ../cool_bsp/\libucosii_bsp.a(ipmc.o)
                0x0083d2b4                in_addmulti
                0x0083d41c                in_delmulti
                0x0083d534                lookup_mcast
 .text          0x0083d5a4       0xe4 ../cool_bsp/\libucosii_bsp.a(ipport.o)
                0x0083d5a4                prep_ifaces
                0x0083d638                netexit
                0x0083d660                evtmap_setup
 .text          0x0083d688      0x550 ../cool_bsp/\libucosii_bsp.a(ipraw.o)
                0x0083d688                ip_raw_open
                0x0083d778                ip_raw_close
                0x0083d838                ip_raw_input
                0x0083da70                ip_raw_alloc
                0x0083db3c                ip_raw_free
                0x0083db7c                ip_raw_maxalloc
 .text          0x0083dbd8      0x704 ../cool_bsp/\libucosii_bsp.a(iproute.o)
                0x0083dbd8                rt_lookup
                0x0083dd68                add_route
                0x0083e194                del_route
 .text          0x0083e2dc      0xe3c ../cool_bsp/\libucosii_bsp.a(udp.o)
                0x0083e2dc                udpdemux
                0x0083eb34                udp_send
                0x0083edec                udpswap
                0x0083ef1c                udp_socket
                0x0083efec                udp_alloc
                0x0083f0ac                udp_maxalloc
                0x0083f0d8                udp_free
 .text          0x0083f118      0x2e8 ../cool_bsp/\libucosii_bsp.a(igmp.o)
                0x0083f118                igmpv1_input
 .text          0x0083f400      0x7c0 ../cool_bsp/\libucosii_bsp.a(igmp2.o)
                0x0083f400                igmpv2_input
                0x0083f560                igmpv2_process_report
                0x0083f6ac                igmpv2_process_query
                0x0083f8f8                igmpv2_chk_set_timer
                0x0083fa50                igmpv2_chk4_rtr_alert_opt
 .text          0x0083fbc0      0x8fc ../cool_bsp/\libucosii_bsp.a(ipopt.o)
                0x0083fbc0                IPADDR_TO_NETP
                0x0083fd08                ip_setmoptions
                0x008402f8                ip_getmoptions
                0x00840438                ip_freemoptions
 .text          0x008404bc      0x6e8 ../cool_bsp/\libucosii_bsp.a(u_mctest.o)
                0x008404bc                u_mctest_init
                0x008404ec                u_mctest_run
 .text          0x00840ba4      0x3dc ../cool_bsp/\libucosii_bsp.a(dhcsetup.o)
                0x00840ba4                dhc_setup
                0x00840e7c                dhc_main_ipset
 .text          0x00840f80      0x41c ../cool_bsp/\libucosii_bsp.a(memdev.o)
                0x00840f80                init_memdev
                0x00840ff8                md_fopen
                0x00841020                md_fclose
                0x00841040                md_fread
                0x008411c0                md_fwrite
                0x00841250                md_fseek
                0x0084127c                md_ftell
                0x008412a0                md_fgetc
                0x00841378                md_unlink
 .text          0x0084139c      0x1cc ../cool_bsp/\libucosii_bsp.a(tcpcksum.o)
                0x0084139c                tcp_cksum
 .text          0x00841568      0x900 ../cool_bsp/\libucosii_bsp.a(in_pcb.o)
                0x00841568                in_pcballoc
                0x008415fc                in_pcbdetach
                0x00841650                in_pcbbind
                0x008418a4                in_pcbconnect
                0x00841ab4                in_pcbdisconnect
                0x00841b14                in_setsockaddr
                0x00841b90                in_setpeeraddr
                0x00841c0c                in_pcblookup
 .text          0x00841e68     0x1a74 ../cool_bsp/\libucosii_bsp.a(vfsfiles.o)
                0x00841e68                set_vfopen_error
                0x00841e90                get_vfopen_error
                0x00841eb0                vf_alloc_and_link_vop
                0x00841f2c                vf_alloc_buffer
                0x00842004                vf_free_buffer
                0x00842054                vfopen_locked
                0x008423bc                vfopen
                0x0084240c                vfclose_locked
                0x008425b4                vfclose
                0x008425f4                vfflush
                0x0084263c                vfgets
                0x00842720                vfeof
                0x00842778                vunlink_flag_open_files
                0x008427d4                vunlink
                0x008429f4                vfread
                0x00842ba0                vfwrite_locked
                0x00842f88                vfwrite
                0x00842fe8                vfseek
                0x00843164                vftell
                0x00843298                vgetc_locked
                0x008433b8                vgetc
                0x00843400                vfslookup_locked
                0x00843538                vfslookup
                0x00843580                strippath
                0x00843768                isvfile_locked
                0x008437cc                isvfile
                0x00843814                vferror
                0x00843880                vclearerr
 .text          0x008438dc       0x24 ../cool_bsp/\libucosii_bsp.a(vfsport.o)
                0x008438dc                prep_vfs
 .text          0x00843900        0x0 ../cool_bsp/\libucosii_bsp.a(alt_exception_entry.o)
 .text          0x00843900      0x1b8 ../cool_bsp/\libucosii_bsp.a(alt_fcntl.o)
                0x00843900                alt_fcntl
 .text          0x00843ab8      0x120 ../cool_bsp/\libucosii_bsp.a(alt_find_file.o)
                0x00843ab8                alt_find_file
 .text          0x00843bd8      0x104 ../cool_bsp/\libucosii_bsp.a(alt_get_fd.o)
                0x00843bd8                alt_get_fd
 .text          0x00843cdc     0x130c ../cool_bsp/\libucosii_bsp.a(icmp.o)
                0x00843cdc                icmprcv
                0x00844910                icmp_destun
                0x00844c60                icmp_timex
                0x00844f94                icmp_du
 .text          0x00844fe8       0x14 c:/altera/13.0/nios2eds/bin/gnu/h-i686-mingw32/bin/../lib/gcc/nios2-elf/4.1.2/../../../../nios2-elf/lib/mno-hw-mul\libc.a(lib_a-atexit.o)
                0x00844fe8                atexit
 .text          0x00844ffc       0x18 c:/altera/13.0/nios2eds/bin/gnu/h-i686-mingw32/bin/../lib/gcc/nios2-elf/4.1.2/../../../../nios2-elf/lib/mno-hw-mul\libc.a(lib_a-atoi.o)
                0x00844ffc                _atoi_r
                0x00845008                atoi
 .text          0x00845014       0x1c c:/altera/13.0/nios2eds/bin/gnu/h-i686-mingw32/bin/../lib/gcc/nios2-elf/4.1.2/../../../../nios2-elf/lib/mno-hw-mul\libc.a(lib_a-calloc.o)
                0x00845014                calloc
 .text          0x00845030       0x28 c:/altera/13.0/nios2eds/bin/gnu/h-i686-mingw32/bin/../lib/gcc/nios2-elf/4.1.2/../../../../nios2-elf/lib/mno-hw-mul\libc.a(lib_a-malloc.o)
                0x00845030                free
                0x00845044                malloc
 .text          0x00845058       0x74 c:/altera/13.0/nios2eds/bin/gnu/h-i686-mingw32/bin/../lib/gcc/nios2-elf/4.1.2/../../../../nios2-elf/lib/mno-hw-mul\libc.a(lib_a-memcmp.o)
                0x00845058                memcmp
 .text          0x008450cc       0xd4 c:/altera/13.0/nios2eds/bin/gnu/h-i686-mingw32/bin/../lib/gcc/nios2-elf/4.1.2/../../../../nios2-elf/lib/mno-hw-mul\libc.a(lib_a-sprintf.o)
                0x008450cc                sprintf
                0x00845140                _sprintf_r
 .text          0x008451a0       0x8c c:/altera/13.0/nios2eds/bin/gnu/h-i686-mingw32/bin/../lib/gcc/nios2-elf/4.1.2/../../../../nios2-elf/lib/mno-hw-mul\libc.a(lib_a-strcpy.o)
                0x008451a0                strcpy
 .text          0x0084522c       0xf0 c:/altera/13.0/nios2eds/bin/gnu/h-i686-mingw32/bin/../lib/gcc/nios2-elf/4.1.2/../../../../nios2-elf/lib/mno-hw-mul\libc.a(lib_a-strncmp.o)
                0x0084522c                strncmp
 .text          0x0084531c       0xbc c:/altera/13.0/nios2eds/bin/gnu/h-i686-mingw32/bin/../lib/gcc/nios2-elf/4.1.2/../../../../nios2-elf/lib/mno-hw-mul\libc.a(lib_a-strncpy.o)
                0x0084531c                strncpy
 .text          0x008453d8      0x274 c:/altera/13.0/nios2eds/bin/gnu/h-i686-mingw32/bin/../lib/gcc/nios2-elf/4.1.2/../../../../nios2-elf/lib/mno-hw-mul\libc.a(lib_a-strtol.o)
                0x008453d8                _strtol_r
                0x00845628                strtol
 .text          0x0084564c       0x34 c:/altera/13.0/nios2eds/bin/gnu/h-i686-mingw32/bin/../lib/gcc/nios2-elf/4.1.2/../../../../nios2-elf/lib/mno-hw-mul\libc.a(lib_a-vprintf.o)
                0x0084564c                _vprintf_r
                0x00845660                vprintf
 .text          0x00845680       0x74 c:/altera/13.0/nios2eds/bin/gnu/h-i686-mingw32/bin/../lib/gcc/nios2-elf/4.1.2/../../../../nios2-elf/lib/mno-hw-mul\libc.a(lib_a-vsprintf.o)
                0x00845680                _vsprintf_r
                0x008456d0                vsprintf
 .text          0x008456f4      0x134 c:/altera/13.0/nios2eds/bin/gnu/h-i686-mingw32/bin/../lib/gcc/nios2-elf/4.1.2/../../../../nios2-elf/lib/mno-hw-mul\libc.a(lib_a-__atexit.o)
                0x008456f4                __register_exitproc
 *(.gnu.warning.*)
 *(.fini)
                0x00845828                PROVIDE (__etext, ABSOLUTE (.))
                0x00845828                PROVIDE (_etext, ABSOLUTE (.))
                0x00845828                PROVIDE (etext, ABSOLUTE (.))
 *(.eh_frame_hdr)
                0x00845828                . = ALIGN (0x4)
                0x00845828                PROVIDE (__preinit_array_start, ABSOLUTE (.))
 *(.preinit_array)
                0x00845828                PROVIDE (__preinit_array_end, ABSOLUTE (.))
                0x00845828                PROVIDE (__init_array_start, ABSOLUTE (.))
 *(.init_array)
                0x00845828                PROVIDE (__init_array_end, ABSOLUTE (.))
                0x00845828                PROVIDE (__fini_array_start, ABSOLUTE (.))
 *(.fini_array)
                0x00845828                PROVIDE (__fini_array_end, ABSOLUTE (.))
 *(.eh_frame)
 *(.gcc_except_table)
 *(.dynamic)
                0x00845828                PROVIDE (__CTOR_LIST__, ABSOLUTE (.))
 *(.ctors)
 *(SORT(.ctors.*))
 .ctors.65535   0x00845828        0x4 c:/altera/13.0/nios2eds/bin/gnu/h-i686-mingw32/bin/../lib/gcc/nios2-elf/4.1.2/../../../../nios2-elf/lib/mno-hw-mul\libc.a(lib_a-__call_atexit.o)
                0x0084582c                PROVIDE (__CTOR_END__, ABSOLUTE (.))
                0x0084582c                PROVIDE (__DTOR_LIST__, ABSOLUTE (.))
 *(.dtors)
 *(SORT(.dtors.*))
                0x0084582c                PROVIDE (__DTOR_END__, ABSOLUTE (.))
 *(.jcr)
                0x0084582c                . = ALIGN (0x4)

.rodata         0x0084582c     0x4180
                0x0084582c                PROVIDE (__ram_rodata_start, ABSOLUTE (.))
                0x0084582c                . = ALIGN (0x4)
 *(.rodata .rodata.* .gnu.linkonce.r.*)
 .rodata        0x0084582c       0xa8 obj/default/SSS_DE2_115.o
 .rodata        0x008458d4      0xba4 obj/default/alt_error_handler.o
 .rodata        0x00846478       0x64 obj/default/dm9000a.o
 .rodata        0x008464dc       0xe4 obj/default/iniche_init.o
 .rodata        0x008465c0      0x234 obj/default/network_utilities.o
 .rodata        0x008467f4      0x2e0 obj/default/simple_socket_server.o
 .rodata        0x00846ad4       0x14 c:/altera/13.0/nios2eds/bin/gnu/h-i686-mingw32/bin/../lib/gcc/nios2-elf/4.1.2/mno-hw-mul\libgcc.a(_thenan_df.o)
                0x00846ad4                __thenan_df
 .rodata        0x00846ae8      0x100 c:/altera/13.0/nios2eds/bin/gnu/h-i686-mingw32/bin/../lib/gcc/nios2-elf/4.1.2/mno-hw-mul\libgcc.a(_clz.o)
                0x00846ae8                __clz_tab
 .rodata        0x00846be8      0x284 c:/altera/13.0/nios2eds/bin/gnu/h-i686-mingw32/bin/../lib/gcc/nios2-elf/4.1.2/../../../../nios2-elf/lib/mno-hw-mul\libc.a(lib_a-ctype_.o)
                0x00846be8                _ctype_
 .rodata.str1.4
                0x00846e6c        0x2 c:/altera/13.0/nios2eds/bin/gnu/h-i686-mingw32/bin/../lib/gcc/nios2-elf/4.1.2/../../../../nios2-elf/lib/mno-hw-mul\libc.a(lib_a-impure.o)
                                  0x4 (size before relaxing)
 *fill*         0x00846e6e        0x2 00
 .rodata.str1.4
                0x00846e70        0x3 c:/altera/13.0/nios2eds/bin/gnu/h-i686-mingw32/bin/../lib/gcc/nios2-elf/4.1.2/../../../../nios2-elf/lib/mno-hw-mul\libc.a(lib_a-perror.o)
                                  0x4 (size before relaxing)
 *fill*         0x00846e73        0x1 00
 .rodata.str1.4
                0x00846e74        0x2 c:/altera/13.0/nios2eds/bin/gnu/h-i686-mingw32/bin/../lib/gcc/nios2-elf/4.1.2/../../../../nios2-elf/lib/mno-hw-mul\libc.a(lib_a-puts.o)
                                  0x4 (size before relaxing)
 *fill*         0x00846e76        0x2 00
 .rodata.str1.4
                0x00846e78      0x7a2 c:/altera/13.0/nios2eds/bin/gnu/h-i686-mingw32/bin/../lib/gcc/nios2-elf/4.1.2/../../../../nios2-elf/lib/mno-hw-mul\libc.a(lib_a-strerror.o)
                                0x7a8 (size before relaxing)
 *fill*         0x0084761a        0x2 00
 .rodata.str1.4
                0x0084761c       0x5e c:/altera/13.0/nios2eds/bin/gnu/h-i686-mingw32/bin/../lib/gcc/nios2-elf/4.1.2/../../../../nios2-elf/lib/mno-hw-mul\libc.a(lib_a-vfprintf.o)
                                 0x60 (size before relaxing)
 *fill*         0x0084767a        0x2 00
 .rodata        0x0084767c       0x20 c:/altera/13.0/nios2eds/bin/gnu/h-i686-mingw32/bin/../lib/gcc/nios2-elf/4.1.2/../../../../nios2-elf/lib/mno-hw-mul\libc.a(lib_a-vfprintf.o)
 .rodata.str1.4
                0x0084769c       0x10 c:/altera/13.0/nios2eds/bin/gnu/h-i686-mingw32/bin/../lib/gcc/nios2-elf/4.1.2/../../../../nios2-elf/lib/mno-hw-mul\libc.a(lib_a-dtoa.o)
                                 0x14 (size before relaxing)
 .rodata.str1.4
                0x008476ac       0x10 c:/altera/13.0/nios2eds/bin/gnu/h-i686-mingw32/bin/../lib/gcc/nios2-elf/4.1.2/../../../../nios2-elf/lib/mno-hw-mul\libc.a(lib_a-locale.o)
                                 0x18 (size before relaxing)
 .rodata        0x008476bc       0x30 c:/altera/13.0/nios2eds/bin/gnu/h-i686-mingw32/bin/../lib/gcc/nios2-elf/4.1.2/../../../../nios2-elf/lib/mno-hw-mul\libc.a(lib_a-locale.o)
 .rodata        0x008476ec      0x124 c:/altera/13.0/nios2eds/bin/gnu/h-i686-mingw32/bin/../lib/gcc/nios2-elf/4.1.2/../../../../nios2-elf/lib/mno-hw-mul\libc.a(lib_a-mprec.o)
                0x008476ec                __mprec_tens
                0x008477b4                __mprec_bigtens
                0x008477dc                __mprec_tinytens
 .rodata        0x00847810       0x14 ../cool_bsp/\libucosii_bsp.a(alt_main.o)
 .rodata        0x00847824      0x120 ../cool_bsp/\libucosii_bsp.a(os_core.o)
                0x00847824                OSUnMapTbl
 .rodata        0x00847944       0x40 ../cool_bsp/\libucosii_bsp.a(alt_sys_init.o)
 .rodata        0x00847984       0xd8 ../cool_bsp/\libucosii_bsp.a(ipnet.o)
 .rodata        0x00847a5c       0xec ../cool_bsp/\libucosii_bsp.a(ipstart.o)
 .rodata        0x00847b48      0x54c ../cool_bsp/\libucosii_bsp.a(igmp_cmn.o)
 .rodata        0x00848094       0xb8 ../cool_bsp/\libucosii_bsp.a(in_utils.o)
 .rodata        0x0084814c       0x34 ../cool_bsp/\libucosii_bsp.a(netmain.o)
 .rodata        0x00848180       0x94 ../cool_bsp/\libucosii_bsp.a(parseip.o)
 .rodata        0x00848214      0x1a8 ../cool_bsp/\libucosii_bsp.a(tk_crnos.o)
 .rodata        0x008483bc        0x8 ../cool_bsp/\libucosii_bsp.a(dhcpclnt.o)
 .rodata        0x008483c4      0x118 ../cool_bsp/\libucosii_bsp.a(pktalloc.o)
 .rodata        0x008484dc       0x84 ../cool_bsp/\libucosii_bsp.a(udp_open.o)
 .rodata        0x00848560       0x2c ../cool_bsp/\libucosii_bsp.a(brdutils.o)
 .rodata        0x0084858c      0x26c ../cool_bsp/\libucosii_bsp.a(osportco.o)
 .rodata        0x008487f8       0xa0 ../cool_bsp/\libucosii_bsp.a(targnios.o)
 .rodata        0x00848898       0x90 ../cool_bsp/\libucosii_bsp.a(nptcp.o)
 .rodata        0x00848928        0x8 ../cool_bsp/\libucosii_bsp.a(sockcall.o)
 .rodata        0x00848930       0x50 ../cool_bsp/\libucosii_bsp.a(socket.o)
 .rodata        0x00848980       0x40 ../cool_bsp/\libucosii_bsp.a(socket2.o)
 .rodata        0x008489c0       0x20 ../cool_bsp/\libucosii_bsp.a(tcp_in.o)
 .rodata        0x008489e0       0x40 ../cool_bsp/\libucosii_bsp.a(tcp_out.o)
 .rodata        0x00848a20       0x24 ../cool_bsp/\libucosii_bsp.a(tcp_subr.o)
 .rodata        0x00848a44       0x2c ../cool_bsp/\libucosii_bsp.a(tcp_usr.o)
 .rodata        0x00848a70        0xc ../cool_bsp/\libucosii_bsp.a(alt_dev.o)
 .rodata        0x00848a7c        0x4 ../cool_bsp/\libucosii_bsp.a(os_cpu_c.o)
 .rodata        0x00848a80      0x1d4 ../cool_bsp/\libucosii_bsp.a(allports.o)
 .rodata        0x00848c54       0x34 ../cool_bsp/\libucosii_bsp.a(tk_misc.o)
 .rodata        0x00848c88       0x44 ../cool_bsp/\libucosii_bsp.a(et_arp.o)
 .rodata        0x00848ccc      0x1dc ../cool_bsp/\libucosii_bsp.a(ip.o)
 .rodata        0x00848ea8      0x158 ../cool_bsp/\libucosii_bsp.a(ip_reasm.o)
 .rodata        0x00849000      0x120 ../cool_bsp/\libucosii_bsp.a(ipdemux.o)
 .rodata        0x00849120       0x34 ../cool_bsp/\libucosii_bsp.a(ipport.o)
 .rodata        0x00849154       0x24 ../cool_bsp/\libucosii_bsp.a(ipraw.o)
 .rodata        0x00849178       0x38 ../cool_bsp/\libucosii_bsp.a(iproute.o)
 .rodata        0x008491b0       0xe8 ../cool_bsp/\libucosii_bsp.a(udp.o)
 .rodata        0x00849298      0x2d0 ../cool_bsp/\libucosii_bsp.a(u_mctest.o)
 .rodata        0x00849568       0xf8 ../cool_bsp/\libucosii_bsp.a(dhcsetup.o)
 .rodata        0x00849660       0x34 ../cool_bsp/\libucosii_bsp.a(vfsfiles.o)
 .rodata        0x00849694      0x318 ../cool_bsp/\libucosii_bsp.a(icmp.o)
 *(.rodata1)
                0x008499ac                . = ALIGN (0x4)
                0x008499ac                PROVIDE (__ram_rodata_end, ABSOLUTE (.))
                0x0084582c                PROVIDE (__flash_rodata_start, LOADADDR (.rodata))

.rwdata         0x008499ac     0x1f48
                0x008499ac                PROVIDE (__ram_rwdata_start, ABSOLUTE (.))
                0x008499ac                . = ALIGN (0x4)
 *(.got.plt)
 *(.got)
 *(.data1)
 *(.data .data.* .gnu.linkonce.d.*)
 .data          0x008499ac        0x0 ../cool_bsp//obj/HAL/src/crt0.o
 .data          0x008499ac        0x0 obj/default/SSS_DE2_115.o
 .data          0x008499ac        0x0 obj/default/alt_error_handler.o
 .data          0x008499ac        0x0 obj/default/dm9000a.o
 .data          0x008499ac       0x18 obj/default/iniche_init.o
                0x008499ac                ssstask
 .data          0x008499c4        0x0 obj/default/led.o
 .data          0x008499c4        0x0 obj/default/network_utilities.o
 .data          0x008499c4        0x0 obj/default/simple_socket_server.o
 .data          0x008499c4        0x0 obj/default/tse_my_system.o
 .data          0x008499c4        0x0 c:/altera/13.0/nios2eds/bin/gnu/h-i686-mingw32/bin/../lib/gcc/nios2-elf/4.1.2/mno-hw-mul\libgcc.a(_fixunsdfsi.o)
 .data          0x008499c4        0x0 c:/altera/13.0/nios2eds/bin/gnu/h-i686-mingw32/bin/../lib/gcc/nios2-elf/4.1.2/mno-hw-mul\libgcc.a(_addsub_df.o)
 .data          0x008499c4        0x0 c:/altera/13.0/nios2eds/bin/gnu/h-i686-mingw32/bin/../lib/gcc/nios2-elf/4.1.2/mno-hw-mul\libgcc.a(_mul_df.o)
 .data          0x008499c4        0x0 c:/altera/13.0/nios2eds/bin/gnu/h-i686-mingw32/bin/../lib/gcc/nios2-elf/4.1.2/mno-hw-mul\libgcc.a(_ge_df.o)
 .data          0x008499c4        0x0 c:/altera/13.0/nios2eds/bin/gnu/h-i686-mingw32/bin/../lib/gcc/nios2-elf/4.1.2/mno-hw-mul\libgcc.a(_df_to_si.o)
 .data          0x008499c4        0x0 c:/altera/13.0/nios2eds/bin/gnu/h-i686-mingw32/bin/../lib/gcc/nios2-elf/4.1.2/mno-hw-mul\libgcc.a(_thenan_df.o)
 .data          0x008499c4        0x0 c:/altera/13.0/nios2eds/bin/gnu/h-i686-mingw32/bin/../lib/gcc/nios2-elf/4.1.2/mno-hw-mul\libgcc.a(_usi_to_df.o)
 .data          0x008499c4        0x0 c:/altera/13.0/nios2eds/bin/gnu/h-i686-mingw32/bin/../lib/gcc/nios2-elf/4.1.2/mno-hw-mul\libgcc.a(lib2-mul.o)
 .data          0x008499c4        0x0 c:/altera/13.0/nios2eds/bin/gnu/h-i686-mingw32/bin/../lib/gcc/nios2-elf/4.1.2/mno-hw-mul\libgcc.a(_muldi3.o)
 .data          0x008499c4        0x0 c:/altera/13.0/nios2eds/bin/gnu/h-i686-mingw32/bin/../lib/gcc/nios2-elf/4.1.2/mno-hw-mul\libgcc.a(_clzsi2.o)
 .data          0x008499c4        0x0 c:/altera/13.0/nios2eds/bin/gnu/h-i686-mingw32/bin/../lib/gcc/nios2-elf/4.1.2/mno-hw-mul\libgcc.a(_pack_df.o)
 .data          0x008499c4        0x0 c:/altera/13.0/nios2eds/bin/gnu/h-i686-mingw32/bin/../lib/gcc/nios2-elf/4.1.2/mno-hw-mul\libgcc.a(_unpack_df.o)
 .data          0x008499c4        0x0 c:/altera/13.0/nios2eds/bin/gnu/h-i686-mingw32/bin/../lib/gcc/nios2-elf/4.1.2/mno-hw-mul\libgcc.a(_fpcmp_parts_df.o)
 .data          0x008499c4        0x0 c:/altera/13.0/nios2eds/bin/gnu/h-i686-mingw32/bin/../lib/gcc/nios2-elf/4.1.2/mno-hw-mul\libgcc.a(_clz.o)
 .data          0x008499c4        0x0 c:/altera/13.0/nios2eds/bin/gnu/h-i686-mingw32/bin/../lib/gcc/nios2-elf/4.1.2/../../../../nios2-elf/lib/mno-hw-mul\libc.a(lib_a-ctype_.o)
 .data          0x008499c4        0x0 c:/altera/13.0/nios2eds/bin/gnu/h-i686-mingw32/bin/../lib/gcc/nios2-elf/4.1.2/../../../../nios2-elf/lib/mno-hw-mul\libc.a(lib_a-exit.o)
 .data          0x008499c4        0x0 c:/altera/13.0/nios2eds/bin/gnu/h-i686-mingw32/bin/../lib/gcc/nios2-elf/4.1.2/../../../../nios2-elf/lib/mno-hw-mul\libc.a(lib_a-fprintf.o)
 .data          0x008499c4        0x0 c:/altera/13.0/nios2eds/bin/gnu/h-i686-mingw32/bin/../lib/gcc/nios2-elf/4.1.2/../../../../nios2-elf/lib/mno-hw-mul\libc.a(lib_a-fwrite.o)
 .data          0x008499c4        0x0 c:/altera/13.0/nios2eds/bin/gnu/h-i686-mingw32/bin/../lib/gcc/nios2-elf/4.1.2/../../../../nios2-elf/lib/mno-hw-mul\libc.a(lib_a-getc.o)
 .data          0x008499c4      0x400 c:/altera/13.0/nios2eds/bin/gnu/h-i686-mingw32/bin/../lib/gcc/nios2-elf/4.1.2/../../../../nios2-elf/lib/mno-hw-mul\libc.a(lib_a-impure.o)
 .data          0x00849dc4        0x0 c:/altera/13.0/nios2eds/bin/gnu/h-i686-mingw32/bin/../lib/gcc/nios2-elf/4.1.2/../../../../nios2-elf/lib/mno-hw-mul\libc.a(lib_a-memcpy.o)
 .data          0x00849dc4        0x0 c:/altera/13.0/nios2eds/bin/gnu/h-i686-mingw32/bin/../lib/gcc/nios2-elf/4.1.2/../../../../nios2-elf/lib/mno-hw-mul\libc.a(lib_a-memmove.o)
 .data          0x00849dc4        0x0 c:/altera/13.0/nios2eds/bin/gnu/h-i686-mingw32/bin/../lib/gcc/nios2-elf/4.1.2/../../../../nios2-elf/lib/mno-hw-mul\libc.a(lib_a-memset.o)
 .data          0x00849dc4        0x0 c:/altera/13.0/nios2eds/bin/gnu/h-i686-mingw32/bin/../lib/gcc/nios2-elf/4.1.2/../../../../nios2-elf/lib/mno-hw-mul\libc.a(lib_a-perror.o)
 .data          0x00849dc4        0x0 c:/altera/13.0/nios2eds/bin/gnu/h-i686-mingw32/bin/../lib/gcc/nios2-elf/4.1.2/../../../../nios2-elf/lib/mno-hw-mul\libc.a(lib_a-printf.o)
 .data          0x00849dc4        0x0 c:/altera/13.0/nios2eds/bin/gnu/h-i686-mingw32/bin/../lib/gcc/nios2-elf/4.1.2/../../../../nios2-elf/lib/mno-hw-mul\libc.a(lib_a-putc.o)
 .data          0x00849dc4        0x0 c:/altera/13.0/nios2eds/bin/gnu/h-i686-mingw32/bin/../lib/gcc/nios2-elf/4.1.2/../../../../nios2-elf/lib/mno-hw-mul\libc.a(lib_a-putchar.o)
 .data          0x00849dc4        0x0 c:/altera/13.0/nios2eds/bin/gnu/h-i686-mingw32/bin/../lib/gcc/nios2-elf/4.1.2/../../../../nios2-elf/lib/mno-hw-mul\libc.a(lib_a-puts.o)
 .data          0x00849dc4        0x0 c:/altera/13.0/nios2eds/bin/gnu/h-i686-mingw32/bin/../lib/gcc/nios2-elf/4.1.2/../../../../nios2-elf/lib/mno-hw-mul\libc.a(lib_a-rget.o)
 .data          0x00849dc4        0x0 c:/altera/13.0/nios2eds/bin/gnu/h-i686-mingw32/bin/../lib/gcc/nios2-elf/4.1.2/../../../../nios2-elf/lib/mno-hw-mul\libc.a(lib_a-strchr.o)
 .data          0x00849dc4        0x0 c:/altera/13.0/nios2eds/bin/gnu/h-i686-mingw32/bin/../lib/gcc/nios2-elf/4.1.2/../../../../nios2-elf/lib/mno-hw-mul\libc.a(lib_a-strerror.o)
 .data          0x00849dc4        0x0 c:/altera/13.0/nios2eds/bin/gnu/h-i686-mingw32/bin/../lib/gcc/nios2-elf/4.1.2/../../../../nios2-elf/lib/mno-hw-mul\libc.a(lib_a-strlen.o)
 .data          0x00849dc4        0x0 c:/altera/13.0/nios2eds/bin/gnu/h-i686-mingw32/bin/../lib/gcc/nios2-elf/4.1.2/../../../../nios2-elf/lib/mno-hw-mul\libc.a(lib_a-u_strerr.o)
 .data          0x00849dc4        0x0 c:/altera/13.0/nios2eds/bin/gnu/h-i686-mingw32/bin/../lib/gcc/nios2-elf/4.1.2/../../../../nios2-elf/lib/mno-hw-mul\libc.a(lib_a-vfprintf.o)
 .data          0x00849dc4        0x0 c:/altera/13.0/nios2eds/bin/gnu/h-i686-mingw32/bin/../lib/gcc/nios2-elf/4.1.2/../../../../nios2-elf/lib/mno-hw-mul\libc.a(lib_a-wbuf.o)
 .data          0x00849dc4        0x0 c:/altera/13.0/nios2eds/bin/gnu/h-i686-mingw32/bin/../lib/gcc/nios2-elf/4.1.2/../../../../nios2-elf/lib/mno-hw-mul\libc.a(lib_a-wsetup.o)
 .data          0x00849dc4        0x0 c:/altera/13.0/nios2eds/bin/gnu/h-i686-mingw32/bin/../lib/gcc/nios2-elf/4.1.2/../../../../nios2-elf/lib/mno-hw-mul\libc.a(lib_a-__call_atexit.o)
 .data          0x00849dc4        0x0 c:/altera/13.0/nios2eds/bin/gnu/h-i686-mingw32/bin/../lib/gcc/nios2-elf/4.1.2/../../../../nios2-elf/lib/mno-hw-mul\libc.a(lib_a-dtoa.o)
 .data          0x00849dc4        0x0 c:/altera/13.0/nios2eds/bin/gnu/h-i686-mingw32/bin/../lib/gcc/nios2-elf/4.1.2/../../../../nios2-elf/lib/mno-hw-mul\libc.a(lib_a-fflush.o)
 .data          0x00849dc4        0x0 c:/altera/13.0/nios2eds/bin/gnu/h-i686-mingw32/bin/../lib/gcc/nios2-elf/4.1.2/../../../../nios2-elf/lib/mno-hw-mul\libc.a(lib_a-findfp.o)
 .data          0x00849dc4        0x0 c:/altera/13.0/nios2eds/bin/gnu/h-i686-mingw32/bin/../lib/gcc/nios2-elf/4.1.2/../../../../nios2-elf/lib/mno-hw-mul\libc.a(lib_a-fputc.o)
 .data          0x00849dc4        0x0 c:/altera/13.0/nios2eds/bin/gnu/h-i686-mingw32/bin/../lib/gcc/nios2-elf/4.1.2/../../../../nios2-elf/lib/mno-hw-mul\libc.a(lib_a-fputs.o)
 .data          0x00849dc4        0x0 c:/altera/13.0/nios2eds/bin/gnu/h-i686-mingw32/bin/../lib/gcc/nios2-elf/4.1.2/../../../../nios2-elf/lib/mno-hw-mul\libc.a(lib_a-freer.o)
 .data          0x00849dc4        0x0 c:/altera/13.0/nios2eds/bin/gnu/h-i686-mingw32/bin/../lib/gcc/nios2-elf/4.1.2/../../../../nios2-elf/lib/mno-hw-mul\libc.a(lib_a-fvwrite.o)
 .data          0x00849dc4        0x0 c:/altera/13.0/nios2eds/bin/gnu/h-i686-mingw32/bin/../lib/gcc/nios2-elf/4.1.2/../../../../nios2-elf/lib/mno-hw-mul\libc.a(lib_a-fwalk.o)
 .data          0x00849dc4        0xc c:/altera/13.0/nios2eds/bin/gnu/h-i686-mingw32/bin/../lib/gcc/nios2-elf/4.1.2/../../../../nios2-elf/lib/mno-hw-mul\libc.a(lib_a-locale.o)
                0x00849dc4                __lc_ctype
 .data          0x00849dd0        0x0 c:/altera/13.0/nios2eds/bin/gnu/h-i686-mingw32/bin/../lib/gcc/nios2-elf/4.1.2/../../../../nios2-elf/lib/mno-hw-mul\libc.a(lib_a-makebuf.o)
 .data          0x00849dd0      0x408 c:/altera/13.0/nios2eds/bin/gnu/h-i686-mingw32/bin/../lib/gcc/nios2-elf/4.1.2/../../../../nios2-elf/lib/mno-hw-mul\libc.a(lib_a-mallocr.o)
                0x00849dd0                __malloc_av_
 .data          0x0084a1d8        0x0 c:/altera/13.0/nios2eds/bin/gnu/h-i686-mingw32/bin/../lib/gcc/nios2-elf/4.1.2/../../../../nios2-elf/lib/mno-hw-mul\libc.a(lib_a-memchr.o)
 .data          0x0084a1d8        0x0 c:/altera/13.0/nios2eds/bin/gnu/h-i686-mingw32/bin/../lib/gcc/nios2-elf/4.1.2/../../../../nios2-elf/lib/mno-hw-mul\libc.a(lib_a-mprec.o)
 .data          0x0084a1d8        0x0 c:/altera/13.0/nios2eds/bin/gnu/h-i686-mingw32/bin/../lib/gcc/nios2-elf/4.1.2/../../../../nios2-elf/lib/mno-hw-mul\libc.a(lib_a-reallocr.o)
 .data          0x0084a1d8        0x0 c:/altera/13.0/nios2eds/bin/gnu/h-i686-mingw32/bin/../lib/gcc/nios2-elf/4.1.2/../../../../nios2-elf/lib/mno-hw-mul\libc.a(lib_a-refill.o)
 .data          0x0084a1d8        0x0 c:/altera/13.0/nios2eds/bin/gnu/h-i686-mingw32/bin/../lib/gcc/nios2-elf/4.1.2/../../../../nios2-elf/lib/mno-hw-mul\libc.a(lib_a-s_isinfd.o)
 .data          0x0084a1d8        0x0 c:/altera/13.0/nios2eds/bin/gnu/h-i686-mingw32/bin/../lib/gcc/nios2-elf/4.1.2/../../../../nios2-elf/lib/mno-hw-mul\libc.a(lib_a-s_isnand.o)
 .data          0x0084a1d8        0x0 c:/altera/13.0/nios2eds/bin/gnu/h-i686-mingw32/bin/../lib/gcc/nios2-elf/4.1.2/../../../../nios2-elf/lib/mno-hw-mul\libc.a(lib_a-sbrkr.o)
 .data          0x0084a1d8        0x0 c:/altera/13.0/nios2eds/bin/gnu/h-i686-mingw32/bin/../lib/gcc/nios2-elf/4.1.2/../../../../nios2-elf/lib/mno-hw-mul\libc.a(lib_a-stdio.o)
 .data          0x0084a1d8        0x0 c:/altera/13.0/nios2eds/bin/gnu/h-i686-mingw32/bin/../lib/gcc/nios2-elf/4.1.2/../../../../nios2-elf/lib/mno-hw-mul\libc.a(lib_a-strcmp.o)
 .data          0x0084a1d8        0x0 c:/altera/13.0/nios2eds/bin/gnu/h-i686-mingw32/bin/../lib/gcc/nios2-elf/4.1.2/../../../../nios2-elf/lib/mno-hw-mul\libc.a(lib_a-writer.o)
 .data          0x0084a1d8        0x0 c:/altera/13.0/nios2eds/bin/gnu/h-i686-mingw32/bin/../lib/gcc/nios2-elf/4.1.2/../../../../nios2-elf/lib/mno-hw-mul\libc.a(lib_a-callocr.o)
 .data          0x0084a1d8        0x0 c:/altera/13.0/nios2eds/bin/gnu/h-i686-mingw32/bin/../lib/gcc/nios2-elf/4.1.2/../../../../nios2-elf/lib/mno-hw-mul\libc.a(lib_a-closer.o)
 .data          0x0084a1d8        0x0 c:/altera/13.0/nios2eds/bin/gnu/h-i686-mingw32/bin/../lib/gcc/nios2-elf/4.1.2/../../../../nios2-elf/lib/mno-hw-mul\libc.a(lib_a-fclose.o)
 .data          0x0084a1d8        0x0 c:/altera/13.0/nios2eds/bin/gnu/h-i686-mingw32/bin/../lib/gcc/nios2-elf/4.1.2/../../../../nios2-elf/lib/mno-hw-mul\libc.a(lib_a-fstatr.o)
 .data          0x0084a1d8        0x0 c:/altera/13.0/nios2eds/bin/gnu/h-i686-mingw32/bin/../lib/gcc/nios2-elf/4.1.2/../../../../nios2-elf/lib/mno-hw-mul\libc.a(lib_a-int_errno.o)
 .data          0x0084a1d8        0x0 c:/altera/13.0/nios2eds/bin/gnu/h-i686-mingw32/bin/../lib/gcc/nios2-elf/4.1.2/../../../../nios2-elf/lib/mno-hw-mul\libc.a(lib_a-isattyr.o)
 .data          0x0084a1d8        0x0 c:/altera/13.0/nios2eds/bin/gnu/h-i686-mingw32/bin/../lib/gcc/nios2-elf/4.1.2/../../../../nios2-elf/lib/mno-hw-mul\libc.a(lib_a-lseekr.o)
 .data          0x0084a1d8        0x0 c:/altera/13.0/nios2eds/bin/gnu/h-i686-mingw32/bin/../lib/gcc/nios2-elf/4.1.2/../../../../nios2-elf/lib/mno-hw-mul\libc.a(lib_a-readr.o)
 .data          0x0084a1d8        0x0 c:/altera/13.0/nios2eds/bin/gnu/h-i686-mingw32/bin/../lib/gcc/nios2-elf/4.1.2/mno-hw-mul\libgcc.a(_udivdi3.o)
 .data          0x0084a1d8        0x0 c:/altera/13.0/nios2eds/bin/gnu/h-i686-mingw32/bin/../lib/gcc/nios2-elf/4.1.2/mno-hw-mul\libgcc.a(_umoddi3.o)
 .data          0x0084a1d8        0x0 c:/altera/13.0/nios2eds/bin/gnu/h-i686-mingw32/bin/../lib/gcc/nios2-elf/4.1.2/mno-hw-mul\libgcc.a(_div_df.o)
 .data          0x0084a1d8        0x0 c:/altera/13.0/nios2eds/bin/gnu/h-i686-mingw32/bin/../lib/gcc/nios2-elf/4.1.2/mno-hw-mul\libgcc.a(_eq_df.o)
 .data          0x0084a1d8        0x0 c:/altera/13.0/nios2eds/bin/gnu/h-i686-mingw32/bin/../lib/gcc/nios2-elf/4.1.2/mno-hw-mul\libgcc.a(_ne_df.o)
 .data          0x0084a1d8        0x0 c:/altera/13.0/nios2eds/bin/gnu/h-i686-mingw32/bin/../lib/gcc/nios2-elf/4.1.2/mno-hw-mul\libgcc.a(_gt_df.o)
 .data          0x0084a1d8        0x0 c:/altera/13.0/nios2eds/bin/gnu/h-i686-mingw32/bin/../lib/gcc/nios2-elf/4.1.2/mno-hw-mul\libgcc.a(_lt_df.o)
 .data          0x0084a1d8        0x0 c:/altera/13.0/nios2eds/bin/gnu/h-i686-mingw32/bin/../lib/gcc/nios2-elf/4.1.2/mno-hw-mul\libgcc.a(_si_to_df.o)
 .data          0x0084a1d8        0x0 c:/altera/13.0/nios2eds/bin/gnu/h-i686-mingw32/bin/../lib/gcc/nios2-elf/4.1.2/mno-hw-mul\libgcc.a(lib2-divmod.o)
 .data          0x0084a1d8        0x0 ../cool_bsp/\libucosii_bsp.a(alt_exit.o)
 .data          0x0084a1d8        0x0 ../cool_bsp/\libucosii_bsp.a(alt_flash_dev.o)
 .data          0x0084a1d8        0x0 ../cool_bsp/\libucosii_bsp.a(alt_fstat.o)
 .data          0x0084a1d8        0x0 ../cool_bsp/\libucosii_bsp.a(alt_irq_register.o)
 .data          0x0084a1d8        0x0 ../cool_bsp/\libucosii_bsp.a(alt_irq_vars.o)
 .data          0x0084a1d8        0x0 ../cool_bsp/\libucosii_bsp.a(alt_isatty.o)
 .data          0x0084a1d8        0x0 ../cool_bsp/\libucosii_bsp.a(alt_lseek.o)
 .data          0x0084a1d8        0x0 ../cool_bsp/\libucosii_bsp.a(alt_main.o)
 .data          0x0084a1d8        0x0 ../cool_bsp/\libucosii_bsp.a(alt_sbrk.o)
 .data          0x0084a1d8        0x0 ../cool_bsp/\libucosii_bsp.a(alt_usleep.o)
 .data          0x0084a1d8        0x0 ../cool_bsp/\libucosii_bsp.a(alt_env_lock.o)
 .data          0x0084a1d8        0x0 ../cool_bsp/\libucosii_bsp.a(alt_malloc_lock.o)
 .data          0x0084a1d8        0x0 ../cool_bsp/\libucosii_bsp.a(os_core.o)
 .data          0x0084a1d8        0x0 ../cool_bsp/\libucosii_bsp.a(os_dbg.o)
 .data          0x0084a1d8        0x0 ../cool_bsp/\libucosii_bsp.a(os_flag.o)
 .data          0x0084a1d8        0x0 ../cool_bsp/\libucosii_bsp.a(os_mem.o)
 .data          0x0084a1d8        0x0 ../cool_bsp/\libucosii_bsp.a(os_q.o)
 .data          0x0084a1d8        0x0 ../cool_bsp/\libucosii_bsp.a(os_sem.o)
 .data          0x0084a1d8        0x0 ../cool_bsp/\libucosii_bsp.a(os_task.o)
 .data          0x0084a1d8        0x0 ../cool_bsp/\libucosii_bsp.a(os_time.o)
 .data          0x0084a1d8     0x120c ../cool_bsp/\libucosii_bsp.a(alt_sys_init.o)
 .data          0x0084b3e4        0x0 ../cool_bsp/\libucosii_bsp.a(altera_avalon_cfi_flash.o)
 .data          0x0084b3e4        0x0 ../cool_bsp/\libucosii_bsp.a(altera_avalon_cfi_flash_table.o)
 .data          0x0084b3e4        0x0 ../cool_bsp/\libucosii_bsp.a(altera_avalon_epcs_flash_controller.o)
 .data          0x0084b3e4        0x0 ../cool_bsp/\libucosii_bsp.a(altera_avalon_jtag_uart_fd.o)
 .data          0x0084b3e4        0x0 ../cool_bsp/\libucosii_bsp.a(altera_avalon_jtag_uart_init.o)
 .data          0x0084b3e4        0x0 ../cool_bsp/\libucosii_bsp.a(altera_avalon_jtag_uart_ioctl.o)
 .data          0x0084b3e4        0x0 ../cool_bsp/\libucosii_bsp.a(altera_avalon_jtag_uart_read.o)
 .data          0x0084b3e4        0x0 ../cool_bsp/\libucosii_bsp.a(altera_avalon_jtag_uart_write.o)
 .data          0x0084b3e4        0x0 ../cool_bsp/\libucosii_bsp.a(altera_avalon_timer_sc.o)
 .data          0x0084b3e4        0x0 ../cool_bsp/\libucosii_bsp.a(epcs_commands.o)
 .data          0x0084b3e4        0x0 ../cool_bsp/\libucosii_bsp.a(alt_iniche_close.o)
 .data          0x0084b3e4        0x0 ../cool_bsp/\libucosii_bsp.a(alt_iniche_dev.o)
 .data          0x0084b3e4        0x0 ../cool_bsp/\libucosii_bsp.a(alt_iniche_read.o)
 .data          0x0084b3e4        0x0 ../cool_bsp/\libucosii_bsp.a(alt_iniche_write.o)
 .data          0x0084b3e4        0x0 ../cool_bsp/\libucosii_bsp.a(ipnet.o)
 .data          0x0084b3e4        0x0 ../cool_bsp/\libucosii_bsp.a(ipstart.o)
 .data          0x0084b3e4        0x0 ../cool_bsp/\libucosii_bsp.a(igmp_cmn.o)
 .data          0x0084b3e4        0x0 ../cool_bsp/\libucosii_bsp.a(bsdsock.o)
 .data          0x0084b3e4        0x0 ../cool_bsp/\libucosii_bsp.a(cksum.o)
 .data          0x0084b3e4        0x0 ../cool_bsp/\libucosii_bsp.a(in_utils.o)
 .data          0x0084b3e4       0x30 ../cool_bsp/\libucosii_bsp.a(netmain.o)
                0x0084b3e4                nettasks
 .data          0x0084b414        0x0 ../cool_bsp/\libucosii_bsp.a(parseip.o)
 .data          0x0084b414        0x0 ../cool_bsp/\libucosii_bsp.a(tk_crnos.o)
 .data          0x0084b414        0x0 ../cool_bsp/\libucosii_bsp.a(dhcpclnt.o)
 .data          0x0084b414        0x0 ../cool_bsp/\libucosii_bsp.a(dhcputil.o)
 .data          0x0084b414        0x0 ../cool_bsp/\libucosii_bsp.a(pktalloc.o)
 .data          0x0084b414        0x0 ../cool_bsp/\libucosii_bsp.a(q.o)
 .data          0x0084b414        0x0 ../cool_bsp/\libucosii_bsp.a(udp_open.o)
 .data          0x0084b414        0x0 ../cool_bsp/\libucosii_bsp.a(asm_cksum.o)
 .data          0x0084b414        0x0 ../cool_bsp/\libucosii_bsp.a(brdutils.o)
 .data          0x0084b414        0x0 ../cool_bsp/\libucosii_bsp.a(osportco.o)
 .data          0x0084b414        0x0 ../cool_bsp/\libucosii_bsp.a(targnios.o)
 .data          0x0084b414       0x48 ../cool_bsp/\libucosii_bsp.a(nptcp.o)
                0x0084b414                tcp_protosw
                0x0084b42c                udp_protosw
                0x0084b444                rawip_protosw
 .data          0x0084b45c        0x0 ../cool_bsp/\libucosii_bsp.a(rawsock.o)
 .data          0x0084b45c        0x0 ../cool_bsp/\libucosii_bsp.a(sockcall.o)
 .data          0x0084b45c        0x0 ../cool_bsp/\libucosii_bsp.a(socket.o)
 .data          0x0084b45c        0x0 ../cool_bsp/\libucosii_bsp.a(socket2.o)
 .data          0x0084b45c        0x0 ../cool_bsp/\libucosii_bsp.a(soselect.o)
 .data          0x0084b45c        0x0 ../cool_bsp/\libucosii_bsp.a(tcp_in.o)
 .data          0x0084b45c        0xc ../cool_bsp/\libucosii_bsp.a(tcp_out.o)
                0x0084b45c                tcp_outflags
 .data          0x0084b468        0x0 ../cool_bsp/\libucosii_bsp.a(tcp_subr.o)
 .data          0x0084b468       0x10 ../cool_bsp/\libucosii_bsp.a(tcp_timr.o)
                0x0084b468                tcp_backoff
 .data          0x0084b478        0x0 ../cool_bsp/\libucosii_bsp.a(tcp_usr.o)
 .data          0x0084b478        0x0 ../cool_bsp/\libucosii_bsp.a(tcpport.o)
 .data          0x0084b478        0x0 ../cool_bsp/\libucosii_bsp.a(udpsock.o)
 .data          0x0084b478        0x0 ../cool_bsp/\libucosii_bsp.a(alt_alarm_start.o)
 .data          0x0084b478        0x0 ../cool_bsp/\libucosii_bsp.a(alt_busy_sleep.o)
 .data          0x0084b478        0x0 ../cool_bsp/\libucosii_bsp.a(alt_close.o)
 .data          0x0084b478        0x0 ../cool_bsp/\libucosii_bsp.a(alt_dcache_flush.o)
 .data          0x0084b478      0x1a8 ../cool_bsp/\libucosii_bsp.a(alt_dev.o)
                0x0084b478                alt_dev_null
                0x0084b4a0                alt_fd_list
 .data          0x0084b620        0x0 ../cool_bsp/\libucosii_bsp.a(alt_dev_llist_insert.o)
 .data          0x0084b620        0x0 ../cool_bsp/\libucosii_bsp.a(alt_do_ctors.o)
 .data          0x0084b620        0x0 ../cool_bsp/\libucosii_bsp.a(alt_do_dtors.o)
 .data          0x0084b620        0x0 ../cool_bsp/\libucosii_bsp.a(alt_errno.o)
 .data          0x0084b620        0x0 ../cool_bsp/\libucosii_bsp.a(alt_find_dev.o)
 .data          0x0084b620        0x0 ../cool_bsp/\libucosii_bsp.a(alt_iic.o)
 .data          0x0084b620        0x0 ../cool_bsp/\libucosii_bsp.a(alt_iic_isr_register.o)
 .data          0x0084b620        0x0 ../cool_bsp/\libucosii_bsp.a(alt_io_redirect.o)
 .data          0x0084b620        0x0 ../cool_bsp/\libucosii_bsp.a(alt_irq_entry.o)
 .data          0x0084b620        0x0 ../cool_bsp/\libucosii_bsp.a(alt_irq_handler.o)
 .data          0x0084b620        0x0 ../cool_bsp/\libucosii_bsp.a(alt_open.o)
 .data          0x0084b620        0x0 ../cool_bsp/\libucosii_bsp.a(alt_read.o)
 .data          0x0084b620        0x0 ../cool_bsp/\libucosii_bsp.a(alt_release_fd.o)
 .data          0x0084b620        0x0 ../cool_bsp/\libucosii_bsp.a(alt_remap_cached.o)
 .data          0x0084b620        0x0 ../cool_bsp/\libucosii_bsp.a(alt_remap_uncached.o)
 .data          0x0084b620        0x0 ../cool_bsp/\libucosii_bsp.a(alt_tick.o)
 .data          0x0084b620        0x0 ../cool_bsp/\libucosii_bsp.a(alt_write.o)
 .data          0x0084b620        0x0 ../cool_bsp/\libucosii_bsp.a(altera_nios2_qsys_irq.o)
 .data          0x0084b620        0x0 ../cool_bsp/\libucosii_bsp.a(os_cpu_a.o)
 .data          0x0084b620        0x0 ../cool_bsp/\libucosii_bsp.a(os_cpu_c.o)
 .data          0x0084b620        0x0 ../cool_bsp/\libucosii_bsp.a(altera_avalon_cfi_flash_amd.o)
 .data          0x0084b620        0x0 ../cool_bsp/\libucosii_bsp.a(altera_avalon_cfi_flash_intel.o)
 .data          0x0084b620        0x0 ../cool_bsp/\libucosii_bsp.a(altera_avalon_spi.o)
 .data          0x0084b620       0x18 ../cool_bsp/\libucosii_bsp.a(allports.o)
                0x0084b620                icmpdu_types
 .data          0x0084b638        0x0 ../cool_bsp/\libucosii_bsp.a(timeouts.o)
 .data          0x0084b638        0x0 ../cool_bsp/\libucosii_bsp.a(tk_misc.o)
 .data          0x0084b638        0x0 ../cool_bsp/\libucosii_bsp.a(alt_iniche_fcntl.o)
 .data          0x0084b638        0x0 ../cool_bsp/\libucosii_bsp.a(et_arp.o)
 .data          0x0084b638        0x0 ../cool_bsp/\libucosii_bsp.a(iface.o)
 .data          0x0084b638        0x0 ../cool_bsp/\libucosii_bsp.a(ip.o)
 .data          0x0084b638        0x0 ../cool_bsp/\libucosii_bsp.a(ip_reasm.o)
 .data          0x0084b638        0x0 ../cool_bsp/\libucosii_bsp.a(ipdemux.o)
 .data          0x0084b638        0x0 ../cool_bsp/\libucosii_bsp.a(ipmc.o)
 .data          0x0084b638        0x0 ../cool_bsp/\libucosii_bsp.a(ipport.o)
 .data          0x0084b638        0x0 ../cool_bsp/\libucosii_bsp.a(ipraw.o)
 .data          0x0084b638        0xc ../cool_bsp/\libucosii_bsp.a(iproute.o)
                0x0084b638                rtp_priority
 .data          0x0084b644        0x0 ../cool_bsp/\libucosii_bsp.a(udp.o)
 .data          0x0084b644        0x0 ../cool_bsp/\libucosii_bsp.a(igmp.o)
 .data          0x0084b644        0x0 ../cool_bsp/\libucosii_bsp.a(igmp2.o)
 .data          0x0084b644        0x0 ../cool_bsp/\libucosii_bsp.a(ipopt.o)
 .data          0x0084b644        0x0 ../cool_bsp/\libucosii_bsp.a(u_mctest.o)
 .data          0x0084b644        0x0 ../cool_bsp/\libucosii_bsp.a(dhcsetup.o)
 .data          0x0084b644       0xd4 ../cool_bsp/\libucosii_bsp.a(memdev.o)
                0x0084b644                mdio
                0x0084b668                mdlist
 .data          0x0084b718        0x0 ../cool_bsp/\libucosii_bsp.a(tcpcksum.o)
 .data          0x0084b718        0x0 ../cool_bsp/\libucosii_bsp.a(in_pcb.o)
 .data          0x0084b718       0x80 ../cool_bsp/\libucosii_bsp.a(vfsfiles.o)
                0x0084b718                vfs_root_path
 .data          0x0084b798        0x0 ../cool_bsp/\libucosii_bsp.a(vfsport.o)
 .data          0x0084b798        0x0 ../cool_bsp/\libucosii_bsp.a(alt_exception_entry.o)
 .data          0x0084b798        0x0 ../cool_bsp/\libucosii_bsp.a(alt_fcntl.o)
 .data          0x0084b798        0x0 ../cool_bsp/\libucosii_bsp.a(alt_find_file.o)
 .data          0x0084b798        0x0 ../cool_bsp/\libucosii_bsp.a(alt_get_fd.o)
 .data          0x0084b798       0x18 ../cool_bsp/\libucosii_bsp.a(icmp.o)
 .data          0x0084b7b0        0x0 c:/altera/13.0/nios2eds/bin/gnu/h-i686-mingw32/bin/../lib/gcc/nios2-elf/4.1.2/../../../../nios2-elf/lib/mno-hw-mul\libc.a(lib_a-atexit.o)
 .data          0x0084b7b0        0x0 c:/altera/13.0/nios2eds/bin/gnu/h-i686-mingw32/bin/../lib/gcc/nios2-elf/4.1.2/../../../../nios2-elf/lib/mno-hw-mul\libc.a(lib_a-atoi.o)
 .data          0x0084b7b0        0x0 c:/altera/13.0/nios2eds/bin/gnu/h-i686-mingw32/bin/../lib/gcc/nios2-elf/4.1.2/../../../../nios2-elf/lib/mno-hw-mul\libc.a(lib_a-calloc.o)
 .data          0x0084b7b0        0x0 c:/altera/13.0/nios2eds/bin/gnu/h-i686-mingw32/bin/../lib/gcc/nios2-elf/4.1.2/../../../../nios2-elf/lib/mno-hw-mul\libc.a(lib_a-malloc.o)
 .data          0x0084b7b0        0x0 c:/altera/13.0/nios2eds/bin/gnu/h-i686-mingw32/bin/../lib/gcc/nios2-elf/4.1.2/../../../../nios2-elf/lib/mno-hw-mul\libc.a(lib_a-memcmp.o)
 .data          0x0084b7b0        0x0 c:/altera/13.0/nios2eds/bin/gnu/h-i686-mingw32/bin/../lib/gcc/nios2-elf/4.1.2/../../../../nios2-elf/lib/mno-hw-mul\libc.a(lib_a-sprintf.o)
 .data          0x0084b7b0        0x0 c:/altera/13.0/nios2eds/bin/gnu/h-i686-mingw32/bin/../lib/gcc/nios2-elf/4.1.2/../../../../nios2-elf/lib/mno-hw-mul\libc.a(lib_a-strcpy.o)
 .data          0x0084b7b0        0x0 c:/altera/13.0/nios2eds/bin/gnu/h-i686-mingw32/bin/../lib/gcc/nios2-elf/4.1.2/../../../../nios2-elf/lib/mno-hw-mul\libc.a(lib_a-strncmp.o)
 .data          0x0084b7b0        0x0 c:/altera/13.0/nios2eds/bin/gnu/h-i686-mingw32/bin/../lib/gcc/nios2-elf/4.1.2/../../../../nios2-elf/lib/mno-hw-mul\libc.a(lib_a-strncpy.o)
 .data          0x0084b7b0        0x0 c:/altera/13.0/nios2eds/bin/gnu/h-i686-mingw32/bin/../lib/gcc/nios2-elf/4.1.2/../../../../nios2-elf/lib/mno-hw-mul\libc.a(lib_a-strtol.o)
 .data          0x0084b7b0        0x0 c:/altera/13.0/nios2eds/bin/gnu/h-i686-mingw32/bin/../lib/gcc/nios2-elf/4.1.2/../../../../nios2-elf/lib/mno-hw-mul\libc.a(lib_a-vprintf.o)
 .data          0x0084b7b0        0x0 c:/altera/13.0/nios2eds/bin/gnu/h-i686-mingw32/bin/../lib/gcc/nios2-elf/4.1.2/../../../../nios2-elf/lib/mno-hw-mul\libc.a(lib_a-vsprintf.o)
 .data          0x0084b7b0        0x0 c:/altera/13.0/nios2eds/bin/gnu/h-i686-mingw32/bin/../lib/gcc/nios2-elf/4.1.2/../../../../nios2-elf/lib/mno-hw-mul\libc.a(lib_a-__atexit.o)
                0x008537b0                _gp = ABSOLUTE ((. + 0x8000))
                0x008537b0                PROVIDE (gp, _gp)
 *(.rwdata .rwdata.*)
 *(.sdata .sdata.* .gnu.linkonce.s.*)
 .sdata         0x0084b7b0        0x4 c:/altera/13.0/nios2eds/bin/gnu/h-i686-mingw32/bin/../lib/gcc/nios2-elf/4.1.2/../../../../nios2-elf/lib/mno-hw-mul\libc.a(lib_a-ctype_.o)
                0x0084b7b0                __ctype_ptr
 .sdata         0x0084b7b4        0x8 c:/altera/13.0/nios2eds/bin/gnu/h-i686-mingw32/bin/../lib/gcc/nios2-elf/4.1.2/../../../../nios2-elf/lib/mno-hw-mul\libc.a(lib_a-impure.o)
                0x0084b7b4                _impure_ptr
                0x0084b7b8                _global_impure_ptr
 .sdata         0x0084b7bc        0x8 c:/altera/13.0/nios2eds/bin/gnu/h-i686-mingw32/bin/../lib/gcc/nios2-elf/4.1.2/../../../../nios2-elf/lib/mno-hw-mul\libc.a(lib_a-locale.o)
                0x0084b7bc                __mb_cur_max
 .sdata         0x0084b7c4        0x8 c:/altera/13.0/nios2eds/bin/gnu/h-i686-mingw32/bin/../lib/gcc/nios2-elf/4.1.2/../../../../nios2-elf/lib/mno-hw-mul\libc.a(lib_a-mallocr.o)
                0x0084b7c4                __malloc_trim_threshold
                0x0084b7c8                __malloc_sbrk_base
 .sdata         0x0084b7cc        0x8 ../cool_bsp/\libucosii_bsp.a(alt_flash_dev.o)
                0x0084b7cc                alt_flash_dev_list
 .sdata         0x0084b7d4        0x4 ../cool_bsp/\libucosii_bsp.a(alt_irq_vars.o)
                0x0084b7d4                alt_priority_mask
 .sdata         0x0084b7d8        0x4 ../cool_bsp/\libucosii_bsp.a(alt_sbrk.o)
 .sdata         0x0084b7dc        0x4 ../cool_bsp/\libucosii_bsp.a(alt_env_lock.o)
 .sdata         0x0084b7e0        0x4 ../cool_bsp/\libucosii_bsp.a(alt_malloc_lock.o)
 .sdata         0x0084b7e4       0x74 ../cool_bsp/\libucosii_bsp.a(os_dbg.o)
                0x0084b7e4                OSDebugEn
                0x0084b7e8                OSEndiannessTest
                0x0084b7ec                OSEventEn
                0x0084b7ee                OSEventMax
                0x0084b7f0                OSEventNameSize
                0x0084b7f2                OSEventSize
                0x0084b7f4                OSEventTblSize
                0x0084b7f6                OSEventMultiEn
                0x0084b7f8                OSFlagEn
                0x0084b7fa                OSFlagGrpSize
                0x0084b7fc                OSFlagNodeSize
                0x0084b7fe                OSFlagWidth
                0x0084b800                OSFlagMax
                0x0084b802                OSFlagNameSize
                0x0084b804                OSLowestPrio
                0x0084b806                OSMboxEn
                0x0084b808                OSMemEn
                0x0084b80a                OSMemMax
                0x0084b80c                OSMemNameSize
                0x0084b80e                OSMemSize
                0x0084b810                OSMemTblSize
                0x0084b812                OSMutexEn
                0x0084b814                OSPtrSize
                0x0084b816                OSQEn
                0x0084b818                OSQMax
                0x0084b81a                OSQSize
                0x0084b81c                OSRdyTblSize
                0x0084b81e                OSSemEn
                0x0084b820                OSStkWidth
                0x0084b822                OSTaskCreateEn
                0x0084b824                OSTaskCreateExtEn
                0x0084b826                OSTaskDelEn
                0x0084b828                OSTaskIdleStkSize
                0x0084b82a                OSTaskProfileEn
                0x0084b82c                OSTaskMax
                0x0084b82e                OSTaskNameSize
                0x0084b830                OSTaskStatEn
                0x0084b832                OSTaskStatStkSize
                0x0084b834                OSTaskStatStkChkEn
                0x0084b836                OSTaskSwHookEn
                0x0084b838                OSTCBPrioTblMax
                0x0084b83a                OSTCBSize
                0x0084b83c                OSTicksPerSec
                0x0084b83e                OSTimeTickHookEn
                0x0084b840                OSVersionNbr
                0x0084b842                OSTmrEn
                0x0084b844                OSTmrCfgMax
                0x0084b846                OSTmrCfgNameSize
                0x0084b848                OSTmrCfgWheelSize
                0x0084b84a                OSTmrCfgTicksPerSec
                0x0084b84c                OSTmrSize
                0x0084b84e                OSTmrTblSize
                0x0084b850                OSTmrWheelSize
                0x0084b852                OSTmrWheelTblSize
                0x0084b854                OSDataSize
 .sdata         0x0084b858        0x8 ../cool_bsp/\libucosii_bsp.a(alt_iniche_dev.o)
                0x0084b858                alt_iniche_dev_list
 .sdata         0x0084b860        0x4 ../cool_bsp/\libucosii_bsp.a(ipstart.o)
                0x0084b860                ipmcfail_str
 .sdata         0x0084b864        0x4 ../cool_bsp/\libucosii_bsp.a(cksum.o)
 .sdata         0x0084b868        0x4 ../cool_bsp/\libucosii_bsp.a(netmain.o)
                0x0084b868                num_net_tasks
 .sdata         0x0084b86c        0x4 ../cool_bsp/\libucosii_bsp.a(parseip.o)
                0x0084b86c                pton_error
 .sdata         0x0084b870        0xc ../cool_bsp/\libucosii_bsp.a(dhcpclnt.o)
                0x0084b870                xids
                0x0084b874                reqlist
                0x0084b878                reqlist_len
 .sdata         0x0084b87c       0x10 ../cool_bsp/\libucosii_bsp.a(pktalloc.o)
                0x0084b87c                lilbufs
                0x0084b880                lilbufsiz
                0x0084b884                bigbufs
                0x0084b888                bigbufsiz
 .sdata         0x0084b88c        0x4 ../cool_bsp/\libucosii_bsp.a(brdutils.o)
                0x0084b88c                kb_last
 .sdata         0x0084b890        0x4 ../cool_bsp/\libucosii_bsp.a(nptcp.o)
                0x0084b890                TCPTV_MSL
 .sdata         0x0084b894        0x2 ../cool_bsp/\libucosii_bsp.a(socket.o)
                0x0084b894                socket_defaults
 .sdata         0x0084b896        0x1 ../cool_bsp/\libucosii_bsp.a(tcp_in.o)
                0x0084b896                tcprexmtthresh
 *fill*         0x0084b897        0x1 00
 .sdata         0x0084b898        0x4 ../cool_bsp/\libucosii_bsp.a(tcp_subr.o)
                0x0084b898                tcp_ttl
 .sdata         0x0084b89c        0x8 ../cool_bsp/\libucosii_bsp.a(tcp_timr.o)
                0x0084b89c                tcp_keepidle
                0x0084b8a0                tcp_keepintvl
 .sdata         0x0084b8a4        0x8 ../cool_bsp/\libucosii_bsp.a(tcp_usr.o)
                0x0084b8a4                tcp_sendspace
                0x0084b8a8                tcp_recvspace
 .sdata         0x0084b8ac       0x14 ../cool_bsp/\libucosii_bsp.a(alt_dev.o)
                0x0084b8ac                alt_fs_list
                0x0084b8b4                alt_dev_list
                0x0084b8bc                alt_max_fd
 .sdata         0x0084b8c0        0x4 ../cool_bsp/\libucosii_bsp.a(alt_errno.o)
                0x0084b8c0                alt_errno
 .sdata         0x0084b8c4        0x8 ../cool_bsp/\libucosii_bsp.a(alt_tick.o)
                0x0084b8c4                alt_alarm_list
 .sdata         0x0084b8cc       0x10 ../cool_bsp/\libucosii_bsp.a(allports.o)
                0x0084b8cc                name
                0x0084b8d0                prompt
                0x0084b8d4                pingdelay
                0x0084b8d8                deflength
 .sdata         0x0084b8dc        0x4 ../cool_bsp/\libucosii_bsp.a(et_arp.o)
                0x0084b8dc                arp_ageout
 .sdata         0x0084b8e0        0x8 ../cool_bsp/\libucosii_bsp.a(ip.o)
                0x0084b8e4                ipRoutes
 .sdata         0x0084b8e8        0x4 ../cool_bsp/\libucosii_bsp.a(u_mctest.o)
 .sdata         0x0084b8ec        0x4 ../cool_bsp/\libucosii_bsp.a(memdev.o)
                0x0084b8ec                mdlist_size
 .sdata         0x0084b8f0        0x4 ../cool_bsp/\libucosii_bsp.a(vfsfiles.o)
                0x0084b8f0                http_root_path
 *(.sdata2 .sdata2.* .gnu.linkonce.s2.*)
                0x0084b8f4                . = ALIGN (0x4)
                0x0084b8f4                _edata = ABSOLUTE (.)
                0x0084b8f4                PROVIDE (edata, ABSOLUTE (.))
                0x0084b8f4                PROVIDE (__ram_rwdata_end, ABSOLUTE (.))
                0x008499ac                PROVIDE (__flash_rwdata_start, LOADADDR (.rwdata))

.bss            0x0084b8f4     0xaa2c
                0x0084b8f4                __bss_start = ABSOLUTE (.)
                0x0084b8f4                PROVIDE (__sbss_start, ABSOLUTE (.))
                0x0084b8f4                PROVIDE (___sbss_start, ABSOLUTE (.))
 *(.dynsbss)
 *(.sbss .sbss.* .gnu.linkonce.sb.*)
 .sbss          0x0084b8f4        0x8 obj/default/SSS_DE2_115.o
                0x0084b8f4                last_flash_sector_offset
                0x0084b8f8                last_flash_sector
 .sbss          0x0084b8fc        0x8 obj/default/dm9000a.o
                0x0084b8fc                autoReset
                0x0084b900                netisrs
 .sbss          0x0084b904        0x1 obj/default/iniche_init.o
                0x0084b904                to_ssstask
 *fill*         0x0084b905        0x3 00
 .sbss          0x0084b908       0x10 obj/default/simple_socket_server.o
                0x0084b90c                SSSLEDCommandQ
                0x0084b910                SSSLEDLightshowSem
                0x0084b914                SSSLEDEventFlag
 .sbss          0x0084b918        0xc c:/altera/13.0/nios2eds/bin/gnu/h-i686-mingw32/bin/../lib/gcc/nios2-elf/4.1.2/../../../../nios2-elf/lib/mno-hw-mul\libc.a(lib_a-locale.o)
                0x0084b918                __nlocale_changed
                0x0084b91c                __mlocale_changed
                0x0084b920                _PathLocale
 .sbss          0x0084b924        0xc c:/altera/13.0/nios2eds/bin/gnu/h-i686-mingw32/bin/../lib/gcc/nios2-elf/4.1.2/../../../../nios2-elf/lib/mno-hw-mul\libc.a(lib_a-mallocr.o)
                0x0084b924                __malloc_top_pad
                0x0084b928                __malloc_max_sbrked_mem
                0x0084b92c                __malloc_max_total_mem
 .sbss          0x0084b930        0x4 c:/altera/13.0/nios2eds/bin/gnu/h-i686-mingw32/bin/../lib/gcc/nios2-elf/4.1.2/../../../../nios2-elf/lib/mno-hw-mul\libc.a(lib_a-int_errno.o)
                0x0084b930                errno
 .sbss          0x0084b934        0x4 ../cool_bsp/\libucosii_bsp.a(alt_irq_vars.o)
                0x0084b934                alt_irq_active
 .sbss          0x0084b938        0xc ../cool_bsp/\libucosii_bsp.a(alt_main.o)
                0x0084b938                alt_argc
                0x0084b93c                alt_argv
                0x0084b940                alt_envp
 .sbss          0x0084b944        0x8 ../cool_bsp/\libucosii_bsp.a(alt_env_lock.o)
                0x0084b948                alt_envsem
 .sbss          0x0084b94c        0x8 ../cool_bsp/\libucosii_bsp.a(alt_malloc_lock.o)
                0x0084b950                alt_heapsem
 .sbss          0x0084b954       0x54 ../cool_bsp/\libucosii_bsp.a(os_core.o)
                0x0084b954                OSLockNesting
                0x0084b955                OSRunning
                0x0084b958                OSIdleCtr
                0x0084b95c                OSPrioHighRdy
                0x0084b95d                OSPrioCur
                0x0084b960                OSTCBList
                0x0084b964                OSTickStepState
                0x0084b968                OSCtxSwCtr
                0x0084b96c                OSIdleCtrMax
                0x0084b970                OSTCBFreeList
                0x0084b974                OSCPUUsage
                0x0084b975                OSTaskCtr
                0x0084b978                OSMemFreeList
                0x0084b97c                OSTCBHighRdy
                0x0084b980                OSQFreeList
                0x0084b984                OSRdyGrp
                0x0084b988                OSRdyTbl
                0x0084b98c                OSEventFreeList
                0x0084b990                OSIntNesting
                0x0084b994                OSTCBCur
                0x0084b998                OSTime
                0x0084b99c                OSFlagFreeList
                0x0084b9a0                OSStatRdy
                0x0084b9a4                OSIdleCtrRun
 .sbss          0x0084b9a8        0xc ../cool_bsp/\libucosii_bsp.a(ipnet.o)
                0x0084b9a8                MaxLnh
                0x0084b9ac                MaxMtu
                0x0084b9b0                NDEBUG
 .sbss          0x0084b9b4        0x8 ../cool_bsp/\libucosii_bsp.a(ipstart.o)
                0x0084b9b4                ifNumber
 .sbss          0x0084b9bc       0x10 ../cool_bsp/\libucosii_bsp.a(igmp_cmn.o)
                0x0084b9bc                igmp_timers_are_running
                0x0084b9c0                igmp_cticks
                0x0084b9c4                igmp_all_hosts_group
                0x0084b9c8                igmp_all_rtrs_group
 .sbss          0x0084b9cc        0xe ../cool_bsp/\libucosii_bsp.a(netmain.o)
                0x0084b9cc                netmain_wakes
                0x0084b9d0                nettick_wakes
                0x0084b9d4                iniche_net_ready
                0x0084b9d8                to_netmain
                0x0084b9d9                to_nettick
 *fill*         0x0084b9da        0x2 00
 .sbss          0x0084b9dc        0x4 ../cool_bsp/\libucosii_bsp.a(tk_crnos.o)
                0x0084b9dc                tcp_sleep_timeout
 .sbss          0x0084b9e0       0x34 ../cool_bsp/\libucosii_bsp.a(dhcpclnt.o)
                0x0084b9e0                dhc_conn
                0x0084b9e4                dsc_errors
                0x0084b9e8                dsc_discovers
                0x0084b9ec                dsc_offers
                0x0084b9f0                dsc_requests
                0x0084b9f4                dsc_acks
                0x0084b9f8                dsc_bpreplys
                0x0084b9fc                dsc_declines
                0x0084ba00                dsc_releases
                0x0084ba04                dsc_naks
                0x0084ba08                dsc_renew
                0x0084ba0c                dsc_rebind
                0x0084ba10                dsc_rlyerrs
 .sbss          0x0084ba14        0x4 ../cool_bsp/\libucosii_bsp.a(udp_open.o)
                0x0084ba14                firstudp
 .sbss          0x0084ba18       0x18 ../cool_bsp/\libucosii_bsp.a(brdutils.o)
                0x0084ba1c                cticks_initialized
                0x0084ba20                irq_level
                0x0084ba28                cticks_factor
                0x0084ba2c                OS_TPS
 .sbss          0x0084ba30       0x18 ../cool_bsp/\libucosii_bsp.a(osportco.o)
                0x0084ba30                tcp_sleep_count
                0x0084ba34                tcp_wakeup_count
                0x0084ba38                netq_intmask
                0x0084ba3c                old_mode
                0x0084ba40                global_TCPwakeup_setIndx
                0x0084ba44                cticks
 .sbss          0x0084ba48        0xc ../cool_bsp/\libucosii_bsp.a(targnios.o)
                0x0084ba48                memtrapsize
                0x0084ba4c                mheap_sem_ptr
                0x0084ba50                rcvdq_sem_ptr
 .sbss          0x0084ba54       0x12 ../cool_bsp/\libucosii_bsp.a(nptcp.o)
                0x0084ba54                nextslow
                0x0084ba5c                mbstat
                0x0084ba64                select_wait
 *fill*         0x0084ba66        0x2 00
 .sbss          0x0084ba68        0x8 ../cool_bsp/\libucosii_bsp.a(tcp_in.o)
                0x0084ba68                tcpprintfs
                0x0084ba6c                dropline
 .sbss          0x0084ba70        0x4 ../cool_bsp/\libucosii_bsp.a(tcp_out.o)
                0x0084ba70                tcp_optionbuf
 .sbss          0x0084ba74        0x8 ../cool_bsp/\libucosii_bsp.a(tcp_timr.o)
                0x0084ba74                tcp_maxidle
                0x0084ba78                tcp_iss
 .sbss          0x0084ba7c        0x4 ../cool_bsp/\libucosii_bsp.a(alt_dev.o)
                0x0084ba7c                alt_fd_list_lock
 .sbss          0x0084ba80        0x8 ../cool_bsp/\libucosii_bsp.a(alt_tick.o)
                0x0084ba80                _alt_tick_rate
                0x0084ba84                _alt_nticks
 .sbss          0x0084ba88        0x8 ../cool_bsp/\libucosii_bsp.a(allports.o)
                0x0084ba88                activehost
 .sbss          0x0084ba90        0xc ../cool_bsp/\libucosii_bsp.a(timeouts.o)
                0x0084ba90                nextppp
                0x0084ba94                port_1s_callout
 .sbss          0x0084ba9c       0x1c ../cool_bsp/\libucosii_bsp.a(et_arp.o)
                0x0084baa0                arpcache
                0x0084baa4                arpReqsIn
                0x0084baa8                arpReqsOut
                0x0084baac                arpRepsIn
                0x0084bab0                arpRepsOut
 .sbss          0x0084bab8        0x4 ../cool_bsp/\libucosii_bsp.a(ip.o)
                0x0084bab8                rt_mib
 .sbss          0x0084babc        0xc ../cool_bsp/\libucosii_bsp.a(ip_reasm.o)
                0x0084babc                ipr_curr_mem
                0x0084bac0                h_ireq
                0x0084bac4                ire_cticks
 .sbss          0x0084bac8       0x11 ../cool_bsp/\libucosii_bsp.a(ipport.o)
                0x0084bac8                port_prep
                0x0084bacc                net_system_exit
                0x0084bad0                so_evtmap_create
                0x0084bad4                so_evtmap_delete
                0x0084bad8                so_evtmap
 *fill*         0x0084bad9        0x3 00
 .sbss          0x0084badc        0x4 ../cool_bsp/\libucosii_bsp.a(ipraw.o)
                0x0084badc                ipraw_eps
 .sbss          0x0084bae0        0x4 ../cool_bsp/\libucosii_bsp.a(iproute.o)
                0x0084bae0                cachedRoute
 .sbss          0x0084bae4        0x2 ../cool_bsp/\libucosii_bsp.a(udp.o)
 *fill*         0x0084bae6        0x2 00
 .sbss          0x0084bae8        0x8 ../cool_bsp/\libucosii_bsp.a(in_pcb.o)
                0x0084bae8                inpcb_cachehits
                0x0084baec                inpcb_cachemiss
 .sbss          0x0084baf0       0x20 ../cool_bsp/\libucosii_bsp.a(vfsfiles.o)
                0x0084baf0                vfsystems
                0x0084baf4                vfiles
                0x0084baf8                vfsfiles
                0x0084bafc                vfopen_error
                0x0084bb00                vfs_dir_stale
                0x0084bb04                vfs_open_files
                0x0084bb08                vfs_total_rw_space
                0x0084bb0c                vfs_total_dyna_files
 .sbss          0x0084bb10        0x4 ../cool_bsp/\libucosii_bsp.a(icmp.o)
                0x0084bb10                icmpdu_hook
 *(.sbss2 .sbss2.* .gnu.linkonce.sb2.*)
 *(.scommon)
                0x0084bb14                PROVIDE (__sbss_end, ABSOLUTE (.))
                0x0084bb14                PROVIDE (___sbss_end, ABSOLUTE (.))
 *(.dynbss)
 *(.bss .bss.* .gnu.linkonce.b.*)
 .bss           0x0084bb14        0x0 ../cool_bsp//obj/HAL/src/crt0.o
 .bss           0x0084bb14        0x0 obj/default/SSS_DE2_115.o
 .bss           0x0084bb14        0x0 obj/default/alt_error_handler.o
 .bss           0x0084bb14        0x0 obj/default/dm9000a.o
 .bss           0x0084bb14        0x0 obj/default/iniche_init.o
 .bss           0x0084bb14        0x0 obj/default/led.o
 .bss           0x0084bb14        0x0 obj/default/network_utilities.o
 .bss           0x0084bb14      0x5f0 obj/default/simple_socket_server.o
 .bss           0x0084c104        0x0 obj/default/tse_my_system.o
 .bss           0x0084c104        0x0 c:/altera/13.0/nios2eds/bin/gnu/h-i686-mingw32/bin/../lib/gcc/nios2-elf/4.1.2/mno-hw-mul\libgcc.a(_fixunsdfsi.o)
 .bss           0x0084c104        0x0 c:/altera/13.0/nios2eds/bin/gnu/h-i686-mingw32/bin/../lib/gcc/nios2-elf/4.1.2/mno-hw-mul\libgcc.a(_addsub_df.o)
 .bss           0x0084c104        0x0 c:/altera/13.0/nios2eds/bin/gnu/h-i686-mingw32/bin/../lib/gcc/nios2-elf/4.1.2/mno-hw-mul\libgcc.a(_mul_df.o)
 .bss           0x0084c104        0x0 c:/altera/13.0/nios2eds/bin/gnu/h-i686-mingw32/bin/../lib/gcc/nios2-elf/4.1.2/mno-hw-mul\libgcc.a(_ge_df.o)
 .bss           0x0084c104        0x0 c:/altera/13.0/nios2eds/bin/gnu/h-i686-mingw32/bin/../lib/gcc/nios2-elf/4.1.2/mno-hw-mul\libgcc.a(_df_to_si.o)
 .bss           0x0084c104        0x0 c:/altera/13.0/nios2eds/bin/gnu/h-i686-mingw32/bin/../lib/gcc/nios2-elf/4.1.2/mno-hw-mul\libgcc.a(_thenan_df.o)
 .bss           0x0084c104        0x0 c:/altera/13.0/nios2eds/bin/gnu/h-i686-mingw32/bin/../lib/gcc/nios2-elf/4.1.2/mno-hw-mul\libgcc.a(_usi_to_df.o)
 .bss           0x0084c104        0x0 c:/altera/13.0/nios2eds/bin/gnu/h-i686-mingw32/bin/../lib/gcc/nios2-elf/4.1.2/mno-hw-mul\libgcc.a(lib2-mul.o)
 .bss           0x0084c104        0x0 c:/altera/13.0/nios2eds/bin/gnu/h-i686-mingw32/bin/../lib/gcc/nios2-elf/4.1.2/mno-hw-mul\libgcc.a(_muldi3.o)
 .bss           0x0084c104        0x0 c:/altera/13.0/nios2eds/bin/gnu/h-i686-mingw32/bin/../lib/gcc/nios2-elf/4.1.2/mno-hw-mul\libgcc.a(_clzsi2.o)
 .bss           0x0084c104        0x0 c:/altera/13.0/nios2eds/bin/gnu/h-i686-mingw32/bin/../lib/gcc/nios2-elf/4.1.2/mno-hw-mul\libgcc.a(_pack_df.o)
 .bss           0x0084c104        0x0 c:/altera/13.0/nios2eds/bin/gnu/h-i686-mingw32/bin/../lib/gcc/nios2-elf/4.1.2/mno-hw-mul\libgcc.a(_unpack_df.o)
 .bss           0x0084c104        0x0 c:/altera/13.0/nios2eds/bin/gnu/h-i686-mingw32/bin/../lib/gcc/nios2-elf/4.1.2/mno-hw-mul\libgcc.a(_fpcmp_parts_df.o)
 .bss           0x0084c104        0x0 c:/altera/13.0/nios2eds/bin/gnu/h-i686-mingw32/bin/../lib/gcc/nios2-elf/4.1.2/mno-hw-mul\libgcc.a(_clz.o)
 .bss           0x0084c104        0x0 c:/altera/13.0/nios2eds/bin/gnu/h-i686-mingw32/bin/../lib/gcc/nios2-elf/4.1.2/../../../../nios2-elf/lib/mno-hw-mul\libc.a(lib_a-ctype_.o)
 .bss           0x0084c104        0x0 c:/altera/13.0/nios2eds/bin/gnu/h-i686-mingw32/bin/../lib/gcc/nios2-elf/4.1.2/../../../../nios2-elf/lib/mno-hw-mul\libc.a(lib_a-exit.o)
 .bss           0x0084c104        0x0 c:/altera/13.0/nios2eds/bin/gnu/h-i686-mingw32/bin/../lib/gcc/nios2-elf/4.1.2/../../../../nios2-elf/lib/mno-hw-mul\libc.a(lib_a-fprintf.o)
 .bss           0x0084c104        0x0 c:/altera/13.0/nios2eds/bin/gnu/h-i686-mingw32/bin/../lib/gcc/nios2-elf/4.1.2/../../../../nios2-elf/lib/mno-hw-mul\libc.a(lib_a-fwrite.o)
 .bss           0x0084c104        0x0 c:/altera/13.0/nios2eds/bin/gnu/h-i686-mingw32/bin/../lib/gcc/nios2-elf/4.1.2/../../../../nios2-elf/lib/mno-hw-mul\libc.a(lib_a-getc.o)
 .bss           0x0084c104        0x0 c:/altera/13.0/nios2eds/bin/gnu/h-i686-mingw32/bin/../lib/gcc/nios2-elf/4.1.2/../../../../nios2-elf/lib/mno-hw-mul\libc.a(lib_a-impure.o)
 .bss           0x0084c104        0x0 c:/altera/13.0/nios2eds/bin/gnu/h-i686-mingw32/bin/../lib/gcc/nios2-elf/4.1.2/../../../../nios2-elf/lib/mno-hw-mul\libc.a(lib_a-memcpy.o)
 .bss           0x0084c104        0x0 c:/altera/13.0/nios2eds/bin/gnu/h-i686-mingw32/bin/../lib/gcc/nios2-elf/4.1.2/../../../../nios2-elf/lib/mno-hw-mul\libc.a(lib_a-memmove.o)
 .bss           0x0084c104        0x0 c:/altera/13.0/nios2eds/bin/gnu/h-i686-mingw32/bin/../lib/gcc/nios2-elf/4.1.2/../../../../nios2-elf/lib/mno-hw-mul\libc.a(lib_a-memset.o)
 .bss           0x0084c104        0x0 c:/altera/13.0/nios2eds/bin/gnu/h-i686-mingw32/bin/../lib/gcc/nios2-elf/4.1.2/../../../../nios2-elf/lib/mno-hw-mul\libc.a(lib_a-perror.o)
 .bss           0x0084c104        0x0 c:/altera/13.0/nios2eds/bin/gnu/h-i686-mingw32/bin/../lib/gcc/nios2-elf/4.1.2/../../../../nios2-elf/lib/mno-hw-mul\libc.a(lib_a-printf.o)
 .bss           0x0084c104        0x0 c:/altera/13.0/nios2eds/bin/gnu/h-i686-mingw32/bin/../lib/gcc/nios2-elf/4.1.2/../../../../nios2-elf/lib/mno-hw-mul\libc.a(lib_a-putc.o)
 .bss           0x0084c104        0x0 c:/altera/13.0/nios2eds/bin/gnu/h-i686-mingw32/bin/../lib/gcc/nios2-elf/4.1.2/../../../../nios2-elf/lib/mno-hw-mul\libc.a(lib_a-putchar.o)
 .bss           0x0084c104        0x0 c:/altera/13.0/nios2eds/bin/gnu/h-i686-mingw32/bin/../lib/gcc/nios2-elf/4.1.2/../../../../nios2-elf/lib/mno-hw-mul\libc.a(lib_a-puts.o)
 .bss           0x0084c104        0x0 c:/altera/13.0/nios2eds/bin/gnu/h-i686-mingw32/bin/../lib/gcc/nios2-elf/4.1.2/../../../../nios2-elf/lib/mno-hw-mul\libc.a(lib_a-rget.o)
 .bss           0x0084c104        0x0 c:/altera/13.0/nios2eds/bin/gnu/h-i686-mingw32/bin/../lib/gcc/nios2-elf/4.1.2/../../../../nios2-elf/lib/mno-hw-mul\libc.a(lib_a-strchr.o)
 .bss           0x0084c104        0x0 c:/altera/13.0/nios2eds/bin/gnu/h-i686-mingw32/bin/../lib/gcc/nios2-elf/4.1.2/../../../../nios2-elf/lib/mno-hw-mul\libc.a(lib_a-strerror.o)
 .bss           0x0084c104        0x0 c:/altera/13.0/nios2eds/bin/gnu/h-i686-mingw32/bin/../lib/gcc/nios2-elf/4.1.2/../../../../nios2-elf/lib/mno-hw-mul\libc.a(lib_a-strlen.o)
 .bss           0x0084c104        0x0 c:/altera/13.0/nios2eds/bin/gnu/h-i686-mingw32/bin/../lib/gcc/nios2-elf/4.1.2/../../../../nios2-elf/lib/mno-hw-mul\libc.a(lib_a-u_strerr.o)
 .bss           0x0084c104        0x0 c:/altera/13.0/nios2eds/bin/gnu/h-i686-mingw32/bin/../lib/gcc/nios2-elf/4.1.2/../../../../nios2-elf/lib/mno-hw-mul\libc.a(lib_a-vfprintf.o)
 .bss           0x0084c104        0x0 c:/altera/13.0/nios2eds/bin/gnu/h-i686-mingw32/bin/../lib/gcc/nios2-elf/4.1.2/../../../../nios2-elf/lib/mno-hw-mul\libc.a(lib_a-wbuf.o)
 .bss           0x0084c104        0x0 c:/altera/13.0/nios2eds/bin/gnu/h-i686-mingw32/bin/../lib/gcc/nios2-elf/4.1.2/../../../../nios2-elf/lib/mno-hw-mul\libc.a(lib_a-wsetup.o)
 .bss           0x0084c104        0x0 c:/altera/13.0/nios2eds/bin/gnu/h-i686-mingw32/bin/../lib/gcc/nios2-elf/4.1.2/../../../../nios2-elf/lib/mno-hw-mul\libc.a(lib_a-__call_atexit.o)
 .bss           0x0084c104        0x0 c:/altera/13.0/nios2eds/bin/gnu/h-i686-mingw32/bin/../lib/gcc/nios2-elf/4.1.2/../../../../nios2-elf/lib/mno-hw-mul\libc.a(lib_a-dtoa.o)
 .bss           0x0084c104        0x0 c:/altera/13.0/nios2eds/bin/gnu/h-i686-mingw32/bin/../lib/gcc/nios2-elf/4.1.2/../../../../nios2-elf/lib/mno-hw-mul\libc.a(lib_a-fflush.o)
 .bss           0x0084c104        0x0 c:/altera/13.0/nios2eds/bin/gnu/h-i686-mingw32/bin/../lib/gcc/nios2-elf/4.1.2/../../../../nios2-elf/lib/mno-hw-mul\libc.a(lib_a-findfp.o)
 .bss           0x0084c104        0x0 c:/altera/13.0/nios2eds/bin/gnu/h-i686-mingw32/bin/../lib/gcc/nios2-elf/4.1.2/../../../../nios2-elf/lib/mno-hw-mul\libc.a(lib_a-fputc.o)
 .bss           0x0084c104        0x0 c:/altera/13.0/nios2eds/bin/gnu/h-i686-mingw32/bin/../lib/gcc/nios2-elf/4.1.2/../../../../nios2-elf/lib/mno-hw-mul\libc.a(lib_a-fputs.o)
 .bss           0x0084c104        0x0 c:/altera/13.0/nios2eds/bin/gnu/h-i686-mingw32/bin/../lib/gcc/nios2-elf/4.1.2/../../../../nios2-elf/lib/mno-hw-mul\libc.a(lib_a-freer.o)
 .bss           0x0084c104        0x0 c:/altera/13.0/nios2eds/bin/gnu/h-i686-mingw32/bin/../lib/gcc/nios2-elf/4.1.2/../../../../nios2-elf/lib/mno-hw-mul\libc.a(lib_a-fvwrite.o)
 .bss           0x0084c104        0x0 c:/altera/13.0/nios2eds/bin/gnu/h-i686-mingw32/bin/../lib/gcc/nios2-elf/4.1.2/../../../../nios2-elf/lib/mno-hw-mul\libc.a(lib_a-fwalk.o)
 .bss           0x0084c104        0x0 c:/altera/13.0/nios2eds/bin/gnu/h-i686-mingw32/bin/../lib/gcc/nios2-elf/4.1.2/../../../../nios2-elf/lib/mno-hw-mul\libc.a(lib_a-locale.o)
 .bss           0x0084c104        0x0 c:/altera/13.0/nios2eds/bin/gnu/h-i686-mingw32/bin/../lib/gcc/nios2-elf/4.1.2/../../../../nios2-elf/lib/mno-hw-mul\libc.a(lib_a-makebuf.o)
 .bss           0x0084c104       0x28 c:/altera/13.0/nios2eds/bin/gnu/h-i686-mingw32/bin/../lib/gcc/nios2-elf/4.1.2/../../../../nios2-elf/lib/mno-hw-mul\libc.a(lib_a-mallocr.o)
                0x0084c104                __malloc_current_mallinfo
 .bss           0x0084c12c        0x0 c:/altera/13.0/nios2eds/bin/gnu/h-i686-mingw32/bin/../lib/gcc/nios2-elf/4.1.2/../../../../nios2-elf/lib/mno-hw-mul\libc.a(lib_a-memchr.o)
 .bss           0x0084c12c        0x0 c:/altera/13.0/nios2eds/bin/gnu/h-i686-mingw32/bin/../lib/gcc/nios2-elf/4.1.2/../../../../nios2-elf/lib/mno-hw-mul\libc.a(lib_a-mprec.o)
 .bss           0x0084c12c        0x0 c:/altera/13.0/nios2eds/bin/gnu/h-i686-mingw32/bin/../lib/gcc/nios2-elf/4.1.2/../../../../nios2-elf/lib/mno-hw-mul\libc.a(lib_a-reallocr.o)
 .bss           0x0084c12c        0x0 c:/altera/13.0/nios2eds/bin/gnu/h-i686-mingw32/bin/../lib/gcc/nios2-elf/4.1.2/../../../../nios2-elf/lib/mno-hw-mul\libc.a(lib_a-refill.o)
 .bss           0x0084c12c        0x0 c:/altera/13.0/nios2eds/bin/gnu/h-i686-mingw32/bin/../lib/gcc/nios2-elf/4.1.2/../../../../nios2-elf/lib/mno-hw-mul\libc.a(lib_a-s_isinfd.o)
 .bss           0x0084c12c        0x0 c:/altera/13.0/nios2eds/bin/gnu/h-i686-mingw32/bin/../lib/gcc/nios2-elf/4.1.2/../../../../nios2-elf/lib/mno-hw-mul\libc.a(lib_a-s_isnand.o)
 .bss           0x0084c12c        0x0 c:/altera/13.0/nios2eds/bin/gnu/h-i686-mingw32/bin/../lib/gcc/nios2-elf/4.1.2/../../../../nios2-elf/lib/mno-hw-mul\libc.a(lib_a-sbrkr.o)
 .bss           0x0084c12c        0x0 c:/altera/13.0/nios2eds/bin/gnu/h-i686-mingw32/bin/../lib/gcc/nios2-elf/4.1.2/../../../../nios2-elf/lib/mno-hw-mul\libc.a(lib_a-stdio.o)
 .bss           0x0084c12c        0x0 c:/altera/13.0/nios2eds/bin/gnu/h-i686-mingw32/bin/../lib/gcc/nios2-elf/4.1.2/../../../../nios2-elf/lib/mno-hw-mul\libc.a(lib_a-strcmp.o)
 .bss           0x0084c12c        0x0 c:/altera/13.0/nios2eds/bin/gnu/h-i686-mingw32/bin/../lib/gcc/nios2-elf/4.1.2/../../../../nios2-elf/lib/mno-hw-mul\libc.a(lib_a-writer.o)
 .bss           0x0084c12c        0x0 c:/altera/13.0/nios2eds/bin/gnu/h-i686-mingw32/bin/../lib/gcc/nios2-elf/4.1.2/../../../../nios2-elf/lib/mno-hw-mul\libc.a(lib_a-callocr.o)
 .bss           0x0084c12c        0x0 c:/altera/13.0/nios2eds/bin/gnu/h-i686-mingw32/bin/../lib/gcc/nios2-elf/4.1.2/../../../../nios2-elf/lib/mno-hw-mul\libc.a(lib_a-closer.o)
 .bss           0x0084c12c        0x0 c:/altera/13.0/nios2eds/bin/gnu/h-i686-mingw32/bin/../lib/gcc/nios2-elf/4.1.2/../../../../nios2-elf/lib/mno-hw-mul\libc.a(lib_a-fclose.o)
 .bss           0x0084c12c        0x0 c:/altera/13.0/nios2eds/bin/gnu/h-i686-mingw32/bin/../lib/gcc/nios2-elf/4.1.2/../../../../nios2-elf/lib/mno-hw-mul\libc.a(lib_a-fstatr.o)
 .bss           0x0084c12c        0x0 c:/altera/13.0/nios2eds/bin/gnu/h-i686-mingw32/bin/../lib/gcc/nios2-elf/4.1.2/../../../../nios2-elf/lib/mno-hw-mul\libc.a(lib_a-int_errno.o)
 .bss           0x0084c12c        0x0 c:/altera/13.0/nios2eds/bin/gnu/h-i686-mingw32/bin/../lib/gcc/nios2-elf/4.1.2/../../../../nios2-elf/lib/mno-hw-mul\libc.a(lib_a-isattyr.o)
 .bss           0x0084c12c        0x0 c:/altera/13.0/nios2eds/bin/gnu/h-i686-mingw32/bin/../lib/gcc/nios2-elf/4.1.2/../../../../nios2-elf/lib/mno-hw-mul\libc.a(lib_a-lseekr.o)
 .bss           0x0084c12c        0x0 c:/altera/13.0/nios2eds/bin/gnu/h-i686-mingw32/bin/../lib/gcc/nios2-elf/4.1.2/../../../../nios2-elf/lib/mno-hw-mul\libc.a(lib_a-readr.o)
 .bss           0x0084c12c        0x0 c:/altera/13.0/nios2eds/bin/gnu/h-i686-mingw32/bin/../lib/gcc/nios2-elf/4.1.2/mno-hw-mul\libgcc.a(_udivdi3.o)
 .bss           0x0084c12c        0x0 c:/altera/13.0/nios2eds/bin/gnu/h-i686-mingw32/bin/../lib/gcc/nios2-elf/4.1.2/mno-hw-mul\libgcc.a(_umoddi3.o)
 .bss           0x0084c12c        0x0 c:/altera/13.0/nios2eds/bin/gnu/h-i686-mingw32/bin/../lib/gcc/nios2-elf/4.1.2/mno-hw-mul\libgcc.a(_div_df.o)
 .bss           0x0084c12c        0x0 c:/altera/13.0/nios2eds/bin/gnu/h-i686-mingw32/bin/../lib/gcc/nios2-elf/4.1.2/mno-hw-mul\libgcc.a(_eq_df.o)
 .bss           0x0084c12c        0x0 c:/altera/13.0/nios2eds/bin/gnu/h-i686-mingw32/bin/../lib/gcc/nios2-elf/4.1.2/mno-hw-mul\libgcc.a(_ne_df.o)
 .bss           0x0084c12c        0x0 c:/altera/13.0/nios2eds/bin/gnu/h-i686-mingw32/bin/../lib/gcc/nios2-elf/4.1.2/mno-hw-mul\libgcc.a(_gt_df.o)
 .bss           0x0084c12c        0x0 c:/altera/13.0/nios2eds/bin/gnu/h-i686-mingw32/bin/../lib/gcc/nios2-elf/4.1.2/mno-hw-mul\libgcc.a(_lt_df.o)
 .bss           0x0084c12c        0x0 c:/altera/13.0/nios2eds/bin/gnu/h-i686-mingw32/bin/../lib/gcc/nios2-elf/4.1.2/mno-hw-mul\libgcc.a(_si_to_df.o)
 .bss           0x0084c12c        0x0 c:/altera/13.0/nios2eds/bin/gnu/h-i686-mingw32/bin/../lib/gcc/nios2-elf/4.1.2/mno-hw-mul\libgcc.a(lib2-divmod.o)
 .bss           0x0084c12c        0x0 ../cool_bsp/\libucosii_bsp.a(alt_exit.o)
 .bss           0x0084c12c        0x0 ../cool_bsp/\libucosii_bsp.a(alt_flash_dev.o)
 .bss           0x0084c12c        0x0 ../cool_bsp/\libucosii_bsp.a(alt_fstat.o)
 .bss           0x0084c12c        0x0 ../cool_bsp/\libucosii_bsp.a(alt_irq_register.o)
 .bss           0x0084c12c        0x0 ../cool_bsp/\libucosii_bsp.a(alt_irq_vars.o)
 .bss           0x0084c12c        0x0 ../cool_bsp/\libucosii_bsp.a(alt_isatty.o)
 .bss           0x0084c12c        0x0 ../cool_bsp/\libucosii_bsp.a(alt_lseek.o)
 .bss           0x0084c12c        0x0 ../cool_bsp/\libucosii_bsp.a(alt_main.o)
 .bss           0x0084c12c        0x0 ../cool_bsp/\libucosii_bsp.a(alt_sbrk.o)
 .bss           0x0084c12c        0x0 ../cool_bsp/\libucosii_bsp.a(alt_usleep.o)
 .bss           0x0084c12c        0x0 ../cool_bsp/\libucosii_bsp.a(alt_env_lock.o)
 .bss           0x0084c12c        0x0 ../cool_bsp/\libucosii_bsp.a(alt_malloc_lock.o)
 .bss           0x0084c12c        0x0 ../cool_bsp/\libucosii_bsp.a(os_core.o)
 .bss           0x0084c12c        0x0 ../cool_bsp/\libucosii_bsp.a(os_dbg.o)
 .bss           0x0084c12c        0x0 ../cool_bsp/\libucosii_bsp.a(os_flag.o)
 .bss           0x0084c12c        0x0 ../cool_bsp/\libucosii_bsp.a(os_mem.o)
 .bss           0x0084c12c        0x0 ../cool_bsp/\libucosii_bsp.a(os_q.o)
 .bss           0x0084c12c        0x0 ../cool_bsp/\libucosii_bsp.a(os_sem.o)
 .bss           0x0084c12c        0x0 ../cool_bsp/\libucosii_bsp.a(os_task.o)
 .bss           0x0084c12c        0x0 ../cool_bsp/\libucosii_bsp.a(os_time.o)
 .bss           0x0084c12c        0x0 ../cool_bsp/\libucosii_bsp.a(alt_sys_init.o)
 .bss           0x0084c12c        0x0 ../cool_bsp/\libucosii_bsp.a(altera_avalon_cfi_flash.o)
 .bss           0x0084c12c        0x0 ../cool_bsp/\libucosii_bsp.a(altera_avalon_cfi_flash_table.o)
 .bss           0x0084c12c        0x0 ../cool_bsp/\libucosii_bsp.a(altera_avalon_epcs_flash_controller.o)
 .bss           0x0084c12c        0x0 ../cool_bsp/\libucosii_bsp.a(altera_avalon_jtag_uart_fd.o)
 .bss           0x0084c12c        0x0 ../cool_bsp/\libucosii_bsp.a(altera_avalon_jtag_uart_init.o)
 .bss           0x0084c12c        0x0 ../cool_bsp/\libucosii_bsp.a(altera_avalon_jtag_uart_ioctl.o)
 .bss           0x0084c12c        0x0 ../cool_bsp/\libucosii_bsp.a(altera_avalon_jtag_uart_read.o)
 .bss           0x0084c12c        0x0 ../cool_bsp/\libucosii_bsp.a(altera_avalon_jtag_uart_write.o)
 .bss           0x0084c12c        0x0 ../cool_bsp/\libucosii_bsp.a(altera_avalon_timer_sc.o)
 .bss           0x0084c12c        0x0 ../cool_bsp/\libucosii_bsp.a(epcs_commands.o)
 .bss           0x0084c12c        0x0 ../cool_bsp/\libucosii_bsp.a(alt_iniche_close.o)
 .bss           0x0084c12c        0x0 ../cool_bsp/\libucosii_bsp.a(alt_iniche_dev.o)
 .bss           0x0084c12c        0x0 ../cool_bsp/\libucosii_bsp.a(alt_iniche_read.o)
 .bss           0x0084c12c        0x0 ../cool_bsp/\libucosii_bsp.a(alt_iniche_write.o)
 .bss           0x0084c12c        0x0 ../cool_bsp/\libucosii_bsp.a(ipnet.o)
 .bss           0x0084c12c       0x3c ../cool_bsp/\libucosii_bsp.a(ipstart.o)
 .bss           0x0084c168        0x0 ../cool_bsp/\libucosii_bsp.a(igmp_cmn.o)
 .bss           0x0084c168        0x0 ../cool_bsp/\libucosii_bsp.a(bsdsock.o)
 .bss           0x0084c168        0x0 ../cool_bsp/\libucosii_bsp.a(cksum.o)
 .bss           0x0084c168       0x18 ../cool_bsp/\libucosii_bsp.a(in_utils.o)
 .bss           0x0084c180        0x0 ../cool_bsp/\libucosii_bsp.a(netmain.o)
 .bss           0x0084c180       0x20 ../cool_bsp/\libucosii_bsp.a(parseip.o)
 .bss           0x0084c1a0        0x0 ../cool_bsp/\libucosii_bsp.a(tk_crnos.o)
 .bss           0x0084c1a0        0x0 ../cool_bsp/\libucosii_bsp.a(dhcpclnt.o)
 .bss           0x0084c1a0        0x0 ../cool_bsp/\libucosii_bsp.a(dhcputil.o)
 .bss           0x0084c1a0        0x0 ../cool_bsp/\libucosii_bsp.a(pktalloc.o)
 .bss           0x0084c1a0        0x0 ../cool_bsp/\libucosii_bsp.a(q.o)
 .bss           0x0084c1a0        0x0 ../cool_bsp/\libucosii_bsp.a(udp_open.o)
 .bss           0x0084c1a0        0x0 ../cool_bsp/\libucosii_bsp.a(asm_cksum.o)
 .bss           0x0084c1a0        0x0 ../cool_bsp/\libucosii_bsp.a(brdutils.o)
 .bss           0x0084c1a0        0x0 ../cool_bsp/\libucosii_bsp.a(osportco.o)
 .bss           0x0084c1a0        0x0 ../cool_bsp/\libucosii_bsp.a(targnios.o)
 .bss           0x0084c1a0        0x0 ../cool_bsp/\libucosii_bsp.a(nptcp.o)
 .bss           0x0084c1a0        0x0 ../cool_bsp/\libucosii_bsp.a(rawsock.o)
 .bss           0x0084c1a0        0x0 ../cool_bsp/\libucosii_bsp.a(sockcall.o)
 .bss           0x0084c1a0        0x0 ../cool_bsp/\libucosii_bsp.a(socket.o)
 .bss           0x0084c1a0        0x0 ../cool_bsp/\libucosii_bsp.a(socket2.o)
 .bss           0x0084c1a0        0x0 ../cool_bsp/\libucosii_bsp.a(soselect.o)
 .bss           0x0084c1a0        0x0 ../cool_bsp/\libucosii_bsp.a(tcp_in.o)
 .bss           0x0084c1a0        0x0 ../cool_bsp/\libucosii_bsp.a(tcp_out.o)
 .bss           0x0084c1a0        0x0 ../cool_bsp/\libucosii_bsp.a(tcp_subr.o)
 .bss           0x0084c1a0        0x0 ../cool_bsp/\libucosii_bsp.a(tcp_timr.o)
 .bss           0x0084c1a0        0x0 ../cool_bsp/\libucosii_bsp.a(tcp_usr.o)
 .bss           0x0084c1a0        0x0 ../cool_bsp/\libucosii_bsp.a(tcpport.o)
 .bss           0x0084c1a0        0x0 ../cool_bsp/\libucosii_bsp.a(udpsock.o)
 .bss           0x0084c1a0        0x0 ../cool_bsp/\libucosii_bsp.a(alt_alarm_start.o)
 .bss           0x0084c1a0        0x0 ../cool_bsp/\libucosii_bsp.a(alt_busy_sleep.o)
 .bss           0x0084c1a0        0x0 ../cool_bsp/\libucosii_bsp.a(alt_close.o)
 .bss           0x0084c1a0        0x0 ../cool_bsp/\libucosii_bsp.a(alt_dcache_flush.o)
 .bss           0x0084c1a0        0x0 ../cool_bsp/\libucosii_bsp.a(alt_dev.o)
 .bss           0x0084c1a0        0x0 ../cool_bsp/\libucosii_bsp.a(alt_dev_llist_insert.o)
 .bss           0x0084c1a0        0x0 ../cool_bsp/\libucosii_bsp.a(alt_do_ctors.o)
 .bss           0x0084c1a0        0x0 ../cool_bsp/\libucosii_bsp.a(alt_do_dtors.o)
 .bss           0x0084c1a0        0x0 ../cool_bsp/\libucosii_bsp.a(alt_errno.o)
 .bss           0x0084c1a0        0x0 ../cool_bsp/\libucosii_bsp.a(alt_find_dev.o)
 .bss           0x0084c1a0        0x0 ../cool_bsp/\libucosii_bsp.a(alt_iic.o)
 .bss           0x0084c1a0        0x0 ../cool_bsp/\libucosii_bsp.a(alt_iic_isr_register.o)
 .bss           0x0084c1a0        0x0 ../cool_bsp/\libucosii_bsp.a(alt_io_redirect.o)
 .bss           0x0084c1a0        0x0 ../cool_bsp/\libucosii_bsp.a(alt_irq_entry.o)
 .bss           0x0084c1a0        0x0 ../cool_bsp/\libucosii_bsp.a(alt_irq_handler.o)
 .bss           0x0084c1a0        0x0 ../cool_bsp/\libucosii_bsp.a(alt_open.o)
 .bss           0x0084c1a0        0x0 ../cool_bsp/\libucosii_bsp.a(alt_read.o)
 .bss           0x0084c1a0        0x0 ../cool_bsp/\libucosii_bsp.a(alt_release_fd.o)
 .bss           0x0084c1a0        0x0 ../cool_bsp/\libucosii_bsp.a(alt_remap_cached.o)
 .bss           0x0084c1a0        0x0 ../cool_bsp/\libucosii_bsp.a(alt_remap_uncached.o)
 .bss           0x0084c1a0        0x0 ../cool_bsp/\libucosii_bsp.a(alt_tick.o)
 .bss           0x0084c1a0        0x0 ../cool_bsp/\libucosii_bsp.a(alt_write.o)
 .bss           0x0084c1a0        0x0 ../cool_bsp/\libucosii_bsp.a(altera_nios2_qsys_irq.o)
 .bss           0x0084c1a0        0x0 ../cool_bsp/\libucosii_bsp.a(os_cpu_a.o)
 .bss           0x0084c1a0        0x0 ../cool_bsp/\libucosii_bsp.a(os_cpu_c.o)
 .bss           0x0084c1a0        0x0 ../cool_bsp/\libucosii_bsp.a(altera_avalon_cfi_flash_amd.o)
 .bss           0x0084c1a0        0x0 ../cool_bsp/\libucosii_bsp.a(altera_avalon_cfi_flash_intel.o)
 .bss           0x0084c1a0        0x0 ../cool_bsp/\libucosii_bsp.a(altera_avalon_spi.o)
 .bss           0x0084c1a0        0x0 ../cool_bsp/\libucosii_bsp.a(allports.o)
 .bss           0x0084c1a0        0x0 ../cool_bsp/\libucosii_bsp.a(timeouts.o)
 .bss           0x0084c1a0        0x0 ../cool_bsp/\libucosii_bsp.a(tk_misc.o)
 .bss           0x0084c1a0        0x0 ../cool_bsp/\libucosii_bsp.a(alt_iniche_fcntl.o)
 .bss           0x0084c1a0        0x0 ../cool_bsp/\libucosii_bsp.a(et_arp.o)
 .bss           0x0084c1a0        0x0 ../cool_bsp/\libucosii_bsp.a(iface.o)
 .bss           0x0084c1a0        0x0 ../cool_bsp/\libucosii_bsp.a(ip.o)
 .bss           0x0084c1a0        0x0 ../cool_bsp/\libucosii_bsp.a(ip_reasm.o)
 .bss           0x0084c1a0        0x0 ../cool_bsp/\libucosii_bsp.a(ipdemux.o)
 .bss           0x0084c1a0        0x0 ../cool_bsp/\libucosii_bsp.a(ipmc.o)
 .bss           0x0084c1a0        0x0 ../cool_bsp/\libucosii_bsp.a(ipport.o)
 .bss           0x0084c1a0        0x0 ../cool_bsp/\libucosii_bsp.a(ipraw.o)
 .bss           0x0084c1a0        0x0 ../cool_bsp/\libucosii_bsp.a(iproute.o)
 .bss           0x0084c1a0        0x0 ../cool_bsp/\libucosii_bsp.a(udp.o)
 .bss           0x0084c1a0        0x0 ../cool_bsp/\libucosii_bsp.a(igmp.o)
 .bss           0x0084c1a0        0x0 ../cool_bsp/\libucosii_bsp.a(igmp2.o)
 .bss           0x0084c1a0        0x0 ../cool_bsp/\libucosii_bsp.a(ipopt.o)
 .bss           0x0084c1a0        0x0 ../cool_bsp/\libucosii_bsp.a(u_mctest.o)
 .bss           0x0084c1a0        0x0 ../cool_bsp/\libucosii_bsp.a(dhcsetup.o)
 .bss           0x0084c1a0        0x0 ../cool_bsp/\libucosii_bsp.a(memdev.o)
 .bss           0x0084c1a0        0x0 ../cool_bsp/\libucosii_bsp.a(tcpcksum.o)
 .bss           0x0084c1a0        0x0 ../cool_bsp/\libucosii_bsp.a(in_pcb.o)
 .bss           0x0084c1a0        0x0 ../cool_bsp/\libucosii_bsp.a(vfsfiles.o)
 .bss           0x0084c1a0        0x0 ../cool_bsp/\libucosii_bsp.a(vfsport.o)
 .bss           0x0084c1a0        0x0 ../cool_bsp/\libucosii_bsp.a(alt_exception_entry.o)
 .bss           0x0084c1a0        0x0 ../cool_bsp/\libucosii_bsp.a(alt_fcntl.o)
 .bss           0x0084c1a0        0x0 ../cool_bsp/\libucosii_bsp.a(alt_find_file.o)
 .bss           0x0084c1a0        0x0 ../cool_bsp/\libucosii_bsp.a(alt_get_fd.o)
 .bss           0x0084c1a0        0x0 ../cool_bsp/\libucosii_bsp.a(icmp.o)
 .bss           0x0084c1a0        0x0 c:/altera/13.0/nios2eds/bin/gnu/h-i686-mingw32/bin/../lib/gcc/nios2-elf/4.1.2/../../../../nios2-elf/lib/mno-hw-mul\libc.a(lib_a-atexit.o)
 .bss           0x0084c1a0        0x0 c:/altera/13.0/nios2eds/bin/gnu/h-i686-mingw32/bin/../lib/gcc/nios2-elf/4.1.2/../../../../nios2-elf/lib/mno-hw-mul\libc.a(lib_a-atoi.o)
 .bss           0x0084c1a0        0x0 c:/altera/13.0/nios2eds/bin/gnu/h-i686-mingw32/bin/../lib/gcc/nios2-elf/4.1.2/../../../../nios2-elf/lib/mno-hw-mul\libc.a(lib_a-calloc.o)
 .bss           0x0084c1a0        0x0 c:/altera/13.0/nios2eds/bin/gnu/h-i686-mingw32/bin/../lib/gcc/nios2-elf/4.1.2/../../../../nios2-elf/lib/mno-hw-mul\libc.a(lib_a-malloc.o)
 .bss           0x0084c1a0        0x0 c:/altera/13.0/nios2eds/bin/gnu/h-i686-mingw32/bin/../lib/gcc/nios2-elf/4.1.2/../../../../nios2-elf/lib/mno-hw-mul\libc.a(lib_a-memcmp.o)
 .bss           0x0084c1a0        0x0 c:/altera/13.0/nios2eds/bin/gnu/h-i686-mingw32/bin/../lib/gcc/nios2-elf/4.1.2/../../../../nios2-elf/lib/mno-hw-mul\libc.a(lib_a-sprintf.o)
 .bss           0x0084c1a0        0x0 c:/altera/13.0/nios2eds/bin/gnu/h-i686-mingw32/bin/../lib/gcc/nios2-elf/4.1.2/../../../../nios2-elf/lib/mno-hw-mul\libc.a(lib_a-strcpy.o)
 .bss           0x0084c1a0        0x0 c:/altera/13.0/nios2eds/bin/gnu/h-i686-mingw32/bin/../lib/gcc/nios2-elf/4.1.2/../../../../nios2-elf/lib/mno-hw-mul\libc.a(lib_a-strncmp.o)
 .bss           0x0084c1a0        0x0 c:/altera/13.0/nios2eds/bin/gnu/h-i686-mingw32/bin/../lib/gcc/nios2-elf/4.1.2/../../../../nios2-elf/lib/mno-hw-mul\libc.a(lib_a-strncpy.o)
 .bss           0x0084c1a0        0x0 c:/altera/13.0/nios2eds/bin/gnu/h-i686-mingw32/bin/../lib/gcc/nios2-elf/4.1.2/../../../../nios2-elf/lib/mno-hw-mul\libc.a(lib_a-strtol.o)
 .bss           0x0084c1a0        0x0 c:/altera/13.0/nios2eds/bin/gnu/h-i686-mingw32/bin/../lib/gcc/nios2-elf/4.1.2/../../../../nios2-elf/lib/mno-hw-mul\libc.a(lib_a-vprintf.o)
 .bss           0x0084c1a0        0x0 c:/altera/13.0/nios2eds/bin/gnu/h-i686-mingw32/bin/../lib/gcc/nios2-elf/4.1.2/../../../../nios2-elf/lib/mno-hw-mul\libc.a(lib_a-vsprintf.o)
 .bss           0x0084c1a0        0x0 c:/altera/13.0/nios2eds/bin/gnu/h-i686-mingw32/bin/../lib/gcc/nios2-elf/4.1.2/../../../../nios2-elf/lib/mno-hw-mul\libc.a(lib_a-__atexit.o)
 *(COMMON)
 COMMON         0x0084c1a0       0x44 obj/default/dm9000a.o
                0x0084c1a0                g_dm9ka
 COMMON         0x0084c1e4     0x2000 obj/default/iniche_init.o
                0x0084c1e4                SSSInitialTaskStk
 COMMON         0x0084e1e4     0x4078 obj/default/simple_socket_server.o
                0x0084e1e4                LED7SegLightshowTaskStk
                0x008501e4                SSSLEDCommandQTbl
                0x0085025c                LEDManagementTaskStk
 COMMON         0x0085225c     0x3224 ../cool_bsp/\libucosii_bsp.a(os_core.o)
                0x0085225c                OSFlagTbl
                0x008525cc                OSMemTbl
                0x008531fc                OSTaskStatStk
                0x008539fc                OSQTbl
                0x00853bdc                OSTaskIdleStk
                0x008543dc                OSEventTbl
                0x00854f1c                OSTCBTbl
                0x0085542c                OSTCBPrioTbl
 COMMON         0x00855480       0x14 ../cool_bsp/\libucosii_bsp.a(ipnet.o)
                0x00855480                rcvdq
 COMMON         0x00855494      0x310 ../cool_bsp/\libucosii_bsp.a(ipstart.o)
                0x00855494                netstatic
                0x00855794                nets
 COMMON         0x008557a4       0x64 ../cool_bsp/\libucosii_bsp.a(igmp_cmn.o)
                0x008557a4                igmpstats
 COMMON         0x00855808       0x26 ../cool_bsp/\libucosii_bsp.a(in_utils.o)
                0x00855808                eth_prt_buf
                0x0085581c                ipreturn
 *fill*         0x0085582e        0x2 00
 COMMON         0x00855830       0xf0 ../cool_bsp/\libucosii_bsp.a(dhcpclnt.o)
                0x00855830                dhc_states
 COMMON         0x00855920      0x128 ../cool_bsp/\libucosii_bsp.a(pktalloc.o)
                0x00855920                lilfreeq
                0x00855934                memestats
                0x00855944                pktlog
                0x00855a34                bigfreeq
 COMMON         0x00855a48      0x1ec ../cool_bsp/\libucosii_bsp.a(osportco.o)
                0x00855a48                global_tcb_ext
                0x00855b44                global_TCPwakeup_set
 COMMON         0x00855c34       0x58 ../cool_bsp/\libucosii_bsp.a(targnios.o)
                0x00855c34                resid_semaphore
                0x00855c74                app_semaphore
 COMMON         0x00855c8c       0x78 ../cool_bsp/\libucosii_bsp.a(nptcp.o)
                0x00855c8c                soq
                0x00855ca0                tcpmib
                0x00855cdc                mbufq
                0x00855cf0                mfreeq
 COMMON         0x00855d04       0x28 ../cool_bsp/\libucosii_bsp.a(tcp_in.o)
                0x00855d04                tcp_saveti
 COMMON         0x00855d2c      0x10c ../cool_bsp/\libucosii_bsp.a(tcp_subr.o)
                0x00855d2c                tcb
                0x00855d58                tcpstat
 COMMON         0x00855e38      0x100 ../cool_bsp/\libucosii_bsp.a(alt_irq_handler.o)
                0x00855e38                alt_irq
 COMMON         0x00855f38       0x64 ../cool_bsp/\libucosii_bsp.a(timeouts.o)
                0x00855f38                intimers
 COMMON         0x00855f9c      0x100 ../cool_bsp/\libucosii_bsp.a(et_arp.o)
                0x00855f9c                arp_table
 COMMON         0x0085609c       0x14 ../cool_bsp/\libucosii_bsp.a(iface.o)
                0x0085609c                netlist
 COMMON         0x008560b0       0x50 ../cool_bsp/\libucosii_bsp.a(ip.o)
                0x008560b0                ip_mib
 COMMON         0x00856100       0x18 ../cool_bsp/\libucosii_bsp.a(ip_reasm.o)
                0x00856100                ire_stats
 COMMON         0x00856118       0x10 ../cool_bsp/\libucosii_bsp.a(udp.o)
                0x00856118                udp_mib
 COMMON         0x00856128       0x68 ../cool_bsp/\libucosii_bsp.a(icmp.o)
                0x00856128                icmp_mib
 COMMON         0x00856190      0x190 c:/altera/13.0/nios2eds/bin/gnu/h-i686-mingw32/bin/../lib/gcc/nios2-elf/4.1.2/../../../../nios2-elf/lib/mno-hw-mul\libc.a(lib_a-atexit.o)
                0x00856190                _atexit0
                0x00856320                . = ALIGN (0x4)
                0x00856320                __bss_end = ABSOLUTE (.)

.sdram_0        0x00856320        0x0
                0x00856320                PROVIDE (_alt_partition_sdram_0_start, ABSOLUTE (.))
 *(.sdram_0. sdram_0.*)
                0x00856320                . = ALIGN (0x4)
                0x00856320                PROVIDE (_alt_partition_sdram_0_end, ABSOLUTE (.))
                0x00856320                _end = ABSOLUTE (.)
                0x00856320                end = ABSOLUTE (.)
                0x00856320                __alt_stack_base = ABSOLUTE (.)
                0x00856320                PROVIDE (_alt_partition_sdram_0_load_addr, LOADADDR (.sdram_0))

.cfi_flash_0    0x01400020        0x0
                0x01400020                PROVIDE (_alt_partition_cfi_flash_0_start, ABSOLUTE (.))
 *(.cfi_flash_0. cfi_flash_0.*)
                0x01400020                . = ALIGN (0x4)
                0x01400020                PROVIDE (_alt_partition_cfi_flash_0_end, ABSOLUTE (.))
                0x01400020                PROVIDE (_alt_partition_cfi_flash_0_load_addr, LOADADDR (.cfi_flash_0))

.sram_0         0x01800000        0x0
                0x01800000                PROVIDE (_alt_partition_sram_0_start, ABSOLUTE (.))
 *(.sram_0. sram_0.*)
                0x01800000                . = ALIGN (0x4)
                0x01800000                PROVIDE (_alt_partition_sram_0_end, ABSOLUTE (.))
                0x01800000                PROVIDE (_alt_partition_sram_0_load_addr, LOADADDR (.sram_0))

.epcs_controller
                0x01881000        0x0
                0x01881000                PROVIDE (_alt_partition_epcs_controller_start, ABSOLUTE (.))
 *(.epcs_controller. epcs_controller.*)
                0x01881000                . = ALIGN (0x4)
                0x01881000                PROVIDE (_alt_partition_epcs_controller_end, ABSOLUTE (.))
                0x01881000                PROVIDE (_alt_partition_epcs_controller_load_addr, LOADADDR (.epcs_controller))

.stab
 *(.stab)

.stabstr
 *(.stabstr)

.stab.excl
 *(.stab.excl)

.stab.exclstr
 *(.stab.exclstr)

.stab.index
 *(.stab.index)

.stab.indexstr
 *(.stab.indexstr)

.comment        0x00000000       0x23
 *(.comment)
 .comment       0x00000000       0x23 obj/default/SSS_DE2_115.o
                                 0x24 (size before relaxing)
 .comment       0x00000000       0x24 obj/default/alt_error_handler.o
 .comment       0x00000000       0x24 obj/default/dm9000a.o
 .comment       0x00000000       0x24 obj/default/iniche_init.o
 .comment       0x00000000       0x24 obj/default/led.o
 .comment       0x00000000       0x24 obj/default/network_utilities.o
 .comment       0x00000000       0x24 obj/default/simple_socket_server.o
 .comment       0x00000000       0x24 obj/default/tse_my_system.o
 .comment       0x00000000       0x24 c:/altera/13.0/nios2eds/bin/gnu/h-i686-mingw32/bin/../lib/gcc/nios2-elf/4.1.2/mno-hw-mul\libgcc.a(_fixunsdfsi.o)
 .comment       0x00000000       0x24 c:/altera/13.0/nios2eds/bin/gnu/h-i686-mingw32/bin/../lib/gcc/nios2-elf/4.1.2/mno-hw-mul\libgcc.a(_addsub_df.o)
 .comment       0x00000000       0x24 c:/altera/13.0/nios2eds/bin/gnu/h-i686-mingw32/bin/../lib/gcc/nios2-elf/4.1.2/mno-hw-mul\libgcc.a(_mul_df.o)
 .comment       0x00000000       0x24 c:/altera/13.0/nios2eds/bin/gnu/h-i686-mingw32/bin/../lib/gcc/nios2-elf/4.1.2/mno-hw-mul\libgcc.a(_ge_df.o)
 .comment       0x00000000       0x24 c:/altera/13.0/nios2eds/bin/gnu/h-i686-mingw32/bin/../lib/gcc/nios2-elf/4.1.2/mno-hw-mul\libgcc.a(_df_to_si.o)
 .comment       0x00000000       0x24 c:/altera/13.0/nios2eds/bin/gnu/h-i686-mingw32/bin/../lib/gcc/nios2-elf/4.1.2/mno-hw-mul\libgcc.a(_thenan_df.o)
 .comment       0x00000000       0x24 c:/altera/13.0/nios2eds/bin/gnu/h-i686-mingw32/bin/../lib/gcc/nios2-elf/4.1.2/mno-hw-mul\libgcc.a(_usi_to_df.o)
 .comment       0x00000000       0x24 c:/altera/13.0/nios2eds/bin/gnu/h-i686-mingw32/bin/../lib/gcc/nios2-elf/4.1.2/mno-hw-mul\libgcc.a(lib2-mul.o)
 .comment       0x00000000       0x24 c:/altera/13.0/nios2eds/bin/gnu/h-i686-mingw32/bin/../lib/gcc/nios2-elf/4.1.2/mno-hw-mul\libgcc.a(_muldi3.o)
 .comment       0x00000000       0x24 c:/altera/13.0/nios2eds/bin/gnu/h-i686-mingw32/bin/../lib/gcc/nios2-elf/4.1.2/mno-hw-mul\libgcc.a(_clzsi2.o)
 .comment       0x00000000       0x24 c:/altera/13.0/nios2eds/bin/gnu/h-i686-mingw32/bin/../lib/gcc/nios2-elf/4.1.2/mno-hw-mul\libgcc.a(_pack_df.o)
 .comment       0x00000000       0x24 c:/altera/13.0/nios2eds/bin/gnu/h-i686-mingw32/bin/../lib/gcc/nios2-elf/4.1.2/mno-hw-mul\libgcc.a(_unpack_df.o)
 .comment       0x00000000       0x24 c:/altera/13.0/nios2eds/bin/gnu/h-i686-mingw32/bin/../lib/gcc/nios2-elf/4.1.2/mno-hw-mul\libgcc.a(_fpcmp_parts_df.o)
 .comment       0x00000000       0x24 c:/altera/13.0/nios2eds/bin/gnu/h-i686-mingw32/bin/../lib/gcc/nios2-elf/4.1.2/mno-hw-mul\libgcc.a(_clz.o)
 .comment       0x00000000       0x24 c:/altera/13.0/nios2eds/bin/gnu/h-i686-mingw32/bin/../lib/gcc/nios2-elf/4.1.2/../../../../nios2-elf/lib/mno-hw-mul\libc.a(lib_a-ctype_.o)
 .comment       0x00000000       0x24 c:/altera/13.0/nios2eds/bin/gnu/h-i686-mingw32/bin/../lib/gcc/nios2-elf/4.1.2/../../../../nios2-elf/lib/mno-hw-mul\libc.a(lib_a-exit.o)
 .comment       0x00000000       0x24 c:/altera/13.0/nios2eds/bin/gnu/h-i686-mingw32/bin/../lib/gcc/nios2-elf/4.1.2/../../../../nios2-elf/lib/mno-hw-mul\libc.a(lib_a-fprintf.o)
 .comment       0x00000000       0x24 c:/altera/13.0/nios2eds/bin/gnu/h-i686-mingw32/bin/../lib/gcc/nios2-elf/4.1.2/../../../../nios2-elf/lib/mno-hw-mul\libc.a(lib_a-fwrite.o)
 .comment       0x00000000       0x24 c:/altera/13.0/nios2eds/bin/gnu/h-i686-mingw32/bin/../lib/gcc/nios2-elf/4.1.2/../../../../nios2-elf/lib/mno-hw-mul\libc.a(lib_a-getc.o)
 .comment       0x00000000       0x24 c:/altera/13.0/nios2eds/bin/gnu/h-i686-mingw32/bin/../lib/gcc/nios2-elf/4.1.2/../../../../nios2-elf/lib/mno-hw-mul\libc.a(lib_a-impure.o)
 .comment       0x00000000       0x24 c:/altera/13.0/nios2eds/bin/gnu/h-i686-mingw32/bin/../lib/gcc/nios2-elf/4.1.2/../../../../nios2-elf/lib/mno-hw-mul\libc.a(lib_a-memcpy.o)
 .comment       0x00000000       0x24 c:/altera/13.0/nios2eds/bin/gnu/h-i686-mingw32/bin/../lib/gcc/nios2-elf/4.1.2/../../../../nios2-elf/lib/mno-hw-mul\libc.a(lib_a-memmove.o)
 .comment       0x00000000       0x24 c:/altera/13.0/nios2eds/bin/gnu/h-i686-mingw32/bin/../lib/gcc/nios2-elf/4.1.2/../../../../nios2-elf/lib/mno-hw-mul\libc.a(lib_a-memset.o)
 .comment       0x00000000       0x24 c:/altera/13.0/nios2eds/bin/gnu/h-i686-mingw32/bin/../lib/gcc/nios2-elf/4.1.2/../../../../nios2-elf/lib/mno-hw-mul\libc.a(lib_a-perror.o)
 .comment       0x00000000       0x24 c:/altera/13.0/nios2eds/bin/gnu/h-i686-mingw32/bin/../lib/gcc/nios2-elf/4.1.2/../../../../nios2-elf/lib/mno-hw-mul\libc.a(lib_a-printf.o)
 .comment       0x00000000       0x24 c:/altera/13.0/nios2eds/bin/gnu/h-i686-mingw32/bin/../lib/gcc/nios2-elf/4.1.2/../../../../nios2-elf/lib/mno-hw-mul\libc.a(lib_a-putc.o)
 .comment       0x00000000       0x24 c:/altera/13.0/nios2eds/bin/gnu/h-i686-mingw32/bin/../lib/gcc/nios2-elf/4.1.2/../../../../nios2-elf/lib/mno-hw-mul\libc.a(lib_a-putchar.o)
 .comment       0x00000000       0x24 c:/altera/13.0/nios2eds/bin/gnu/h-i686-mingw32/bin/../lib/gcc/nios2-elf/4.1.2/../../../../nios2-elf/lib/mno-hw-mul\libc.a(lib_a-puts.o)
 .comment       0x00000000       0x24 c:/altera/13.0/nios2eds/bin/gnu/h-i686-mingw32/bin/../lib/gcc/nios2-elf/4.1.2/../../../../nios2-elf/lib/mno-hw-mul\libc.a(lib_a-rget.o)
 .comment       0x00000000       0x24 c:/altera/13.0/nios2eds/bin/gnu/h-i686-mingw32/bin/../lib/gcc/nios2-elf/4.1.2/../../../../nios2-elf/lib/mno-hw-mul\libc.a(lib_a-strchr.o)
 .comment       0x00000000       0x24 c:/altera/13.0/nios2eds/bin/gnu/h-i686-mingw32/bin/../lib/gcc/nios2-elf/4.1.2/../../../../nios2-elf/lib/mno-hw-mul\libc.a(lib_a-strerror.o)
 .comment       0x00000000       0x24 c:/altera/13.0/nios2eds/bin/gnu/h-i686-mingw32/bin/../lib/gcc/nios2-elf/4.1.2/../../../../nios2-elf/lib/mno-hw-mul\libc.a(lib_a-strlen.o)
 .comment       0x00000000       0x24 c:/altera/13.0/nios2eds/bin/gnu/h-i686-mingw32/bin/../lib/gcc/nios2-elf/4.1.2/../../../../nios2-elf/lib/mno-hw-mul\libc.a(lib_a-u_strerr.o)
 .comment       0x00000000       0x24 c:/altera/13.0/nios2eds/bin/gnu/h-i686-mingw32/bin/../lib/gcc/nios2-elf/4.1.2/../../../../nios2-elf/lib/mno-hw-mul\libc.a(lib_a-vfprintf.o)
 .comment       0x00000000       0x24 c:/altera/13.0/nios2eds/bin/gnu/h-i686-mingw32/bin/../lib/gcc/nios2-elf/4.1.2/../../../../nios2-elf/lib/mno-hw-mul\libc.a(lib_a-wbuf.o)
 .comment       0x00000000       0x24 c:/altera/13.0/nios2eds/bin/gnu/h-i686-mingw32/bin/../lib/gcc/nios2-elf/4.1.2/../../../../nios2-elf/lib/mno-hw-mul\libc.a(lib_a-wsetup.o)
 .comment       0x00000000       0x24 c:/altera/13.0/nios2eds/bin/gnu/h-i686-mingw32/bin/../lib/gcc/nios2-elf/4.1.2/../../../../nios2-elf/lib/mno-hw-mul\libc.a(lib_a-__call_atexit.o)
 .comment       0x00000000       0x24 c:/altera/13.0/nios2eds/bin/gnu/h-i686-mingw32/bin/../lib/gcc/nios2-elf/4.1.2/../../../../nios2-elf/lib/mno-hw-mul\libc.a(lib_a-dtoa.o)
 .comment       0x00000000       0x24 c:/altera/13.0/nios2eds/bin/gnu/h-i686-mingw32/bin/../lib/gcc/nios2-elf/4.1.2/../../../../nios2-elf/lib/mno-hw-mul\libc.a(lib_a-fflush.o)
 .comment       0x00000000       0x24 c:/altera/13.0/nios2eds/bin/gnu/h-i686-mingw32/bin/../lib/gcc/nios2-elf/4.1.2/../../../../nios2-elf/lib/mno-hw-mul\libc.a(lib_a-findfp.o)
 .comment       0x00000000       0x24 c:/altera/13.0/nios2eds/bin/gnu/h-i686-mingw32/bin/../lib/gcc/nios2-elf/4.1.2/../../../../nios2-elf/lib/mno-hw-mul\libc.a(lib_a-fputc.o)
 .comment       0x00000000       0x24 c:/altera/13.0/nios2eds/bin/gnu/h-i686-mingw32/bin/../lib/gcc/nios2-elf/4.1.2/../../../../nios2-elf/lib/mno-hw-mul\libc.a(lib_a-fputs.o)
 .comment       0x00000000       0x24 c:/altera/13.0/nios2eds/bin/gnu/h-i686-mingw32/bin/../lib/gcc/nios2-elf/4.1.2/../../../../nios2-elf/lib/mno-hw-mul\libc.a(lib_a-freer.o)
 .comment       0x00000000       0x24 c:/altera/13.0/nios2eds/bin/gnu/h-i686-mingw32/bin/../lib/gcc/nios2-elf/4.1.2/../../../../nios2-elf/lib/mno-hw-mul\libc.a(lib_a-fvwrite.o)
 .comment       0x00000000       0x24 c:/altera/13.0/nios2eds/bin/gnu/h-i686-mingw32/bin/../lib/gcc/nios2-elf/4.1.2/../../../../nios2-elf/lib/mno-hw-mul\libc.a(lib_a-fwalk.o)
 .comment       0x00000000       0x24 c:/altera/13.0/nios2eds/bin/gnu/h-i686-mingw32/bin/../lib/gcc/nios2-elf/4.1.2/../../../../nios2-elf/lib/mno-hw-mul\libc.a(lib_a-locale.o)
 .comment       0x00000000       0x24 c:/altera/13.0/nios2eds/bin/gnu/h-i686-mingw32/bin/../lib/gcc/nios2-elf/4.1.2/../../../../nios2-elf/lib/mno-hw-mul\libc.a(lib_a-makebuf.o)
 .comment       0x00000000       0x24 c:/altera/13.0/nios2eds/bin/gnu/h-i686-mingw32/bin/../lib/gcc/nios2-elf/4.1.2/../../../../nios2-elf/lib/mno-hw-mul\libc.a(lib_a-mallocr.o)
 .comment       0x00000000       0x24 c:/altera/13.0/nios2eds/bin/gnu/h-i686-mingw32/bin/../lib/gcc/nios2-elf/4.1.2/../../../../nios2-elf/lib/mno-hw-mul\libc.a(lib_a-memchr.o)
 .comment       0x00000000       0x24 c:/altera/13.0/nios2eds/bin/gnu/h-i686-mingw32/bin/../lib/gcc/nios2-elf/4.1.2/../../../../nios2-elf/lib/mno-hw-mul\libc.a(lib_a-mprec.o)
 .comment       0x00000000       0x24 c:/altera/13.0/nios2eds/bin/gnu/h-i686-mingw32/bin/../lib/gcc/nios2-elf/4.1.2/../../../../nios2-elf/lib/mno-hw-mul\libc.a(lib_a-reallocr.o)
 .comment       0x00000000       0x24 c:/altera/13.0/nios2eds/bin/gnu/h-i686-mingw32/bin/../lib/gcc/nios2-elf/4.1.2/../../../../nios2-elf/lib/mno-hw-mul\libc.a(lib_a-refill.o)
 .comment       0x00000000       0x24 c:/altera/13.0/nios2eds/bin/gnu/h-i686-mingw32/bin/../lib/gcc/nios2-elf/4.1.2/../../../../nios2-elf/lib/mno-hw-mul\libc.a(lib_a-s_isinfd.o)
 .comment       0x00000000       0x24 c:/altera/13.0/nios2eds/bin/gnu/h-i686-mingw32/bin/../lib/gcc/nios2-elf/4.1.2/../../../../nios2-elf/lib/mno-hw-mul\libc.a(lib_a-s_isnand.o)
 .comment       0x00000000       0x24 c:/altera/13.0/nios2eds/bin/gnu/h-i686-mingw32/bin/../lib/gcc/nios2-elf/4.1.2/../../../../nios2-elf/lib/mno-hw-mul\libc.a(lib_a-sbrkr.o)
 .comment       0x00000000       0x24 c:/altera/13.0/nios2eds/bin/gnu/h-i686-mingw32/bin/../lib/gcc/nios2-elf/4.1.2/../../../../nios2-elf/lib/mno-hw-mul\libc.a(lib_a-stdio.o)
 .comment       0x00000000       0x24 c:/altera/13.0/nios2eds/bin/gnu/h-i686-mingw32/bin/../lib/gcc/nios2-elf/4.1.2/../../../../nios2-elf/lib/mno-hw-mul\libc.a(lib_a-strcmp.o)
 .comment       0x00000000       0x24 c:/altera/13.0/nios2eds/bin/gnu/h-i686-mingw32/bin/../lib/gcc/nios2-elf/4.1.2/../../../../nios2-elf/lib/mno-hw-mul\libc.a(lib_a-writer.o)
 .comment       0x00000000       0x24 c:/altera/13.0/nios2eds/bin/gnu/h-i686-mingw32/bin/../lib/gcc/nios2-elf/4.1.2/../../../../nios2-elf/lib/mno-hw-mul\libc.a(lib_a-callocr.o)
 .comment       0x00000000       0x24 c:/altera/13.0/nios2eds/bin/gnu/h-i686-mingw32/bin/../lib/gcc/nios2-elf/4.1.2/../../../../nios2-elf/lib/mno-hw-mul\libc.a(lib_a-closer.o)
 .comment       0x00000000       0x24 c:/altera/13.0/nios2eds/bin/gnu/h-i686-mingw32/bin/../lib/gcc/nios2-elf/4.1.2/../../../../nios2-elf/lib/mno-hw-mul\libc.a(lib_a-fclose.o)
 .comment       0x00000000       0x24 c:/altera/13.0/nios2eds/bin/gnu/h-i686-mingw32/bin/../lib/gcc/nios2-elf/4.1.2/../../../../nios2-elf/lib/mno-hw-mul\libc.a(lib_a-fstatr.o)
 .comment       0x00000000       0x24 c:/altera/13.0/nios2eds/bin/gnu/h-i686-mingw32/bin/../lib/gcc/nios2-elf/4.1.2/../../../../nios2-elf/lib/mno-hw-mul\libc.a(lib_a-int_errno.o)
 .comment       0x00000000       0x24 c:/altera/13.0/nios2eds/bin/gnu/h-i686-mingw32/bin/../lib/gcc/nios2-elf/4.1.2/../../../../nios2-elf/lib/mno-hw-mul\libc.a(lib_a-isattyr.o)
 .comment       0x00000000       0x24 c:/altera/13.0/nios2eds/bin/gnu/h-i686-mingw32/bin/../lib/gcc/nios2-elf/4.1.2/../../../../nios2-elf/lib/mno-hw-mul\libc.a(lib_a-lseekr.o)
 .comment       0x00000000       0x24 c:/altera/13.0/nios2eds/bin/gnu/h-i686-mingw32/bin/../lib/gcc/nios2-elf/4.1.2/../../../../nios2-elf/lib/mno-hw-mul\libc.a(lib_a-readr.o)
 .comment       0x00000000       0x24 c:/altera/13.0/nios2eds/bin/gnu/h-i686-mingw32/bin/../lib/gcc/nios2-elf/4.1.2/mno-hw-mul\libgcc.a(_udivdi3.o)
 .comment       0x00000000       0x24 c:/altera/13.0/nios2eds/bin/gnu/h-i686-mingw32/bin/../lib/gcc/nios2-elf/4.1.2/mno-hw-mul\libgcc.a(_umoddi3.o)
 .comment       0x00000000       0x24 c:/altera/13.0/nios2eds/bin/gnu/h-i686-mingw32/bin/../lib/gcc/nios2-elf/4.1.2/mno-hw-mul\libgcc.a(_div_df.o)
 .comment       0x00000000       0x24 c:/altera/13.0/nios2eds/bin/gnu/h-i686-mingw32/bin/../lib/gcc/nios2-elf/4.1.2/mno-hw-mul\libgcc.a(_eq_df.o)
 .comment       0x00000000       0x24 c:/altera/13.0/nios2eds/bin/gnu/h-i686-mingw32/bin/../lib/gcc/nios2-elf/4.1.2/mno-hw-mul\libgcc.a(_ne_df.o)
 .comment       0x00000000       0x24 c:/altera/13.0/nios2eds/bin/gnu/h-i686-mingw32/bin/../lib/gcc/nios2-elf/4.1.2/mno-hw-mul\libgcc.a(_gt_df.o)
 .comment       0x00000000       0x24 c:/altera/13.0/nios2eds/bin/gnu/h-i686-mingw32/bin/../lib/gcc/nios2-elf/4.1.2/mno-hw-mul\libgcc.a(_lt_df.o)
 .comment       0x00000000       0x24 c:/altera/13.0/nios2eds/bin/gnu/h-i686-mingw32/bin/../lib/gcc/nios2-elf/4.1.2/mno-hw-mul\libgcc.a(_si_to_df.o)
 .comment       0x00000000       0x24 c:/altera/13.0/nios2eds/bin/gnu/h-i686-mingw32/bin/../lib/gcc/nios2-elf/4.1.2/mno-hw-mul\libgcc.a(lib2-divmod.o)
 .comment       0x00000000       0x24 ../cool_bsp/\libucosii_bsp.a(alt_exit.o)
 .comment       0x00000000       0x24 ../cool_bsp/\libucosii_bsp.a(alt_flash_dev.o)
 .comment       0x00000000       0x24 ../cool_bsp/\libucosii_bsp.a(alt_fstat.o)
 .comment       0x00000000       0x24 ../cool_bsp/\libucosii_bsp.a(alt_irq_register.o)
 .comment       0x00000000       0x24 ../cool_bsp/\libucosii_bsp.a(alt_irq_vars.o)
 .comment       0x00000000       0x24 ../cool_bsp/\libucosii_bsp.a(alt_isatty.o)
 .comment       0x00000000       0x24 ../cool_bsp/\libucosii_bsp.a(alt_lseek.o)
 .comment       0x00000000       0x24 ../cool_bsp/\libucosii_bsp.a(alt_main.o)
 .comment       0x00000000       0x24 ../cool_bsp/\libucosii_bsp.a(alt_sbrk.o)
 .comment       0x00000000       0x24 ../cool_bsp/\libucosii_bsp.a(alt_usleep.o)
 .comment       0x00000000       0x24 ../cool_bsp/\libucosii_bsp.a(alt_env_lock.o)
 .comment       0x00000000       0x24 ../cool_bsp/\libucosii_bsp.a(alt_malloc_lock.o)
 .comment       0x00000000       0x24 ../cool_bsp/\libucosii_bsp.a(os_core.o)
 .comment       0x00000000       0x24 ../cool_bsp/\libucosii_bsp.a(os_dbg.o)
 .comment       0x00000000       0x24 ../cool_bsp/\libucosii_bsp.a(os_flag.o)
 .comment       0x00000000       0x24 ../cool_bsp/\libucosii_bsp.a(os_mem.o)
 .comment       0x00000000       0x24 ../cool_bsp/\libucosii_bsp.a(os_q.o)
 .comment       0x00000000       0x24 ../cool_bsp/\libucosii_bsp.a(os_sem.o)
 .comment       0x00000000       0x24 ../cool_bsp/\libucosii_bsp.a(os_task.o)
 .comment       0x00000000       0x24 ../cool_bsp/\libucosii_bsp.a(os_time.o)
 .comment       0x00000000       0x24 ../cool_bsp/\libucosii_bsp.a(alt_sys_init.o)
 .comment       0x00000000       0x24 ../cool_bsp/\libucosii_bsp.a(altera_avalon_cfi_flash.o)
 .comment       0x00000000       0x24 ../cool_bsp/\libucosii_bsp.a(altera_avalon_cfi_flash_table.o)
 .comment       0x00000000       0x24 ../cool_bsp/\libucosii_bsp.a(altera_avalon_epcs_flash_controller.o)
 .comment       0x00000000       0x24 ../cool_bsp/\libucosii_bsp.a(altera_avalon_jtag_uart_fd.o)
 .comment       0x00000000       0x24 ../cool_bsp/\libucosii_bsp.a(altera_avalon_jtag_uart_init.o)
 .comment       0x00000000       0x24 ../cool_bsp/\libucosii_bsp.a(altera_avalon_jtag_uart_ioctl.o)
 .comment       0x00000000       0x24 ../cool_bsp/\libucosii_bsp.a(altera_avalon_jtag_uart_read.o)
 .comment       0x00000000       0x24 ../cool_bsp/\libucosii_bsp.a(altera_avalon_jtag_uart_write.o)
 .comment       0x00000000       0x24 ../cool_bsp/\libucosii_bsp.a(altera_avalon_timer_sc.o)
 .comment       0x00000000       0x24 ../cool_bsp/\libucosii_bsp.a(epcs_commands.o)
 .comment       0x00000000       0x24 ../cool_bsp/\libucosii_bsp.a(alt_iniche_close.o)
 .comment       0x00000000       0x24 ../cool_bsp/\libucosii_bsp.a(alt_iniche_dev.o)
 .comment       0x00000000       0x24 ../cool_bsp/\libucosii_bsp.a(alt_iniche_read.o)
 .comment       0x00000000       0x24 ../cool_bsp/\libucosii_bsp.a(alt_iniche_write.o)
 .comment       0x00000000       0x24 ../cool_bsp/\libucosii_bsp.a(ipnet.o)
 .comment       0x00000000       0x24 ../cool_bsp/\libucosii_bsp.a(ipstart.o)
 .comment       0x00000000       0x24 ../cool_bsp/\libucosii_bsp.a(igmp_cmn.o)
 .comment       0x00000000       0x24 ../cool_bsp/\libucosii_bsp.a(bsdsock.o)
 .comment       0x00000000       0x24 ../cool_bsp/\libucosii_bsp.a(cksum.o)
 .comment       0x00000000       0x24 ../cool_bsp/\libucosii_bsp.a(in_utils.o)
 .comment       0x00000000       0x24 ../cool_bsp/\libucosii_bsp.a(netmain.o)
 .comment       0x00000000       0x24 ../cool_bsp/\libucosii_bsp.a(parseip.o)
 .comment       0x00000000       0x24 ../cool_bsp/\libucosii_bsp.a(tk_crnos.o)
 .comment       0x00000000       0x24 ../cool_bsp/\libucosii_bsp.a(dhcpclnt.o)
 .comment       0x00000000       0x24 ../cool_bsp/\libucosii_bsp.a(dhcputil.o)
 .comment       0x00000000       0x24 ../cool_bsp/\libucosii_bsp.a(pktalloc.o)
 .comment       0x00000000       0x24 ../cool_bsp/\libucosii_bsp.a(q.o)
 .comment       0x00000000       0x24 ../cool_bsp/\libucosii_bsp.a(udp_open.o)
 .comment       0x00000000       0x24 ../cool_bsp/\libucosii_bsp.a(brdutils.o)
 .comment       0x00000000       0x24 ../cool_bsp/\libucosii_bsp.a(osportco.o)
 .comment       0x00000000       0x24 ../cool_bsp/\libucosii_bsp.a(targnios.o)
 .comment       0x00000000       0x24 ../cool_bsp/\libucosii_bsp.a(nptcp.o)
 .comment       0x00000000       0x24 ../cool_bsp/\libucosii_bsp.a(rawsock.o)
 .comment       0x00000000       0x24 ../cool_bsp/\libucosii_bsp.a(sockcall.o)
 .comment       0x00000000       0x24 ../cool_bsp/\libucosii_bsp.a(socket.o)
 .comment       0x00000000       0x24 ../cool_bsp/\libucosii_bsp.a(socket2.o)
 .comment       0x00000000       0x24 ../cool_bsp/\libucosii_bsp.a(soselect.o)
 .comment       0x00000000       0x24 ../cool_bsp/\libucosii_bsp.a(tcp_in.o)
 .comment       0x00000000       0x24 ../cool_bsp/\libucosii_bsp.a(tcp_out.o)
 .comment       0x00000000       0x24 ../cool_bsp/\libucosii_bsp.a(tcp_subr.o)
 .comment       0x00000000       0x24 ../cool_bsp/\libucosii_bsp.a(tcp_timr.o)
 .comment       0x00000000       0x24 ../cool_bsp/\libucosii_bsp.a(tcp_usr.o)
 .comment       0x00000000       0x24 ../cool_bsp/\libucosii_bsp.a(tcpport.o)
 .comment       0x00000000       0x24 ../cool_bsp/\libucosii_bsp.a(udpsock.o)
 .comment       0x00000000       0x24 ../cool_bsp/\libucosii_bsp.a(alt_alarm_start.o)
 .comment       0x00000000       0x24 ../cool_bsp/\libucosii_bsp.a(alt_busy_sleep.o)
 .comment       0x00000000       0x24 ../cool_bsp/\libucosii_bsp.a(alt_close.o)
 .comment       0x00000000       0x24 ../cool_bsp/\libucosii_bsp.a(alt_dcache_flush.o)
 .comment       0x00000000       0x24 ../cool_bsp/\libucosii_bsp.a(alt_dev.o)
 .comment       0x00000000       0x24 ../cool_bsp/\libucosii_bsp.a(alt_dev_llist_insert.o)
 .comment       0x00000000       0x24 ../cool_bsp/\libucosii_bsp.a(alt_do_ctors.o)
 .comment       0x00000000       0x24 ../cool_bsp/\libucosii_bsp.a(alt_do_dtors.o)
 .comment       0x00000000       0x24 ../cool_bsp/\libucosii_bsp.a(alt_errno.o)
 .comment       0x00000000       0x24 ../cool_bsp/\libucosii_bsp.a(alt_find_dev.o)
 .comment       0x00000000       0x24 ../cool_bsp/\libucosii_bsp.a(alt_iic.o)
 .comment       0x00000000       0x24 ../cool_bsp/\libucosii_bsp.a(alt_iic_isr_register.o)
 .comment       0x00000000       0x24 ../cool_bsp/\libucosii_bsp.a(alt_io_redirect.o)
 .comment       0x00000000       0x24 ../cool_bsp/\libucosii_bsp.a(alt_irq_handler.o)
 .comment       0x00000000       0x24 ../cool_bsp/\libucosii_bsp.a(alt_open.o)
 .comment       0x00000000       0x24 ../cool_bsp/\libucosii_bsp.a(alt_read.o)
 .comment       0x00000000       0x24 ../cool_bsp/\libucosii_bsp.a(alt_release_fd.o)
 .comment       0x00000000       0x24 ../cool_bsp/\libucosii_bsp.a(alt_remap_cached.o)
 .comment       0x00000000       0x24 ../cool_bsp/\libucosii_bsp.a(alt_remap_uncached.o)
 .comment       0x00000000       0x24 ../cool_bsp/\libucosii_bsp.a(alt_tick.o)
 .comment       0x00000000       0x24 ../cool_bsp/\libucosii_bsp.a(alt_write.o)
 .comment       0x00000000       0x24 ../cool_bsp/\libucosii_bsp.a(altera_nios2_qsys_irq.o)
 .comment       0x00000000       0x24 ../cool_bsp/\libucosii_bsp.a(os_cpu_c.o)
 .comment       0x00000000       0x24 ../cool_bsp/\libucosii_bsp.a(altera_avalon_cfi_flash_amd.o)
 .comment       0x00000000       0x24 ../cool_bsp/\libucosii_bsp.a(altera_avalon_cfi_flash_intel.o)
 .comment       0x00000000       0x24 ../cool_bsp/\libucosii_bsp.a(altera_avalon_spi.o)
 .comment       0x00000000       0x24 ../cool_bsp/\libucosii_bsp.a(allports.o)
 .comment       0x00000000       0x24 ../cool_bsp/\libucosii_bsp.a(timeouts.o)
 .comment       0x00000000       0x24 ../cool_bsp/\libucosii_bsp.a(tk_misc.o)
 .comment       0x00000000       0x24 ../cool_bsp/\libucosii_bsp.a(alt_iniche_fcntl.o)
 .comment       0x00000000       0x24 ../cool_bsp/\libucosii_bsp.a(et_arp.o)
 .comment       0x00000000       0x24 ../cool_bsp/\libucosii_bsp.a(iface.o)
 .comment       0x00000000       0x24 ../cool_bsp/\libucosii_bsp.a(ip.o)
 .comment       0x00000000       0x24 ../cool_bsp/\libucosii_bsp.a(ip_reasm.o)
 .comment       0x00000000       0x24 ../cool_bsp/\libucosii_bsp.a(ipdemux.o)
 .comment       0x00000000       0x24 ../cool_bsp/\libucosii_bsp.a(ipmc.o)
 .comment       0x00000000       0x24 ../cool_bsp/\libucosii_bsp.a(ipport.o)
 .comment       0x00000000       0x24 ../cool_bsp/\libucosii_bsp.a(ipraw.o)
 .comment       0x00000000       0x24 ../cool_bsp/\libucosii_bsp.a(iproute.o)
 .comment       0x00000000       0x24 ../cool_bsp/\libucosii_bsp.a(udp.o)
 .comment       0x00000000       0x24 ../cool_bsp/\libucosii_bsp.a(igmp.o)
 .comment       0x00000000       0x24 ../cool_bsp/\libucosii_bsp.a(igmp2.o)
 .comment       0x00000000       0x24 ../cool_bsp/\libucosii_bsp.a(ipopt.o)
 .comment       0x00000000       0x24 ../cool_bsp/\libucosii_bsp.a(u_mctest.o)
 .comment       0x00000000       0x24 ../cool_bsp/\libucosii_bsp.a(dhcsetup.o)
 .comment       0x00000000       0x24 ../cool_bsp/\libucosii_bsp.a(memdev.o)
 .comment       0x00000000       0x24 ../cool_bsp/\libucosii_bsp.a(tcpcksum.o)
 .comment       0x00000000       0x24 ../cool_bsp/\libucosii_bsp.a(in_pcb.o)
 .comment       0x00000000       0x24 ../cool_bsp/\libucosii_bsp.a(vfsfiles.o)
 .comment       0x00000000       0x24 ../cool_bsp/\libucosii_bsp.a(vfsport.o)
 .comment       0x00000000       0x24 ../cool_bsp/\libucosii_bsp.a(alt_fcntl.o)
 .comment       0x00000000       0x24 ../cool_bsp/\libucosii_bsp.a(alt_find_file.o)
 .comment       0x00000000       0x24 ../cool_bsp/\libucosii_bsp.a(alt_get_fd.o)
 .comment       0x00000000       0x24 ../cool_bsp/\libucosii_bsp.a(icmp.o)
 .comment       0x00000000       0x24 c:/altera/13.0/nios2eds/bin/gnu/h-i686-mingw32/bin/../lib/gcc/nios2-elf/4.1.2/../../../../nios2-elf/lib/mno-hw-mul\libc.a(lib_a-atexit.o)
 .comment       0x00000000       0x24 c:/altera/13.0/nios2eds/bin/gnu/h-i686-mingw32/bin/../lib/gcc/nios2-elf/4.1.2/../../../../nios2-elf/lib/mno-hw-mul\libc.a(lib_a-atoi.o)
 .comment       0x00000000       0x24 c:/altera/13.0/nios2eds/bin/gnu/h-i686-mingw32/bin/../lib/gcc/nios2-elf/4.1.2/../../../../nios2-elf/lib/mno-hw-mul\libc.a(lib_a-calloc.o)
 .comment       0x00000000       0x24 c:/altera/13.0/nios2eds/bin/gnu/h-i686-mingw32/bin/../lib/gcc/nios2-elf/4.1.2/../../../../nios2-elf/lib/mno-hw-mul\libc.a(lib_a-malloc.o)
 .comment       0x00000000       0x24 c:/altera/13.0/nios2eds/bin/gnu/h-i686-mingw32/bin/../lib/gcc/nios2-elf/4.1.2/../../../../nios2-elf/lib/mno-hw-mul\libc.a(lib_a-memcmp.o)
 .comment       0x00000000       0x24 c:/altera/13.0/nios2eds/bin/gnu/h-i686-mingw32/bin/../lib/gcc/nios2-elf/4.1.2/../../../../nios2-elf/lib/mno-hw-mul\libc.a(lib_a-sprintf.o)
 .comment       0x00000000       0x24 c:/altera/13.0/nios2eds/bin/gnu/h-i686-mingw32/bin/../lib/gcc/nios2-elf/4.1.2/../../../../nios2-elf/lib/mno-hw-mul\libc.a(lib_a-strcpy.o)
 .comment       0x00000000       0x24 c:/altera/13.0/nios2eds/bin/gnu/h-i686-mingw32/bin/../lib/gcc/nios2-elf/4.1.2/../../../../nios2-elf/lib/mno-hw-mul\libc.a(lib_a-strncmp.o)
 .comment       0x00000000       0x24 c:/altera/13.0/nios2eds/bin/gnu/h-i686-mingw32/bin/../lib/gcc/nios2-elf/4.1.2/../../../../nios2-elf/lib/mno-hw-mul\libc.a(lib_a-strncpy.o)
 .comment       0x00000000       0x24 c:/altera/13.0/nios2eds/bin/gnu/h-i686-mingw32/bin/../lib/gcc/nios2-elf/4.1.2/../../../../nios2-elf/lib/mno-hw-mul\libc.a(lib_a-strtol.o)
 .comment       0x00000000       0x24 c:/altera/13.0/nios2eds/bin/gnu/h-i686-mingw32/bin/../lib/gcc/nios2-elf/4.1.2/../../../../nios2-elf/lib/mno-hw-mul\libc.a(lib_a-vprintf.o)
 .comment       0x00000000       0x24 c:/altera/13.0/nios2eds/bin/gnu/h-i686-mingw32/bin/../lib/gcc/nios2-elf/4.1.2/../../../../nios2-elf/lib/mno-hw-mul\libc.a(lib_a-vsprintf.o)
 .comment       0x00000000       0x24 c:/altera/13.0/nios2eds/bin/gnu/h-i686-mingw32/bin/../lib/gcc/nios2-elf/4.1.2/../../../../nios2-elf/lib/mno-hw-mul\libc.a(lib_a-__atexit.o)

.debug
 *(.debug)

.line
 *(.line)

.debug_srcinfo
 *(.debug_srcinfo)

.debug_sfnames
 *(.debug_sfnames)

.debug_aranges  0x00000000     0x1ab0
 *(.debug_aranges)
 .debug_aranges
                0x00000000       0x20 ../cool_bsp//obj/HAL/src/crt0.o
 .debug_aranges
                0x00000020       0x20 obj/default/SSS_DE2_115.o
 .debug_aranges
                0x00000040       0x20 obj/default/alt_error_handler.o
 .debug_aranges
                0x00000060       0x20 obj/default/dm9000a.o
 .debug_aranges
                0x00000080       0x20 obj/default/iniche_init.o
 .debug_aranges
                0x000000a0       0x20 obj/default/led.o
 .debug_aranges
                0x000000c0       0x20 obj/default/network_utilities.o
 .debug_aranges
                0x000000e0       0x20 obj/default/simple_socket_server.o
 .debug_aranges
                0x00000100       0x20 c:/altera/13.0/nios2eds/bin/gnu/h-i686-mingw32/bin/../lib/gcc/nios2-elf/4.1.2/mno-hw-mul\libgcc.a(_fixunsdfsi.o)
 .debug_aranges
                0x00000120       0x20 c:/altera/13.0/nios2eds/bin/gnu/h-i686-mingw32/bin/../lib/gcc/nios2-elf/4.1.2/mno-hw-mul\libgcc.a(_addsub_df.o)
 .debug_aranges
                0x00000140       0x20 c:/altera/13.0/nios2eds/bin/gnu/h-i686-mingw32/bin/../lib/gcc/nios2-elf/4.1.2/mno-hw-mul\libgcc.a(_mul_df.o)
 .debug_aranges
                0x00000160       0x20 c:/altera/13.0/nios2eds/bin/gnu/h-i686-mingw32/bin/../lib/gcc/nios2-elf/4.1.2/mno-hw-mul\libgcc.a(_ge_df.o)
 .debug_aranges
                0x00000180       0x20 c:/altera/13.0/nios2eds/bin/gnu/h-i686-mingw32/bin/../lib/gcc/nios2-elf/4.1.2/mno-hw-mul\libgcc.a(_df_to_si.o)
 .debug_aranges
                0x000001a0       0x20 c:/altera/13.0/nios2eds/bin/gnu/h-i686-mingw32/bin/../lib/gcc/nios2-elf/4.1.2/mno-hw-mul\libgcc.a(_usi_to_df.o)
 .debug_aranges
                0x000001c0       0x20 c:/altera/13.0/nios2eds/bin/gnu/h-i686-mingw32/bin/../lib/gcc/nios2-elf/4.1.2/mno-hw-mul\libgcc.a(lib2-mul.o)
 .debug_aranges
                0x000001e0       0x20 c:/altera/13.0/nios2eds/bin/gnu/h-i686-mingw32/bin/../lib/gcc/nios2-elf/4.1.2/mno-hw-mul\libgcc.a(_muldi3.o)
 .debug_aranges
                0x00000200       0x20 c:/altera/13.0/nios2eds/bin/gnu/h-i686-mingw32/bin/../lib/gcc/nios2-elf/4.1.2/mno-hw-mul\libgcc.a(_clzsi2.o)
 .debug_aranges
                0x00000220       0x20 c:/altera/13.0/nios2eds/bin/gnu/h-i686-mingw32/bin/../lib/gcc/nios2-elf/4.1.2/mno-hw-mul\libgcc.a(_pack_df.o)
 .debug_aranges
                0x00000240       0x20 c:/altera/13.0/nios2eds/bin/gnu/h-i686-mingw32/bin/../lib/gcc/nios2-elf/4.1.2/mno-hw-mul\libgcc.a(_unpack_df.o)
 .debug_aranges
                0x00000260       0x20 c:/altera/13.0/nios2eds/bin/gnu/h-i686-mingw32/bin/../lib/gcc/nios2-elf/4.1.2/mno-hw-mul\libgcc.a(_fpcmp_parts_df.o)
 .debug_aranges
                0x00000280       0x20 c:/altera/13.0/nios2eds/bin/gnu/h-i686-mingw32/bin/../lib/gcc/nios2-elf/4.1.2/../../../../nios2-elf/lib/mno-hw-mul\libc.a(lib_a-exit.o)
 .debug_aranges
                0x000002a0       0x20 c:/altera/13.0/nios2eds/bin/gnu/h-i686-mingw32/bin/../lib/gcc/nios2-elf/4.1.2/../../../../nios2-elf/lib/mno-hw-mul\libc.a(lib_a-fprintf.o)
 .debug_aranges
                0x000002c0       0x20 c:/altera/13.0/nios2eds/bin/gnu/h-i686-mingw32/bin/../lib/gcc/nios2-elf/4.1.2/../../../../nios2-elf/lib/mno-hw-mul\libc.a(lib_a-fwrite.o)
 .debug_aranges
                0x000002e0       0x20 c:/altera/13.0/nios2eds/bin/gnu/h-i686-mingw32/bin/../lib/gcc/nios2-elf/4.1.2/../../../../nios2-elf/lib/mno-hw-mul\libc.a(lib_a-getc.o)
 .debug_aranges
                0x00000300       0x20 c:/altera/13.0/nios2eds/bin/gnu/h-i686-mingw32/bin/../lib/gcc/nios2-elf/4.1.2/../../../../nios2-elf/lib/mno-hw-mul\libc.a(lib_a-memcpy.o)
 .debug_aranges
                0x00000320       0x20 c:/altera/13.0/nios2eds/bin/gnu/h-i686-mingw32/bin/../lib/gcc/nios2-elf/4.1.2/../../../../nios2-elf/lib/mno-hw-mul\libc.a(lib_a-memmove.o)
 .debug_aranges
                0x00000340       0x20 c:/altera/13.0/nios2eds/bin/gnu/h-i686-mingw32/bin/../lib/gcc/nios2-elf/4.1.2/../../../../nios2-elf/lib/mno-hw-mul\libc.a(lib_a-memset.o)
 .debug_aranges
                0x00000360       0x20 c:/altera/13.0/nios2eds/bin/gnu/h-i686-mingw32/bin/../lib/gcc/nios2-elf/4.1.2/../../../../nios2-elf/lib/mno-hw-mul\libc.a(lib_a-perror.o)
 .debug_aranges
                0x00000380       0x20 c:/altera/13.0/nios2eds/bin/gnu/h-i686-mingw32/bin/../lib/gcc/nios2-elf/4.1.2/../../../../nios2-elf/lib/mno-hw-mul\libc.a(lib_a-printf.o)
 .debug_aranges
                0x000003a0       0x20 c:/altera/13.0/nios2eds/bin/gnu/h-i686-mingw32/bin/../lib/gcc/nios2-elf/4.1.2/../../../../nios2-elf/lib/mno-hw-mul\libc.a(lib_a-putc.o)
 .debug_aranges
                0x000003c0       0x20 c:/altera/13.0/nios2eds/bin/gnu/h-i686-mingw32/bin/../lib/gcc/nios2-elf/4.1.2/../../../../nios2-elf/lib/mno-hw-mul\libc.a(lib_a-putchar.o)
 .debug_aranges
                0x000003e0       0x20 c:/altera/13.0/nios2eds/bin/gnu/h-i686-mingw32/bin/../lib/gcc/nios2-elf/4.1.2/../../../../nios2-elf/lib/mno-hw-mul\libc.a(lib_a-puts.o)
 .debug_aranges
                0x00000400       0x20 c:/altera/13.0/nios2eds/bin/gnu/h-i686-mingw32/bin/../lib/gcc/nios2-elf/4.1.2/../../../../nios2-elf/lib/mno-hw-mul\libc.a(lib_a-rget.o)
 .debug_aranges
                0x00000420       0x20 c:/altera/13.0/nios2eds/bin/gnu/h-i686-mingw32/bin/../lib/gcc/nios2-elf/4.1.2/../../../../nios2-elf/lib/mno-hw-mul\libc.a(lib_a-strchr.o)
 .debug_aranges
                0x00000440       0x20 c:/altera/13.0/nios2eds/bin/gnu/h-i686-mingw32/bin/../lib/gcc/nios2-elf/4.1.2/../../../../nios2-elf/lib/mno-hw-mul\libc.a(lib_a-strerror.o)
 .debug_aranges
                0x00000460       0x20 c:/altera/13.0/nios2eds/bin/gnu/h-i686-mingw32/bin/../lib/gcc/nios2-elf/4.1.2/../../../../nios2-elf/lib/mno-hw-mul\libc.a(lib_a-strlen.o)
 .debug_aranges
                0x00000480       0x20 c:/altera/13.0/nios2eds/bin/gnu/h-i686-mingw32/bin/../lib/gcc/nios2-elf/4.1.2/../../../../nios2-elf/lib/mno-hw-mul\libc.a(lib_a-u_strerr.o)
 .debug_aranges
                0x000004a0       0x20 c:/altera/13.0/nios2eds/bin/gnu/h-i686-mingw32/bin/../lib/gcc/nios2-elf/4.1.2/../../../../nios2-elf/lib/mno-hw-mul\libc.a(lib_a-vfprintf.o)
 .debug_aranges
                0x000004c0       0x20 c:/altera/13.0/nios2eds/bin/gnu/h-i686-mingw32/bin/../lib/gcc/nios2-elf/4.1.2/../../../../nios2-elf/lib/mno-hw-mul\libc.a(lib_a-wbuf.o)
 .debug_aranges
                0x000004e0       0x20 c:/altera/13.0/nios2eds/bin/gnu/h-i686-mingw32/bin/../lib/gcc/nios2-elf/4.1.2/../../../../nios2-elf/lib/mno-hw-mul\libc.a(lib_a-wsetup.o)
 .debug_aranges
                0x00000500       0x20 c:/altera/13.0/nios2eds/bin/gnu/h-i686-mingw32/bin/../lib/gcc/nios2-elf/4.1.2/../../../../nios2-elf/lib/mno-hw-mul\libc.a(lib_a-__call_atexit.o)
 .debug_aranges
                0x00000520       0x20 c:/altera/13.0/nios2eds/bin/gnu/h-i686-mingw32/bin/../lib/gcc/nios2-elf/4.1.2/../../../../nios2-elf/lib/mno-hw-mul\libc.a(lib_a-dtoa.o)
 .debug_aranges
                0x00000540       0x20 c:/altera/13.0/nios2eds/bin/gnu/h-i686-mingw32/bin/../lib/gcc/nios2-elf/4.1.2/../../../../nios2-elf/lib/mno-hw-mul\libc.a(lib_a-fflush.o)
 .debug_aranges
                0x00000560       0x20 c:/altera/13.0/nios2eds/bin/gnu/h-i686-mingw32/bin/../lib/gcc/nios2-elf/4.1.2/../../../../nios2-elf/lib/mno-hw-mul\libc.a(lib_a-findfp.o)
 .debug_aranges
                0x00000580       0x20 c:/altera/13.0/nios2eds/bin/gnu/h-i686-mingw32/bin/../lib/gcc/nios2-elf/4.1.2/../../../../nios2-elf/lib/mno-hw-mul\libc.a(lib_a-fputc.o)
 .debug_aranges
                0x000005a0       0x20 c:/altera/13.0/nios2eds/bin/gnu/h-i686-mingw32/bin/../lib/gcc/nios2-elf/4.1.2/../../../../nios2-elf/lib/mno-hw-mul\libc.a(lib_a-fputs.o)
 .debug_aranges
                0x000005c0       0x20 c:/altera/13.0/nios2eds/bin/gnu/h-i686-mingw32/bin/../lib/gcc/nios2-elf/4.1.2/../../../../nios2-elf/lib/mno-hw-mul\libc.a(lib_a-freer.o)
 .debug_aranges
                0x000005e0       0x20 c:/altera/13.0/nios2eds/bin/gnu/h-i686-mingw32/bin/../lib/gcc/nios2-elf/4.1.2/../../../../nios2-elf/lib/mno-hw-mul\libc.a(lib_a-fvwrite.o)
 .debug_aranges
                0x00000600       0x20 c:/altera/13.0/nios2eds/bin/gnu/h-i686-mingw32/bin/../lib/gcc/nios2-elf/4.1.2/../../../../nios2-elf/lib/mno-hw-mul\libc.a(lib_a-fwalk.o)
 .debug_aranges
                0x00000620       0x20 c:/altera/13.0/nios2eds/bin/gnu/h-i686-mingw32/bin/../lib/gcc/nios2-elf/4.1.2/../../../../nios2-elf/lib/mno-hw-mul\libc.a(lib_a-locale.o)
 .debug_aranges
                0x00000640       0x20 c:/altera/13.0/nios2eds/bin/gnu/h-i686-mingw32/bin/../lib/gcc/nios2-elf/4.1.2/../../../../nios2-elf/lib/mno-hw-mul\libc.a(lib_a-makebuf.o)
 .debug_aranges
                0x00000660       0x20 c:/altera/13.0/nios2eds/bin/gnu/h-i686-mingw32/bin/../lib/gcc/nios2-elf/4.1.2/../../../../nios2-elf/lib/mno-hw-mul\libc.a(lib_a-mallocr.o)
 .debug_aranges
                0x00000680       0x20 c:/altera/13.0/nios2eds/bin/gnu/h-i686-mingw32/bin/../lib/gcc/nios2-elf/4.1.2/../../../../nios2-elf/lib/mno-hw-mul\libc.a(lib_a-memchr.o)
 .debug_aranges
                0x000006a0       0x20 c:/altera/13.0/nios2eds/bin/gnu/h-i686-mingw32/bin/../lib/gcc/nios2-elf/4.1.2/../../../../nios2-elf/lib/mno-hw-mul\libc.a(lib_a-mprec.o)
 .debug_aranges
                0x000006c0       0x20 c:/altera/13.0/nios2eds/bin/gnu/h-i686-mingw32/bin/../lib/gcc/nios2-elf/4.1.2/../../../../nios2-elf/lib/mno-hw-mul\libc.a(lib_a-reallocr.o)
 .debug_aranges
                0x000006e0       0x20 c:/altera/13.0/nios2eds/bin/gnu/h-i686-mingw32/bin/../lib/gcc/nios2-elf/4.1.2/../../../../nios2-elf/lib/mno-hw-mul\libc.a(lib_a-refill.o)
 .debug_aranges
                0x00000700       0x20 c:/altera/13.0/nios2eds/bin/gnu/h-i686-mingw32/bin/../lib/gcc/nios2-elf/4.1.2/../../../../nios2-elf/lib/mno-hw-mul\libc.a(lib_a-s_isinfd.o)
 .debug_aranges
                0x00000720       0x20 c:/altera/13.0/nios2eds/bin/gnu/h-i686-mingw32/bin/../lib/gcc/nios2-elf/4.1.2/../../../../nios2-elf/lib/mno-hw-mul\libc.a(lib_a-s_isnand.o)
 .debug_aranges
                0x00000740       0x20 c:/altera/13.0/nios2eds/bin/gnu/h-i686-mingw32/bin/../lib/gcc/nios2-elf/4.1.2/../../../../nios2-elf/lib/mno-hw-mul\libc.a(lib_a-sbrkr.o)
 .debug_aranges
                0x00000760       0x20 c:/altera/13.0/nios2eds/bin/gnu/h-i686-mingw32/bin/../lib/gcc/nios2-elf/4.1.2/../../../../nios2-elf/lib/mno-hw-mul\libc.a(lib_a-stdio.o)
 .debug_aranges
                0x00000780       0x20 c:/altera/13.0/nios2eds/bin/gnu/h-i686-mingw32/bin/../lib/gcc/nios2-elf/4.1.2/../../../../nios2-elf/lib/mno-hw-mul\libc.a(lib_a-strcmp.o)
 .debug_aranges
                0x000007a0       0x20 c:/altera/13.0/nios2eds/bin/gnu/h-i686-mingw32/bin/../lib/gcc/nios2-elf/4.1.2/../../../../nios2-elf/lib/mno-hw-mul\libc.a(lib_a-writer.o)
 .debug_aranges
                0x000007c0       0x20 c:/altera/13.0/nios2eds/bin/gnu/h-i686-mingw32/bin/../lib/gcc/nios2-elf/4.1.2/../../../../nios2-elf/lib/mno-hw-mul\libc.a(lib_a-callocr.o)
 .debug_aranges
                0x000007e0       0x20 c:/altera/13.0/nios2eds/bin/gnu/h-i686-mingw32/bin/../lib/gcc/nios2-elf/4.1.2/../../../../nios2-elf/lib/mno-hw-mul\libc.a(lib_a-closer.o)
 .debug_aranges
                0x00000800       0x20 c:/altera/13.0/nios2eds/bin/gnu/h-i686-mingw32/bin/../lib/gcc/nios2-elf/4.1.2/../../../../nios2-elf/lib/mno-hw-mul\libc.a(lib_a-fclose.o)
 .debug_aranges
                0x00000820       0x20 c:/altera/13.0/nios2eds/bin/gnu/h-i686-mingw32/bin/../lib/gcc/nios2-elf/4.1.2/../../../../nios2-elf/lib/mno-hw-mul\libc.a(lib_a-fstatr.o)
 .debug_aranges
                0x00000840       0x20 c:/altera/13.0/nios2eds/bin/gnu/h-i686-mingw32/bin/../lib/gcc/nios2-elf/4.1.2/../../../../nios2-elf/lib/mno-hw-mul\libc.a(lib_a-isattyr.o)
 .debug_aranges
                0x00000860       0x20 c:/altera/13.0/nios2eds/bin/gnu/h-i686-mingw32/bin/../lib/gcc/nios2-elf/4.1.2/../../../../nios2-elf/lib/mno-hw-mul\libc.a(lib_a-lseekr.o)
 .debug_aranges
                0x00000880       0x20 c:/altera/13.0/nios2eds/bin/gnu/h-i686-mingw32/bin/../lib/gcc/nios2-elf/4.1.2/../../../../nios2-elf/lib/mno-hw-mul\libc.a(lib_a-readr.o)
 .debug_aranges
                0x000008a0       0x20 c:/altera/13.0/nios2eds/bin/gnu/h-i686-mingw32/bin/../lib/gcc/nios2-elf/4.1.2/mno-hw-mul\libgcc.a(_udivdi3.o)
 .debug_aranges
                0x000008c0       0x20 c:/altera/13.0/nios2eds/bin/gnu/h-i686-mingw32/bin/../lib/gcc/nios2-elf/4.1.2/mno-hw-mul\libgcc.a(_umoddi3.o)
 .debug_aranges
                0x000008e0       0x20 c:/altera/13.0/nios2eds/bin/gnu/h-i686-mingw32/bin/../lib/gcc/nios2-elf/4.1.2/mno-hw-mul\libgcc.a(_div_df.o)
 .debug_aranges
                0x00000900       0x20 c:/altera/13.0/nios2eds/bin/gnu/h-i686-mingw32/bin/../lib/gcc/nios2-elf/4.1.2/mno-hw-mul\libgcc.a(_eq_df.o)
 .debug_aranges
                0x00000920       0x20 c:/altera/13.0/nios2eds/bin/gnu/h-i686-mingw32/bin/../lib/gcc/nios2-elf/4.1.2/mno-hw-mul\libgcc.a(_ne_df.o)
 .debug_aranges
                0x00000940       0x20 c:/altera/13.0/nios2eds/bin/gnu/h-i686-mingw32/bin/../lib/gcc/nios2-elf/4.1.2/mno-hw-mul\libgcc.a(_gt_df.o)
 .debug_aranges
                0x00000960       0x20 c:/altera/13.0/nios2eds/bin/gnu/h-i686-mingw32/bin/../lib/gcc/nios2-elf/4.1.2/mno-hw-mul\libgcc.a(_lt_df.o)
 .debug_aranges
                0x00000980       0x20 c:/altera/13.0/nios2eds/bin/gnu/h-i686-mingw32/bin/../lib/gcc/nios2-elf/4.1.2/mno-hw-mul\libgcc.a(_si_to_df.o)
 .debug_aranges
                0x000009a0       0x20 c:/altera/13.0/nios2eds/bin/gnu/h-i686-mingw32/bin/../lib/gcc/nios2-elf/4.1.2/mno-hw-mul\libgcc.a(lib2-divmod.o)
 .debug_aranges
                0x000009c0       0x20 ../cool_bsp/\libucosii_bsp.a(alt_exit.o)
 .debug_aranges
                0x000009e0       0x20 ../cool_bsp/\libucosii_bsp.a(alt_flash_dev.o)
 .debug_aranges
                0x00000a00       0x20 ../cool_bsp/\libucosii_bsp.a(alt_fstat.o)
 .debug_aranges
                0x00000a20       0x20 ../cool_bsp/\libucosii_bsp.a(alt_irq_register.o)
 .debug_aranges
                0x00000a40       0x20 ../cool_bsp/\libucosii_bsp.a(alt_isatty.o)
 .debug_aranges
                0x00000a60       0x20 ../cool_bsp/\libucosii_bsp.a(alt_lseek.o)
 .debug_aranges
                0x00000a80       0x20 ../cool_bsp/\libucosii_bsp.a(alt_main.o)
 .debug_aranges
                0x00000aa0       0x20 ../cool_bsp/\libucosii_bsp.a(alt_sbrk.o)
 .debug_aranges
                0x00000ac0       0x20 ../cool_bsp/\libucosii_bsp.a(alt_usleep.o)
 .debug_aranges
                0x00000ae0       0x20 ../cool_bsp/\libucosii_bsp.a(alt_env_lock.o)
 .debug_aranges
                0x00000b00       0x20 ../cool_bsp/\libucosii_bsp.a(alt_malloc_lock.o)
 .debug_aranges
                0x00000b20       0x20 ../cool_bsp/\libucosii_bsp.a(os_core.o)
 .debug_aranges
                0x00000b40       0x20 ../cool_bsp/\libucosii_bsp.a(os_dbg.o)
 .debug_aranges
                0x00000b60       0x20 ../cool_bsp/\libucosii_bsp.a(os_flag.o)
 .debug_aranges
                0x00000b80       0x20 ../cool_bsp/\libucosii_bsp.a(os_mem.o)
 .debug_aranges
                0x00000ba0       0x20 ../cool_bsp/\libucosii_bsp.a(os_q.o)
 .debug_aranges
                0x00000bc0       0x20 ../cool_bsp/\libucosii_bsp.a(os_sem.o)
 .debug_aranges
                0x00000be0       0x20 ../cool_bsp/\libucosii_bsp.a(os_task.o)
 .debug_aranges
                0x00000c00       0x20 ../cool_bsp/\libucosii_bsp.a(os_time.o)
 .debug_aranges
                0x00000c20       0x20 ../cool_bsp/\libucosii_bsp.a(alt_sys_init.o)
 .debug_aranges
                0x00000c40       0x20 ../cool_bsp/\libucosii_bsp.a(altera_avalon_cfi_flash.o)
 .debug_aranges
                0x00000c60       0x20 ../cool_bsp/\libucosii_bsp.a(altera_avalon_cfi_flash_table.o)
 .debug_aranges
                0x00000c80       0x20 ../cool_bsp/\libucosii_bsp.a(altera_avalon_epcs_flash_controller.o)
 .debug_aranges
                0x00000ca0       0x20 ../cool_bsp/\libucosii_bsp.a(altera_avalon_jtag_uart_fd.o)
 .debug_aranges
                0x00000cc0       0x20 ../cool_bsp/\libucosii_bsp.a(altera_avalon_jtag_uart_init.o)
 .debug_aranges
                0x00000ce0       0x20 ../cool_bsp/\libucosii_bsp.a(altera_avalon_jtag_uart_ioctl.o)
 .debug_aranges
                0x00000d00       0x20 ../cool_bsp/\libucosii_bsp.a(altera_avalon_jtag_uart_read.o)
 .debug_aranges
                0x00000d20       0x20 ../cool_bsp/\libucosii_bsp.a(altera_avalon_jtag_uart_write.o)
 .debug_aranges
                0x00000d40       0x20 ../cool_bsp/\libucosii_bsp.a(altera_avalon_timer_sc.o)
 .debug_aranges
                0x00000d60       0x20 ../cool_bsp/\libucosii_bsp.a(epcs_commands.o)
 .debug_aranges
                0x00000d80       0x20 ../cool_bsp/\libucosii_bsp.a(alt_iniche_close.o)
 .debug_aranges
                0x00000da0       0x20 ../cool_bsp/\libucosii_bsp.a(alt_iniche_dev.o)
 .debug_aranges
                0x00000dc0       0x20 ../cool_bsp/\libucosii_bsp.a(alt_iniche_read.o)
 .debug_aranges
                0x00000de0       0x20 ../cool_bsp/\libucosii_bsp.a(alt_iniche_write.o)
 .debug_aranges
                0x00000e00       0x20 ../cool_bsp/\libucosii_bsp.a(ipnet.o)
 .debug_aranges
                0x00000e20       0x20 ../cool_bsp/\libucosii_bsp.a(ipstart.o)
 .debug_aranges
                0x00000e40       0x20 ../cool_bsp/\libucosii_bsp.a(igmp_cmn.o)
 .debug_aranges
                0x00000e60       0x20 ../cool_bsp/\libucosii_bsp.a(bsdsock.o)
 .debug_aranges
                0x00000e80       0x20 ../cool_bsp/\libucosii_bsp.a(cksum.o)
 .debug_aranges
                0x00000ea0       0x20 ../cool_bsp/\libucosii_bsp.a(in_utils.o)
 .debug_aranges
                0x00000ec0       0x20 ../cool_bsp/\libucosii_bsp.a(netmain.o)
 .debug_aranges
                0x00000ee0       0x20 ../cool_bsp/\libucosii_bsp.a(parseip.o)
 .debug_aranges
                0x00000f00       0x20 ../cool_bsp/\libucosii_bsp.a(tk_crnos.o)
 .debug_aranges
                0x00000f20       0x20 ../cool_bsp/\libucosii_bsp.a(dhcpclnt.o)
 .debug_aranges
                0x00000f40       0x20 ../cool_bsp/\libucosii_bsp.a(dhcputil.o)
 .debug_aranges
                0x00000f60       0x20 ../cool_bsp/\libucosii_bsp.a(pktalloc.o)
 .debug_aranges
                0x00000f80       0x20 ../cool_bsp/\libucosii_bsp.a(q.o)
 .debug_aranges
                0x00000fa0       0x20 ../cool_bsp/\libucosii_bsp.a(udp_open.o)
 .debug_aranges
                0x00000fc0       0x20 ../cool_bsp/\libucosii_bsp.a(asm_cksum.o)
 .debug_aranges
                0x00000fe0       0x20 ../cool_bsp/\libucosii_bsp.a(brdutils.o)
 .debug_aranges
                0x00001000       0x20 ../cool_bsp/\libucosii_bsp.a(osportco.o)
 .debug_aranges
                0x00001020       0x20 ../cool_bsp/\libucosii_bsp.a(targnios.o)
 .debug_aranges
                0x00001040       0x20 ../cool_bsp/\libucosii_bsp.a(nptcp.o)
 .debug_aranges
                0x00001060       0x20 ../cool_bsp/\libucosii_bsp.a(rawsock.o)
 .debug_aranges
                0x00001080       0x20 ../cool_bsp/\libucosii_bsp.a(sockcall.o)
 .debug_aranges
                0x000010a0       0x20 ../cool_bsp/\libucosii_bsp.a(socket.o)
 .debug_aranges
                0x000010c0       0x20 ../cool_bsp/\libucosii_bsp.a(socket2.o)
 .debug_aranges
                0x000010e0       0x20 ../cool_bsp/\libucosii_bsp.a(soselect.o)
 .debug_aranges
                0x00001100       0x20 ../cool_bsp/\libucosii_bsp.a(tcp_in.o)
 .debug_aranges
                0x00001120       0x20 ../cool_bsp/\libucosii_bsp.a(tcp_out.o)
 .debug_aranges
                0x00001140       0x20 ../cool_bsp/\libucosii_bsp.a(tcp_subr.o)
 .debug_aranges
                0x00001160       0x20 ../cool_bsp/\libucosii_bsp.a(tcp_timr.o)
 .debug_aranges
                0x00001180       0x20 ../cool_bsp/\libucosii_bsp.a(tcp_usr.o)
 .debug_aranges
                0x000011a0       0x20 ../cool_bsp/\libucosii_bsp.a(tcpport.o)
 .debug_aranges
                0x000011c0       0x20 ../cool_bsp/\libucosii_bsp.a(udpsock.o)
 .debug_aranges
                0x000011e0       0x20 ../cool_bsp/\libucosii_bsp.a(alt_alarm_start.o)
 .debug_aranges
                0x00001200       0x20 ../cool_bsp/\libucosii_bsp.a(alt_busy_sleep.o)
 .debug_aranges
                0x00001220       0x20 ../cool_bsp/\libucosii_bsp.a(alt_close.o)
 .debug_aranges
                0x00001240       0x20 ../cool_bsp/\libucosii_bsp.a(alt_dcache_flush.o)
 .debug_aranges
                0x00001260       0x20 ../cool_bsp/\libucosii_bsp.a(alt_dev.o)
 .debug_aranges
                0x00001280       0x20 ../cool_bsp/\libucosii_bsp.a(alt_dev_llist_insert.o)
 .debug_aranges
                0x000012a0       0x20 ../cool_bsp/\libucosii_bsp.a(alt_do_ctors.o)
 .debug_aranges
                0x000012c0       0x20 ../cool_bsp/\libucosii_bsp.a(alt_do_dtors.o)
 .debug_aranges
                0x000012e0       0x20 ../cool_bsp/\libucosii_bsp.a(alt_find_dev.o)
 .debug_aranges
                0x00001300       0x20 ../cool_bsp/\libucosii_bsp.a(alt_iic.o)
 .debug_aranges
                0x00001320       0x20 ../cool_bsp/\libucosii_bsp.a(alt_iic_isr_register.o)
 .debug_aranges
                0x00001340       0x20 ../cool_bsp/\libucosii_bsp.a(alt_io_redirect.o)
 .debug_aranges
                0x00001360       0x30 ../cool_bsp/\libucosii_bsp.a(alt_irq_entry.o)
 .debug_aranges
                0x00001390       0x28 ../cool_bsp/\libucosii_bsp.a(alt_irq_handler.o)
 .debug_aranges
                0x000013b8       0x20 ../cool_bsp/\libucosii_bsp.a(alt_open.o)
 .debug_aranges
                0x000013d8       0x20 ../cool_bsp/\libucosii_bsp.a(alt_read.o)
 .debug_aranges
                0x000013f8       0x20 ../cool_bsp/\libucosii_bsp.a(alt_release_fd.o)
 .debug_aranges
                0x00001418       0x20 ../cool_bsp/\libucosii_bsp.a(alt_remap_cached.o)
 .debug_aranges
                0x00001438       0x20 ../cool_bsp/\libucosii_bsp.a(alt_remap_uncached.o)
 .debug_aranges
                0x00001458       0x20 ../cool_bsp/\libucosii_bsp.a(alt_tick.o)
 .debug_aranges
                0x00001478       0x20 ../cool_bsp/\libucosii_bsp.a(alt_write.o)
 .debug_aranges
                0x00001498       0x20 ../cool_bsp/\libucosii_bsp.a(altera_nios2_qsys_irq.o)
 .debug_aranges
                0x000014b8       0x20 ../cool_bsp/\libucosii_bsp.a(os_cpu_a.o)
 .debug_aranges
                0x000014d8       0x20 ../cool_bsp/\libucosii_bsp.a(os_cpu_c.o)
 .debug_aranges
                0x000014f8       0x20 ../cool_bsp/\libucosii_bsp.a(altera_avalon_cfi_flash_amd.o)
 .debug_aranges
                0x00001518       0x20 ../cool_bsp/\libucosii_bsp.a(altera_avalon_cfi_flash_intel.o)
 .debug_aranges
                0x00001538       0x20 ../cool_bsp/\libucosii_bsp.a(altera_avalon_spi.o)
 .debug_aranges
                0x00001558       0x20 ../cool_bsp/\libucosii_bsp.a(allports.o)
 .debug_aranges
                0x00001578       0x20 ../cool_bsp/\libucosii_bsp.a(timeouts.o)
 .debug_aranges
                0x00001598       0x20 ../cool_bsp/\libucosii_bsp.a(tk_misc.o)
 .debug_aranges
                0x000015b8       0x20 ../cool_bsp/\libucosii_bsp.a(alt_iniche_fcntl.o)
 .debug_aranges
                0x000015d8       0x20 ../cool_bsp/\libucosii_bsp.a(et_arp.o)
 .debug_aranges
                0x000015f8       0x20 ../cool_bsp/\libucosii_bsp.a(iface.o)
 .debug_aranges
                0x00001618       0x20 ../cool_bsp/\libucosii_bsp.a(ip.o)
 .debug_aranges
                0x00001638       0x20 ../cool_bsp/\libucosii_bsp.a(ip_reasm.o)
 .debug_aranges
                0x00001658       0x20 ../cool_bsp/\libucosii_bsp.a(ipdemux.o)
 .debug_aranges
                0x00001678       0x20 ../cool_bsp/\libucosii_bsp.a(ipmc.o)
 .debug_aranges
                0x00001698       0x20 ../cool_bsp/\libucosii_bsp.a(ipport.o)
 .debug_aranges
                0x000016b8       0x20 ../cool_bsp/\libucosii_bsp.a(ipraw.o)
 .debug_aranges
                0x000016d8       0x20 ../cool_bsp/\libucosii_bsp.a(iproute.o)
 .debug_aranges
                0x000016f8       0x20 ../cool_bsp/\libucosii_bsp.a(udp.o)
 .debug_aranges
                0x00001718       0x20 ../cool_bsp/\libucosii_bsp.a(igmp.o)
 .debug_aranges
                0x00001738       0x20 ../cool_bsp/\libucosii_bsp.a(igmp2.o)
 .debug_aranges
                0x00001758       0x20 ../cool_bsp/\libucosii_bsp.a(ipopt.o)
 .debug_aranges
                0x00001778       0x20 ../cool_bsp/\libucosii_bsp.a(u_mctest.o)
 .debug_aranges
                0x00001798       0x20 ../cool_bsp/\libucosii_bsp.a(dhcsetup.o)
 .debug_aranges
                0x000017b8       0x20 ../cool_bsp/\libucosii_bsp.a(memdev.o)
 .debug_aranges
                0x000017d8       0x20 ../cool_bsp/\libucosii_bsp.a(tcpcksum.o)
 .debug_aranges
                0x000017f8       0x20 ../cool_bsp/\libucosii_bsp.a(in_pcb.o)
 .debug_aranges
                0x00001818       0x20 ../cool_bsp/\libucosii_bsp.a(vfsfiles.o)
 .debug_aranges
                0x00001838       0x20 ../cool_bsp/\libucosii_bsp.a(vfsport.o)
 .debug_aranges
                0x00001858       0x38 ../cool_bsp/\libucosii_bsp.a(alt_exception_entry.o)
 .debug_aranges
                0x00001890       0x20 ../cool_bsp/\libucosii_bsp.a(alt_fcntl.o)
 .debug_aranges
                0x000018b0       0x20 ../cool_bsp/\libucosii_bsp.a(alt_find_file.o)
 .debug_aranges
                0x000018d0       0x20 ../cool_bsp/\libucosii_bsp.a(alt_get_fd.o)
 .debug_aranges
                0x000018f0       0x20 ../cool_bsp/\libucosii_bsp.a(icmp.o)
 .debug_aranges
                0x00001910       0x20 c:/altera/13.0/nios2eds/bin/gnu/h-i686-mingw32/bin/../lib/gcc/nios2-elf/4.1.2/../../../../nios2-elf/lib/mno-hw-mul\libc.a(lib_a-atexit.o)
 .debug_aranges
                0x00001930       0x20 c:/altera/13.0/nios2eds/bin/gnu/h-i686-mingw32/bin/../lib/gcc/nios2-elf/4.1.2/../../../../nios2-elf/lib/mno-hw-mul\libc.a(lib_a-atoi.o)
 .debug_aranges
                0x00001950       0x20 c:/altera/13.0/nios2eds/bin/gnu/h-i686-mingw32/bin/../lib/gcc/nios2-elf/4.1.2/../../../../nios2-elf/lib/mno-hw-mul\libc.a(lib_a-calloc.o)
 .debug_aranges
                0x00001970       0x20 c:/altera/13.0/nios2eds/bin/gnu/h-i686-mingw32/bin/../lib/gcc/nios2-elf/4.1.2/../../../../nios2-elf/lib/mno-hw-mul\libc.a(lib_a-malloc.o)
 .debug_aranges
                0x00001990       0x20 c:/altera/13.0/nios2eds/bin/gnu/h-i686-mingw32/bin/../lib/gcc/nios2-elf/4.1.2/../../../../nios2-elf/lib/mno-hw-mul\libc.a(lib_a-memcmp.o)
 .debug_aranges
                0x000019b0       0x20 c:/altera/13.0/nios2eds/bin/gnu/h-i686-mingw32/bin/../lib/gcc/nios2-elf/4.1.2/../../../../nios2-elf/lib/mno-hw-mul\libc.a(lib_a-sprintf.o)
 .debug_aranges
                0x000019d0       0x20 c:/altera/13.0/nios2eds/bin/gnu/h-i686-mingw32/bin/../lib/gcc/nios2-elf/4.1.2/../../../../nios2-elf/lib/mno-hw-mul\libc.a(lib_a-strcpy.o)
 .debug_aranges
                0x000019f0       0x20 c:/altera/13.0/nios2eds/bin/gnu/h-i686-mingw32/bin/../lib/gcc/nios2-elf/4.1.2/../../../../nios2-elf/lib/mno-hw-mul\libc.a(lib_a-strncmp.o)
 .debug_aranges
                0x00001a10       0x20 c:/altera/13.0/nios2eds/bin/gnu/h-i686-mingw32/bin/../lib/gcc/nios2-elf/4.1.2/../../../../nios2-elf/lib/mno-hw-mul\libc.a(lib_a-strncpy.o)
 .debug_aranges
                0x00001a30       0x20 c:/altera/13.0/nios2eds/bin/gnu/h-i686-mingw32/bin/../lib/gcc/nios2-elf/4.1.2/../../../../nios2-elf/lib/mno-hw-mul\libc.a(lib_a-strtol.o)
 .debug_aranges
                0x00001a50       0x20 c:/altera/13.0/nios2eds/bin/gnu/h-i686-mingw32/bin/../lib/gcc/nios2-elf/4.1.2/../../../../nios2-elf/lib/mno-hw-mul\libc.a(lib_a-vprintf.o)
 .debug_aranges
                0x00001a70       0x20 c:/altera/13.0/nios2eds/bin/gnu/h-i686-mingw32/bin/../lib/gcc/nios2-elf/4.1.2/../../../../nios2-elf/lib/mno-hw-mul\libc.a(lib_a-vsprintf.o)
 .debug_aranges
                0x00001a90       0x20 c:/altera/13.0/nios2eds/bin/gnu/h-i686-mingw32/bin/../lib/gcc/nios2-elf/4.1.2/../../../../nios2-elf/lib/mno-hw-mul\libc.a(lib_a-__atexit.o)

.debug_pubnames
                0x00000000     0x53f0
 *(.debug_pubnames)
 .debug_pubnames
                0x00000000       0x7c obj/default/SSS_DE2_115.o
 .debug_pubnames
                0x0000007c       0x61 obj/default/alt_error_handler.o
 .debug_pubnames
                0x000000dd      0x102 obj/default/dm9000a.o
 .debug_pubnames
                0x000001df       0x73 obj/default/iniche_init.o
 .debug_pubnames
                0x00000252       0x54 obj/default/led.o
 .debug_pubnames
                0x000002a6       0xc9 obj/default/network_utilities.o
 .debug_pubnames
                0x0000036f      0x154 obj/default/simple_socket_server.o
 .debug_pubnames
                0x000004c3       0x23 c:/altera/13.0/nios2eds/bin/gnu/h-i686-mingw32/bin/../lib/gcc/nios2-elf/4.1.2/mno-hw-mul\libgcc.a(_fixunsdfsi.o)
 .debug_pubnames
                0x000004e6       0x2c c:/altera/13.0/nios2eds/bin/gnu/h-i686-mingw32/bin/../lib/gcc/nios2-elf/4.1.2/mno-hw-mul\libgcc.a(_addsub_df.o)
 .debug_pubnames
                0x00000512       0x1f c:/altera/13.0/nios2eds/bin/gnu/h-i686-mingw32/bin/../lib/gcc/nios2-elf/4.1.2/mno-hw-mul\libgcc.a(_mul_df.o)
 .debug_pubnames
                0x00000531       0x1e c:/altera/13.0/nios2eds/bin/gnu/h-i686-mingw32/bin/../lib/gcc/nios2-elf/4.1.2/mno-hw-mul\libgcc.a(_ge_df.o)
 .debug_pubnames
                0x0000054f       0x20 c:/altera/13.0/nios2eds/bin/gnu/h-i686-mingw32/bin/../lib/gcc/nios2-elf/4.1.2/mno-hw-mul\libgcc.a(_df_to_si.o)
 .debug_pubnames
                0x0000056f       0x22 c:/altera/13.0/nios2eds/bin/gnu/h-i686-mingw32/bin/../lib/gcc/nios2-elf/4.1.2/mno-hw-mul\libgcc.a(_thenan_df.o)
 .debug_pubnames
                0x00000591       0x24 c:/altera/13.0/nios2eds/bin/gnu/h-i686-mingw32/bin/../lib/gcc/nios2-elf/4.1.2/mno-hw-mul\libgcc.a(_usi_to_df.o)
 .debug_pubnames
                0x000005b5       0x1f c:/altera/13.0/nios2eds/bin/gnu/h-i686-mingw32/bin/../lib/gcc/nios2-elf/4.1.2/mno-hw-mul\libgcc.a(lib2-mul.o)
 .debug_pubnames
                0x000005d4       0x1f c:/altera/13.0/nios2eds/bin/gnu/h-i686-mingw32/bin/../lib/gcc/nios2-elf/4.1.2/mno-hw-mul\libgcc.a(_muldi3.o)
 .debug_pubnames
                0x000005f3       0x1f c:/altera/13.0/nios2eds/bin/gnu/h-i686-mingw32/bin/../lib/gcc/nios2-elf/4.1.2/mno-hw-mul\libgcc.a(_clzsi2.o)
 .debug_pubnames
                0x00000612       0x1f c:/altera/13.0/nios2eds/bin/gnu/h-i686-mingw32/bin/../lib/gcc/nios2-elf/4.1.2/mno-hw-mul\libgcc.a(_pack_df.o)
 .debug_pubnames
                0x00000631       0x21 c:/altera/13.0/nios2eds/bin/gnu/h-i686-mingw32/bin/../lib/gcc/nios2-elf/4.1.2/mno-hw-mul\libgcc.a(_unpack_df.o)
 .debug_pubnames
                0x00000652       0x26 c:/altera/13.0/nios2eds/bin/gnu/h-i686-mingw32/bin/../lib/gcc/nios2-elf/4.1.2/mno-hw-mul\libgcc.a(_fpcmp_parts_df.o)
 .debug_pubnames
                0x00000678       0x20 c:/altera/13.0/nios2eds/bin/gnu/h-i686-mingw32/bin/../lib/gcc/nios2-elf/4.1.2/mno-hw-mul\libgcc.a(_clz.o)
 .debug_pubnames
                0x00000698       0x2e c:/altera/13.0/nios2eds/bin/gnu/h-i686-mingw32/bin/../lib/gcc/nios2-elf/4.1.2/../../../../nios2-elf/lib/mno-hw-mul\libc.a(lib_a-ctype_.o)
 .debug_pubnames
                0x000006c6       0x1b c:/altera/13.0/nios2eds/bin/gnu/h-i686-mingw32/bin/../lib/gcc/nios2-elf/4.1.2/../../../../nios2-elf/lib/mno-hw-mul\libc.a(lib_a-exit.o)
 .debug_pubnames
                0x000006e1       0x2d c:/altera/13.0/nios2eds/bin/gnu/h-i686-mingw32/bin/../lib/gcc/nios2-elf/4.1.2/../../../../nios2-elf/lib/mno-hw-mul\libc.a(lib_a-fprintf.o)
 .debug_pubnames
                0x0000070e       0x2b c:/altera/13.0/nios2eds/bin/gnu/h-i686-mingw32/bin/../lib/gcc/nios2-elf/4.1.2/../../../../nios2-elf/lib/mno-hw-mul\libc.a(lib_a-fwrite.o)
 .debug_pubnames
                0x00000739       0x27 c:/altera/13.0/nios2eds/bin/gnu/h-i686-mingw32/bin/../lib/gcc/nios2-elf/4.1.2/../../../../nios2-elf/lib/mno-hw-mul\libc.a(lib_a-getc.o)
 .debug_pubnames
                0x00000760       0x39 c:/altera/13.0/nios2eds/bin/gnu/h-i686-mingw32/bin/../lib/gcc/nios2-elf/4.1.2/../../../../nios2-elf/lib/mno-hw-mul\libc.a(lib_a-impure.o)
 .debug_pubnames
                0x00000799       0x1d c:/altera/13.0/nios2eds/bin/gnu/h-i686-mingw32/bin/../lib/gcc/nios2-elf/4.1.2/../../../../nios2-elf/lib/mno-hw-mul\libc.a(lib_a-memcpy.o)
 .debug_pubnames
                0x000007b6       0x1e c:/altera/13.0/nios2eds/bin/gnu/h-i686-mingw32/bin/../lib/gcc/nios2-elf/4.1.2/../../../../nios2-elf/lib/mno-hw-mul\libc.a(lib_a-memmove.o)
 .debug_pubnames
                0x000007d4       0x1d c:/altera/13.0/nios2eds/bin/gnu/h-i686-mingw32/bin/../lib/gcc/nios2-elf/4.1.2/../../../../nios2-elf/lib/mno-hw-mul\libc.a(lib_a-memset.o)
 .debug_pubnames
                0x000007f1       0x2b c:/altera/13.0/nios2eds/bin/gnu/h-i686-mingw32/bin/../lib/gcc/nios2-elf/4.1.2/../../../../nios2-elf/lib/mno-hw-mul\libc.a(lib_a-perror.o)
 .debug_pubnames
                0x0000081c       0x2b c:/altera/13.0/nios2eds/bin/gnu/h-i686-mingw32/bin/../lib/gcc/nios2-elf/4.1.2/../../../../nios2-elf/lib/mno-hw-mul\libc.a(lib_a-printf.o)
 .debug_pubnames
                0x00000847       0x27 c:/altera/13.0/nios2eds/bin/gnu/h-i686-mingw32/bin/../lib/gcc/nios2-elf/4.1.2/../../../../nios2-elf/lib/mno-hw-mul\libc.a(lib_a-putc.o)
 .debug_pubnames
                0x0000086e       0x2d c:/altera/13.0/nios2eds/bin/gnu/h-i686-mingw32/bin/../lib/gcc/nios2-elf/4.1.2/../../../../nios2-elf/lib/mno-hw-mul\libc.a(lib_a-putchar.o)
 .debug_pubnames
                0x0000089b       0x27 c:/altera/13.0/nios2eds/bin/gnu/h-i686-mingw32/bin/../lib/gcc/nios2-elf/4.1.2/../../../../nios2-elf/lib/mno-hw-mul\libc.a(lib_a-puts.o)
 .debug_pubnames
                0x000008c2       0x2c c:/altera/13.0/nios2eds/bin/gnu/h-i686-mingw32/bin/../lib/gcc/nios2-elf/4.1.2/../../../../nios2-elf/lib/mno-hw-mul\libc.a(lib_a-rget.o)
 .debug_pubnames
                0x000008ee       0x1d c:/altera/13.0/nios2eds/bin/gnu/h-i686-mingw32/bin/../lib/gcc/nios2-elf/4.1.2/../../../../nios2-elf/lib/mno-hw-mul\libc.a(lib_a-strchr.o)
 .debug_pubnames
                0x0000090b       0x1f c:/altera/13.0/nios2eds/bin/gnu/h-i686-mingw32/bin/../lib/gcc/nios2-elf/4.1.2/../../../../nios2-elf/lib/mno-hw-mul\libc.a(lib_a-strerror.o)
 .debug_pubnames
                0x0000092a       0x1d c:/altera/13.0/nios2eds/bin/gnu/h-i686-mingw32/bin/../lib/gcc/nios2-elf/4.1.2/../../../../nios2-elf/lib/mno-hw-mul\libc.a(lib_a-strlen.o)
 .debug_pubnames
                0x00000947       0x25 c:/altera/13.0/nios2eds/bin/gnu/h-i686-mingw32/bin/../lib/gcc/nios2-elf/4.1.2/../../../../nios2-elf/lib/mno-hw-mul\libc.a(lib_a-u_strerr.o)
 .debug_pubnames
                0x0000096c       0x45 c:/altera/13.0/nios2eds/bin/gnu/h-i686-mingw32/bin/../lib/gcc/nios2-elf/4.1.2/../../../../nios2-elf/lib/mno-hw-mul\libc.a(lib_a-vfprintf.o)
 .debug_pubnames
                0x000009b1       0x2c c:/altera/13.0/nios2eds/bin/gnu/h-i686-mingw32/bin/../lib/gcc/nios2-elf/4.1.2/../../../../nios2-elf/lib/mno-hw-mul\libc.a(lib_a-wbuf.o)
 .debug_pubnames
                0x000009dd       0x22 c:/altera/13.0/nios2eds/bin/gnu/h-i686-mingw32/bin/../lib/gcc/nios2-elf/4.1.2/../../../../nios2-elf/lib/mno-hw-mul\libc.a(lib_a-wsetup.o)
 .debug_pubnames
                0x000009ff       0x27 c:/altera/13.0/nios2eds/bin/gnu/h-i686-mingw32/bin/../lib/gcc/nios2-elf/4.1.2/../../../../nios2-elf/lib/mno-hw-mul\libc.a(lib_a-__call_atexit.o)
 .debug_pubnames
                0x00000a26       0x1e c:/altera/13.0/nios2eds/bin/gnu/h-i686-mingw32/bin/../lib/gcc/nios2-elf/4.1.2/../../../../nios2-elf/lib/mno-hw-mul\libc.a(lib_a-dtoa.o)
 .debug_pubnames
                0x00000a44       0x2b c:/altera/13.0/nios2eds/bin/gnu/h-i686-mingw32/bin/../lib/gcc/nios2-elf/4.1.2/../../../../nios2-elf/lib/mno-hw-mul\libc.a(lib_a-fflush.o)
 .debug_pubnames
                0x00000a6f       0xdb c:/altera/13.0/nios2eds/bin/gnu/h-i686-mingw32/bin/../lib/gcc/nios2-elf/4.1.2/../../../../nios2-elf/lib/mno-hw-mul\libc.a(lib_a-findfp.o)
 .debug_pubnames
                0x00000b4a       0x29 c:/altera/13.0/nios2eds/bin/gnu/h-i686-mingw32/bin/../lib/gcc/nios2-elf/4.1.2/../../../../nios2-elf/lib/mno-hw-mul\libc.a(lib_a-fputc.o)
 .debug_pubnames
                0x00000b73       0x29 c:/altera/13.0/nios2eds/bin/gnu/h-i686-mingw32/bin/../lib/gcc/nios2-elf/4.1.2/../../../../nios2-elf/lib/mno-hw-mul\libc.a(lib_a-fputs.o)
 .debug_pubnames
                0x00000b9c       0x31 c:/altera/13.0/nios2eds/bin/gnu/h-i686-mingw32/bin/../lib/gcc/nios2-elf/4.1.2/../../../../nios2-elf/lib/mno-hw-mul\libc.a(lib_a-freer.o)
 .debug_pubnames
                0x00000bcd       0x23 c:/altera/13.0/nios2eds/bin/gnu/h-i686-mingw32/bin/../lib/gcc/nios2-elf/4.1.2/../../../../nios2-elf/lib/mno-hw-mul\libc.a(lib_a-fvwrite.o)
 .debug_pubnames
                0x00000bf0       0x2e c:/altera/13.0/nios2eds/bin/gnu/h-i686-mingw32/bin/../lib/gcc/nios2-elf/4.1.2/../../../../nios2-elf/lib/mno-hw-mul\libc.a(lib_a-fwalk.o)
 .debug_pubnames
                0x00000c1e       0xc3 c:/altera/13.0/nios2eds/bin/gnu/h-i686-mingw32/bin/../lib/gcc/nios2-elf/4.1.2/../../../../nios2-elf/lib/mno-hw-mul\libc.a(lib_a-locale.o)
 .debug_pubnames
                0x00000ce1       0x23 c:/altera/13.0/nios2eds/bin/gnu/h-i686-mingw32/bin/../lib/gcc/nios2-elf/4.1.2/../../../../nios2-elf/lib/mno-hw-mul\libc.a(lib_a-makebuf.o)
 .debug_pubnames
                0x00000d04       0xce c:/altera/13.0/nios2eds/bin/gnu/h-i686-mingw32/bin/../lib/gcc/nios2-elf/4.1.2/../../../../nios2-elf/lib/mno-hw-mul\libc.a(lib_a-mallocr.o)
 .debug_pubnames
                0x00000dd2       0x1d c:/altera/13.0/nios2eds/bin/gnu/h-i686-mingw32/bin/../lib/gcc/nios2-elf/4.1.2/../../../../nios2-elf/lib/mno-hw-mul\libc.a(lib_a-memchr.o)
 .debug_pubnames
                0x00000def      0x13a c:/altera/13.0/nios2eds/bin/gnu/h-i686-mingw32/bin/../lib/gcc/nios2-elf/4.1.2/../../../../nios2-elf/lib/mno-hw-mul\libc.a(lib_a-mprec.o)
 .debug_pubnames
                0x00000f29       0x21 c:/altera/13.0/nios2eds/bin/gnu/h-i686-mingw32/bin/../lib/gcc/nios2-elf/4.1.2/../../../../nios2-elf/lib/mno-hw-mul\libc.a(lib_a-reallocr.o)
 .debug_pubnames
                0x00000f4a       0x22 c:/altera/13.0/nios2eds/bin/gnu/h-i686-mingw32/bin/../lib/gcc/nios2-elf/4.1.2/../../../../nios2-elf/lib/mno-hw-mul\libc.a(lib_a-refill.o)
 .debug_pubnames
                0x00000f6c       0x1f c:/altera/13.0/nios2eds/bin/gnu/h-i686-mingw32/bin/../lib/gcc/nios2-elf/4.1.2/../../../../nios2-elf/lib/mno-hw-mul\libc.a(lib_a-s_isinfd.o)
 .debug_pubnames
                0x00000f8b       0x1f c:/altera/13.0/nios2eds/bin/gnu/h-i686-mingw32/bin/../lib/gcc/nios2-elf/4.1.2/../../../../nios2-elf/lib/mno-hw-mul\libc.a(lib_a-s_isnand.o)
 .debug_pubnames
                0x00000faa       0x1e c:/altera/13.0/nios2eds/bin/gnu/h-i686-mingw32/bin/../lib/gcc/nios2-elf/4.1.2/../../../../nios2-elf/lib/mno-hw-mul\libc.a(lib_a-sbrkr.o)
 .debug_pubnames
                0x00000fc8       0x44 c:/altera/13.0/nios2eds/bin/gnu/h-i686-mingw32/bin/../lib/gcc/nios2-elf/4.1.2/../../../../nios2-elf/lib/mno-hw-mul\libc.a(lib_a-stdio.o)
 .debug_pubnames
                0x0000100c       0x1d c:/altera/13.0/nios2eds/bin/gnu/h-i686-mingw32/bin/../lib/gcc/nios2-elf/4.1.2/../../../../nios2-elf/lib/mno-hw-mul\libc.a(lib_a-strcmp.o)
 .debug_pubnames
                0x00001029       0x1f c:/altera/13.0/nios2eds/bin/gnu/h-i686-mingw32/bin/../lib/gcc/nios2-elf/4.1.2/../../../../nios2-elf/lib/mno-hw-mul\libc.a(lib_a-writer.o)
 .debug_pubnames
                0x00001048       0x20 c:/altera/13.0/nios2eds/bin/gnu/h-i686-mingw32/bin/../lib/gcc/nios2-elf/4.1.2/../../../../nios2-elf/lib/mno-hw-mul\libc.a(lib_a-callocr.o)
 .debug_pubnames
                0x00001068       0x1f c:/altera/13.0/nios2eds/bin/gnu/h-i686-mingw32/bin/../lib/gcc/nios2-elf/4.1.2/../../../../nios2-elf/lib/mno-hw-mul\libc.a(lib_a-closer.o)
 .debug_pubnames
                0x00001087       0x2b c:/altera/13.0/nios2eds/bin/gnu/h-i686-mingw32/bin/../lib/gcc/nios2-elf/4.1.2/../../../../nios2-elf/lib/mno-hw-mul\libc.a(lib_a-fclose.o)
 .debug_pubnames
                0x000010b2       0x1f c:/altera/13.0/nios2eds/bin/gnu/h-i686-mingw32/bin/../lib/gcc/nios2-elf/4.1.2/../../../../nios2-elf/lib/mno-hw-mul\libc.a(lib_a-fstatr.o)
 .debug_pubnames
                0x000010d1       0x1c c:/altera/13.0/nios2eds/bin/gnu/h-i686-mingw32/bin/../lib/gcc/nios2-elf/4.1.2/../../../../nios2-elf/lib/mno-hw-mul\libc.a(lib_a-int_errno.o)
 .debug_pubnames
                0x000010ed       0x20 c:/altera/13.0/nios2eds/bin/gnu/h-i686-mingw32/bin/../lib/gcc/nios2-elf/4.1.2/../../../../nios2-elf/lib/mno-hw-mul\libc.a(lib_a-isattyr.o)
 .debug_pubnames
                0x0000110d       0x1f c:/altera/13.0/nios2eds/bin/gnu/h-i686-mingw32/bin/../lib/gcc/nios2-elf/4.1.2/../../../../nios2-elf/lib/mno-hw-mul\libc.a(lib_a-lseekr.o)
 .debug_pubnames
                0x0000112c       0x1e c:/altera/13.0/nios2eds/bin/gnu/h-i686-mingw32/bin/../lib/gcc/nios2-elf/4.1.2/../../../../nios2-elf/lib/mno-hw-mul\libc.a(lib_a-readr.o)
 .debug_pubnames
                0x0000114a       0x20 c:/altera/13.0/nios2eds/bin/gnu/h-i686-mingw32/bin/../lib/gcc/nios2-elf/4.1.2/mno-hw-mul\libgcc.a(_udivdi3.o)
 .debug_pubnames
                0x0000116a       0x20 c:/altera/13.0/nios2eds/bin/gnu/h-i686-mingw32/bin/../lib/gcc/nios2-elf/4.1.2/mno-hw-mul\libgcc.a(_umoddi3.o)
 .debug_pubnames
                0x0000118a       0x1f c:/altera/13.0/nios2eds/bin/gnu/h-i686-mingw32/bin/../lib/gcc/nios2-elf/4.1.2/mno-hw-mul\libgcc.a(_div_df.o)
 .debug_pubnames
                0x000011a9       0x1e c:/altera/13.0/nios2eds/bin/gnu/h-i686-mingw32/bin/../lib/gcc/nios2-elf/4.1.2/mno-hw-mul\libgcc.a(_eq_df.o)
 .debug_pubnames
                0x000011c7       0x1e c:/altera/13.0/nios2eds/bin/gnu/h-i686-mingw32/bin/../lib/gcc/nios2-elf/4.1.2/mno-hw-mul\libgcc.a(_ne_df.o)
 .debug_pubnames
                0x000011e5       0x1e c:/altera/13.0/nios2eds/bin/gnu/h-i686-mingw32/bin/../lib/gcc/nios2-elf/4.1.2/mno-hw-mul\libgcc.a(_gt_df.o)
 .debug_pubnames
                0x00001203       0x1e c:/altera/13.0/nios2eds/bin/gnu/h-i686-mingw32/bin/../lib/gcc/nios2-elf/4.1.2/mno-hw-mul\libgcc.a(_lt_df.o)
 .debug_pubnames
                0x00001221       0x22 c:/altera/13.0/nios2eds/bin/gnu/h-i686-mingw32/bin/../lib/gcc/nios2-elf/4.1.2/mno-hw-mul\libgcc.a(_si_to_df.o)
 .debug_pubnames
                0x00001243       0x48 c:/altera/13.0/nios2eds/bin/gnu/h-i686-mingw32/bin/../lib/gcc/nios2-elf/4.1.2/mno-hw-mul\libgcc.a(lib2-divmod.o)
 .debug_pubnames
                0x0000128b       0x1c ../cool_bsp/\libucosii_bsp.a(alt_exit.o)
 .debug_pubnames
                0x000012a7       0x58 ../cool_bsp/\libucosii_bsp.a(alt_flash_dev.o)
 .debug_pubnames
                0x000012ff       0x1c ../cool_bsp/\libucosii_bsp.a(alt_fstat.o)
 .debug_pubnames
                0x0000131b       0x27 ../cool_bsp/\libucosii_bsp.a(alt_irq_register.o)
 .debug_pubnames
                0x00001342       0x3b ../cool_bsp/\libucosii_bsp.a(alt_irq_vars.o)
 .debug_pubnames
                0x0000137d       0x1d ../cool_bsp/\libucosii_bsp.a(alt_isatty.o)
 .debug_pubnames
                0x0000139a       0x1c ../cool_bsp/\libucosii_bsp.a(alt_lseek.o)
 .debug_pubnames
                0x000013b6       0x46 ../cool_bsp/\libucosii_bsp.a(alt_main.o)
 .debug_pubnames
                0x000013fc       0x1b ../cool_bsp/\libucosii_bsp.a(alt_sbrk.o)
 .debug_pubnames
                0x00001417       0x1d ../cool_bsp/\libucosii_bsp.a(alt_usleep.o)
 .debug_pubnames
                0x00001434       0x41 ../cool_bsp/\libucosii_bsp.a(alt_env_lock.o)
 .debug_pubnames
                0x00001475       0x48 ../cool_bsp/\libucosii_bsp.a(alt_malloc_lock.o)
 .debug_pubnames
                0x000014bd      0x3f8 ../cool_bsp/\libucosii_bsp.a(os_core.o)
 .debug_pubnames
                0x000018b5      0x3c5 ../cool_bsp/\libucosii_bsp.a(os_dbg.o)
 .debug_pubnames
                0x00001c7a       0xd0 ../cool_bsp/\libucosii_bsp.a(os_flag.o)
 .debug_pubnames
                0x00001d4a       0x7c ../cool_bsp/\libucosii_bsp.a(os_mem.o)
 .debug_pubnames
                0x00001dc6       0xa9 ../cool_bsp/\libucosii_bsp.a(os_q.o)
 .debug_pubnames
                0x00001e6f       0x8a ../cool_bsp/\libucosii_bsp.a(os_sem.o)
 .debug_pubnames
                0x00001ef9       0xe5 ../cool_bsp/\libucosii_bsp.a(os_task.o)
 .debug_pubnames
                0x00001fde       0x62 ../cool_bsp/\libucosii_bsp.a(os_time.o)
 .debug_pubnames
                0x00002040       0x34 ../cool_bsp/\libucosii_bsp.a(alt_sys_init.o)
 .debug_pubnames
                0x00002074       0xac ../cool_bsp/\libucosii_bsp.a(altera_avalon_cfi_flash.o)
 .debug_pubnames
                0x00002120      0x27a ../cool_bsp/\libucosii_bsp.a(altera_avalon_cfi_flash_table.o)
 .debug_pubnames
                0x0000239a       0xb5 ../cool_bsp/\libucosii_bsp.a(altera_avalon_epcs_flash_controller.o)
 .debug_pubnames
                0x0000244f       0xa5 ../cool_bsp/\libucosii_bsp.a(altera_avalon_jtag_uart_fd.o)
 .debug_pubnames
                0x000024f4       0x55 ../cool_bsp/\libucosii_bsp.a(altera_avalon_jtag_uart_init.o)
 .debug_pubnames
                0x00002549       0x34 ../cool_bsp/\libucosii_bsp.a(altera_avalon_jtag_uart_ioctl.o)
 .debug_pubnames
                0x0000257d       0x33 ../cool_bsp/\libucosii_bsp.a(altera_avalon_jtag_uart_read.o)
 .debug_pubnames
                0x000025b0       0x34 ../cool_bsp/\libucosii_bsp.a(altera_avalon_jtag_uart_write.o)
 .debug_pubnames
                0x000025e4       0x2f ../cool_bsp/\libucosii_bsp.a(altera_avalon_timer_sc.o)
 .debug_pubnames
                0x00002613      0x118 ../cool_bsp/\libucosii_bsp.a(epcs_commands.o)
 .debug_pubnames
                0x0000272b       0x1c ../cool_bsp/\libucosii_bsp.a(alt_iniche_close.o)
 .debug_pubnames
                0x00002747       0x42 ../cool_bsp/\libucosii_bsp.a(alt_iniche_dev.o)
 .debug_pubnames
                0x00002789       0x1b ../cool_bsp/\libucosii_bsp.a(alt_iniche_read.o)
 .debug_pubnames
                0x000027a4       0x1c ../cool_bsp/\libucosii_bsp.a(alt_iniche_write.o)
 .debug_pubnames
                0x000027c0       0x90 ../cool_bsp/\libucosii_bsp.a(ipnet.o)
 .debug_pubnames
                0x00002850       0x81 ../cool_bsp/\libucosii_bsp.a(ipstart.o)
 .debug_pubnames
                0x000028d1      0x108 ../cool_bsp/\libucosii_bsp.a(igmp_cmn.o)
 .debug_pubnames
                0x000029d9       0xc4 ../cool_bsp/\libucosii_bsp.a(bsdsock.o)
 .debug_pubnames
                0x00002a9d       0x27 ../cool_bsp/\libucosii_bsp.a(cksum.o)
 .debug_pubnames
                0x00002ac4       0xcc ../cool_bsp/\libucosii_bsp.a(in_utils.o)
 .debug_pubnames
                0x00002b90       0xb2 ../cool_bsp/\libucosii_bsp.a(netmain.o)
 .debug_pubnames
                0x00002c42       0xa6 ../cool_bsp/\libucosii_bsp.a(parseip.o)
 .debug_pubnames
                0x00002ce8       0x97 ../cool_bsp/\libucosii_bsp.a(tk_crnos.o)
 .debug_pubnames
                0x00002d7f      0x252 ../cool_bsp/\libucosii_bsp.a(dhcpclnt.o)
 .debug_pubnames
                0x00002fd1       0x1f ../cool_bsp/\libucosii_bsp.a(dhcputil.o)
 .debug_pubnames
                0x00002ff0       0xe2 ../cool_bsp/\libucosii_bsp.a(pktalloc.o)
 .debug_pubnames
                0x000030d2       0x2d ../cool_bsp/\libucosii_bsp.a(q.o)
 .debug_pubnames
                0x000030ff       0x3a ../cool_bsp/\libucosii_bsp.a(udp_open.o)
 .debug_pubnames
                0x00003139       0xc5 ../cool_bsp/\libucosii_bsp.a(brdutils.o)
 .debug_pubnames
                0x000031fe      0x10c ../cool_bsp/\libucosii_bsp.a(osportco.o)
 .debug_pubnames
                0x0000330a       0xf5 ../cool_bsp/\libucosii_bsp.a(targnios.o)
 .debug_pubnames
                0x000033ff      0x190 ../cool_bsp/\libucosii_bsp.a(nptcp.o)
 .debug_pubnames
                0x0000358f       0x46 ../cool_bsp/\libucosii_bsp.a(rawsock.o)
 .debug_pubnames
                0x000035d5      0x108 ../cool_bsp/\libucosii_bsp.a(sockcall.o)
 .debug_pubnames
                0x000036dd       0xfc ../cool_bsp/\libucosii_bsp.a(socket.o)
 .debug_pubnames
                0x000037d9      0x178 ../cool_bsp/\libucosii_bsp.a(socket2.o)
 .debug_pubnames
                0x00003951       0x92 ../cool_bsp/\libucosii_bsp.a(soselect.o)
 .debug_pubnames
                0x000039e3       0xc2 ../cool_bsp/\libucosii_bsp.a(tcp_in.o)
 .debug_pubnames
                0x00003aa5       0x57 ../cool_bsp/\libucosii_bsp.a(tcp_out.o)
 .debug_pubnames
                0x00003afc       0xb9 ../cool_bsp/\libucosii_bsp.a(tcp_subr.o)
 .debug_pubnames
                0x00003bb5       0x96 ../cool_bsp/\libucosii_bsp.a(tcp_timr.o)
 .debug_pubnames
                0x00003c4b       0x79 ../cool_bsp/\libucosii_bsp.a(tcp_usr.o)
 .debug_pubnames
                0x00003cc4       0x1e ../cool_bsp/\libucosii_bsp.a(tcpport.o)
 .debug_pubnames
                0x00003ce2       0x76 ../cool_bsp/\libucosii_bsp.a(udpsock.o)
 .debug_pubnames
                0x00003d58       0x26 ../cool_bsp/\libucosii_bsp.a(alt_alarm_start.o)
 .debug_pubnames
                0x00003d7e       0x25 ../cool_bsp/\libucosii_bsp.a(alt_busy_sleep.o)
 .debug_pubnames
                0x00003da3       0x20 ../cool_bsp/\libucosii_bsp.a(alt_close.o)
 .debug_pubnames
                0x00003dc3       0x27 ../cool_bsp/\libucosii_bsp.a(alt_dcache_flush.o)
 .debug_pubnames
                0x00003dea       0x78 ../cool_bsp/\libucosii_bsp.a(alt_dev.o)
 .debug_pubnames
                0x00003e62       0x2b ../cool_bsp/\libucosii_bsp.a(alt_dev_llist_insert.o)
 .debug_pubnames
                0x00003e8d       0x20 ../cool_bsp/\libucosii_bsp.a(alt_do_ctors.o)
 .debug_pubnames
                0x00003ead       0x20 ../cool_bsp/\libucosii_bsp.a(alt_do_dtors.o)
 .debug_pubnames
                0x00003ecd       0x20 ../cool_bsp/\libucosii_bsp.a(alt_errno.o)
 .debug_pubnames
                0x00003eed       0x23 ../cool_bsp/\libucosii_bsp.a(alt_find_dev.o)
 .debug_pubnames
                0x00003f10       0x6e ../cool_bsp/\libucosii_bsp.a(alt_iic.o)
 .debug_pubnames
                0x00003f7e       0x2b ../cool_bsp/\libucosii_bsp.a(alt_iic_isr_register.o)
 .debug_pubnames
                0x00003fa9       0x26 ../cool_bsp/\libucosii_bsp.a(alt_io_redirect.o)
 .debug_pubnames
                0x00003fcf       0x32 ../cool_bsp/\libucosii_bsp.a(alt_irq_handler.o)
 .debug_pubnames
                0x00004001       0x1b ../cool_bsp/\libucosii_bsp.a(alt_open.o)
 .debug_pubnames
                0x0000401c       0x1f ../cool_bsp/\libucosii_bsp.a(alt_read.o)
 .debug_pubnames
                0x0000403b       0x25 ../cool_bsp/\libucosii_bsp.a(alt_release_fd.o)
 .debug_pubnames
                0x00004060       0x27 ../cool_bsp/\libucosii_bsp.a(alt_remap_cached.o)
 .debug_pubnames
                0x00004087       0x29 ../cool_bsp/\libucosii_bsp.a(alt_remap_uncached.o)
 .debug_pubnames
                0x000040b0       0x68 ../cool_bsp/\libucosii_bsp.a(alt_tick.o)
 .debug_pubnames
                0x00004118       0x20 ../cool_bsp/\libucosii_bsp.a(alt_write.o)
 .debug_pubnames
                0x00004138       0x31 ../cool_bsp/\libucosii_bsp.a(altera_nios2_qsys_irq.o)
 .debug_pubnames
                0x00004169       0xcd ../cool_bsp/\libucosii_bsp.a(os_cpu_c.o)
 .debug_pubnames
                0x00004236       0x3e ../cool_bsp/\libucosii_bsp.a(altera_avalon_cfi_flash_amd.o)
 .debug_pubnames
                0x00004274       0x42 ../cool_bsp/\libucosii_bsp.a(altera_avalon_cfi_flash_intel.o)
 .debug_pubnames
                0x000042b6       0x2d ../cool_bsp/\libucosii_bsp.a(altera_avalon_spi.o)
 .debug_pubnames
                0x000042e3       0xd4 ../cool_bsp/\libucosii_bsp.a(allports.o)
 .debug_pubnames
                0x000043b7       0x6f ../cool_bsp/\libucosii_bsp.a(timeouts.o)
 .debug_pubnames
                0x00004426       0x35 ../cool_bsp/\libucosii_bsp.a(tk_misc.o)
 .debug_pubnames
                0x0000445b       0x1c ../cool_bsp/\libucosii_bsp.a(alt_iniche_fcntl.o)
 .debug_pubnames
                0x00004477      0x134 ../cool_bsp/\libucosii_bsp.a(et_arp.o)
 .debug_pubnames
                0x000045ab       0x58 ../cool_bsp/\libucosii_bsp.a(iface.o)
 .debug_pubnames
                0x00004603       0xea ../cool_bsp/\libucosii_bsp.a(ip.o)
 .debug_pubnames
                0x000046ed      0x22e ../cool_bsp/\libucosii_bsp.a(ip_reasm.o)
 .debug_pubnames
                0x0000491b       0x3c ../cool_bsp/\libucosii_bsp.a(ipdemux.o)
 .debug_pubnames
                0x00004957       0x43 ../cool_bsp/\libucosii_bsp.a(ipmc.o)
 .debug_pubnames
                0x0000499a       0x99 ../cool_bsp/\libucosii_bsp.a(ipport.o)
 .debug_pubnames
                0x00004a33       0x87 ../cool_bsp/\libucosii_bsp.a(ipraw.o)
 .debug_pubnames
                0x00004aba       0x5d ../cool_bsp/\libucosii_bsp.a(iproute.o)
 .debug_pubnames
                0x00004b17       0x7f ../cool_bsp/\libucosii_bsp.a(udp.o)
 .debug_pubnames
                0x00004b96       0x23 ../cool_bsp/\libucosii_bsp.a(igmp.o)
 .debug_pubnames
                0x00004bb9       0x8d ../cool_bsp/\libucosii_bsp.a(igmp2.o)
 .debug_pubnames
                0x00004c46       0x5f ../cool_bsp/\libucosii_bsp.a(ipopt.o)
 .debug_pubnames
                0x00004ca5       0x35 ../cool_bsp/\libucosii_bsp.a(u_mctest.o)
 .debug_pubnames
                0x00004cda       0x33 ../cool_bsp/\libucosii_bsp.a(dhcsetup.o)
 .debug_pubnames
                0x00004d0d       0xb1 ../cool_bsp/\libucosii_bsp.a(memdev.o)
 .debug_pubnames
                0x00004dbe       0x20 ../cool_bsp/\libucosii_bsp.a(tcpcksum.o)
 .debug_pubnames
                0x00004dde       0xc8 ../cool_bsp/\libucosii_bsp.a(in_pcb.o)
 .debug_pubnames
                0x00004ea6      0x278 ../cool_bsp/\libucosii_bsp.a(vfsfiles.o)
 .debug_pubnames
                0x0000511e       0x1f ../cool_bsp/\libucosii_bsp.a(vfsport.o)
 .debug_pubnames
                0x0000513d       0x20 ../cool_bsp/\libucosii_bsp.a(alt_fcntl.o)
 .debug_pubnames
                0x0000515d       0x24 ../cool_bsp/\libucosii_bsp.a(alt_find_file.o)
 .debug_pubnames
                0x00005181       0x21 ../cool_bsp/\libucosii_bsp.a(alt_get_fd.o)
 .debug_pubnames
                0x000051a2       0x66 ../cool_bsp/\libucosii_bsp.a(icmp.o)
 .debug_pubnames
                0x00005208       0x2a c:/altera/13.0/nios2eds/bin/gnu/h-i686-mingw32/bin/../lib/gcc/nios2-elf/4.1.2/../../../../nios2-elf/lib/mno-hw-mul\libc.a(lib_a-atexit.o)
 .debug_pubnames
                0x00005232       0x27 c:/altera/13.0/nios2eds/bin/gnu/h-i686-mingw32/bin/../lib/gcc/nios2-elf/4.1.2/../../../../nios2-elf/lib/mno-hw-mul\libc.a(lib_a-atoi.o)
 .debug_pubnames
                0x00005259       0x1d c:/altera/13.0/nios2eds/bin/gnu/h-i686-mingw32/bin/../lib/gcc/nios2-elf/4.1.2/../../../../nios2-elf/lib/mno-hw-mul\libc.a(lib_a-calloc.o)
 .debug_pubnames
                0x00005276       0x26 c:/altera/13.0/nios2eds/bin/gnu/h-i686-mingw32/bin/../lib/gcc/nios2-elf/4.1.2/../../../../nios2-elf/lib/mno-hw-mul\libc.a(lib_a-malloc.o)
 .debug_pubnames
                0x0000529c       0x1d c:/altera/13.0/nios2eds/bin/gnu/h-i686-mingw32/bin/../lib/gcc/nios2-elf/4.1.2/../../../../nios2-elf/lib/mno-hw-mul\libc.a(lib_a-memcmp.o)
 .debug_pubnames
                0x000052b9       0x2d c:/altera/13.0/nios2eds/bin/gnu/h-i686-mingw32/bin/../lib/gcc/nios2-elf/4.1.2/../../../../nios2-elf/lib/mno-hw-mul\libc.a(lib_a-sprintf.o)
 .debug_pubnames
                0x000052e6       0x1d c:/altera/13.0/nios2eds/bin/gnu/h-i686-mingw32/bin/../lib/gcc/nios2-elf/4.1.2/../../../../nios2-elf/lib/mno-hw-mul\libc.a(lib_a-strcpy.o)
 .debug_pubnames
                0x00005303       0x1e c:/altera/13.0/nios2eds/bin/gnu/h-i686-mingw32/bin/../lib/gcc/nios2-elf/4.1.2/../../../../nios2-elf/lib/mno-hw-mul\libc.a(lib_a-strncmp.o)
 .debug_pubnames
                0x00005321       0x1e c:/altera/13.0/nios2eds/bin/gnu/h-i686-mingw32/bin/../lib/gcc/nios2-elf/4.1.2/../../../../nios2-elf/lib/mno-hw-mul\libc.a(lib_a-strncpy.o)
 .debug_pubnames
                0x0000533f       0x2b c:/altera/13.0/nios2eds/bin/gnu/h-i686-mingw32/bin/../lib/gcc/nios2-elf/4.1.2/../../../../nios2-elf/lib/mno-hw-mul\libc.a(lib_a-strtol.o)
 .debug_pubnames
                0x0000536a       0x2d c:/altera/13.0/nios2eds/bin/gnu/h-i686-mingw32/bin/../lib/gcc/nios2-elf/4.1.2/../../../../nios2-elf/lib/mno-hw-mul\libc.a(lib_a-vprintf.o)
 .debug_pubnames
                0x00005397       0x2f c:/altera/13.0/nios2eds/bin/gnu/h-i686-mingw32/bin/../lib/gcc/nios2-elf/4.1.2/../../../../nios2-elf/lib/mno-hw-mul\libc.a(lib_a-vsprintf.o)
 .debug_pubnames
                0x000053c6       0x2a c:/altera/13.0/nios2eds/bin/gnu/h-i686-mingw32/bin/../lib/gcc/nios2-elf/4.1.2/../../../../nios2-elf/lib/mno-hw-mul\libc.a(lib_a-__atexit.o)

.debug_info     0x00000000    0x7a9bb
 *(.debug_info .gnu.linkonce.wi.*)
 .debug_info    0x00000000       0x8c ../cool_bsp//obj/HAL/src/crt0.o
 .debug_info    0x0000008c      0x736 obj/default/SSS_DE2_115.o
 .debug_info    0x000007c2      0xd7d obj/default/alt_error_handler.o
 .debug_info    0x0000153f     0x126a obj/default/dm9000a.o
 .debug_info    0x000027a9     0x1006 obj/default/iniche_init.o
 .debug_info    0x000037af      0x483 obj/default/led.o
 .debug_info    0x00003c32     0x1baa obj/default/network_utilities.o
 .debug_info    0x000057dc      0x9e1 obj/default/simple_socket_server.o
 .debug_info    0x000061bd        0x0 obj/default/tse_my_system.o
 .debug_info    0x000061bd       0xce c:/altera/13.0/nios2eds/bin/gnu/h-i686-mingw32/bin/../lib/gcc/nios2-elf/4.1.2/mno-hw-mul\libgcc.a(_fixunsdfsi.o)
 .debug_info    0x0000628b      0x493 c:/altera/13.0/nios2eds/bin/gnu/h-i686-mingw32/bin/../lib/gcc/nios2-elf/4.1.2/mno-hw-mul\libgcc.a(_addsub_df.o)
 .debug_info    0x0000671e      0x488 c:/altera/13.0/nios2eds/bin/gnu/h-i686-mingw32/bin/../lib/gcc/nios2-elf/4.1.2/mno-hw-mul\libgcc.a(_mul_df.o)
 .debug_info    0x00006ba6      0x29d c:/altera/13.0/nios2eds/bin/gnu/h-i686-mingw32/bin/../lib/gcc/nios2-elf/4.1.2/mno-hw-mul\libgcc.a(_ge_df.o)
 .debug_info    0x00006e43      0x2cd c:/altera/13.0/nios2eds/bin/gnu/h-i686-mingw32/bin/../lib/gcc/nios2-elf/4.1.2/mno-hw-mul\libgcc.a(_df_to_si.o)
 .debug_info    0x00007110      0x164 c:/altera/13.0/nios2eds/bin/gnu/h-i686-mingw32/bin/../lib/gcc/nios2-elf/4.1.2/mno-hw-mul\libgcc.a(_thenan_df.o)
 .debug_info    0x00007274      0x213 c:/altera/13.0/nios2eds/bin/gnu/h-i686-mingw32/bin/../lib/gcc/nios2-elf/4.1.2/mno-hw-mul\libgcc.a(_usi_to_df.o)
 .debug_info    0x00007487       0xf3 c:/altera/13.0/nios2eds/bin/gnu/h-i686-mingw32/bin/../lib/gcc/nios2-elf/4.1.2/mno-hw-mul\libgcc.a(lib2-mul.o)
 .debug_info    0x0000757a      0x210 c:/altera/13.0/nios2eds/bin/gnu/h-i686-mingw32/bin/../lib/gcc/nios2-elf/4.1.2/mno-hw-mul\libgcc.a(_muldi3.o)
 .debug_info    0x0000778a      0x130 c:/altera/13.0/nios2eds/bin/gnu/h-i686-mingw32/bin/../lib/gcc/nios2-elf/4.1.2/mno-hw-mul\libgcc.a(_clzsi2.o)
 .debug_info    0x000078ba      0x2fc c:/altera/13.0/nios2eds/bin/gnu/h-i686-mingw32/bin/../lib/gcc/nios2-elf/4.1.2/mno-hw-mul\libgcc.a(_pack_df.o)
 .debug_info    0x00007bb6      0x268 c:/altera/13.0/nios2eds/bin/gnu/h-i686-mingw32/bin/../lib/gcc/nios2-elf/4.1.2/mno-hw-mul\libgcc.a(_unpack_df.o)
 .debug_info    0x00007e1e      0x21b c:/altera/13.0/nios2eds/bin/gnu/h-i686-mingw32/bin/../lib/gcc/nios2-elf/4.1.2/mno-hw-mul\libgcc.a(_fpcmp_parts_df.o)
 .debug_info    0x00008039       0xc9 c:/altera/13.0/nios2eds/bin/gnu/h-i686-mingw32/bin/../lib/gcc/nios2-elf/4.1.2/mno-hw-mul\libgcc.a(_clz.o)
 .debug_info    0x00008102       0xa0 c:/altera/13.0/nios2eds/bin/gnu/h-i686-mingw32/bin/../lib/gcc/nios2-elf/4.1.2/../../../../nios2-elf/lib/mno-hw-mul\libc.a(lib_a-ctype_.o)
 .debug_info    0x000081a2      0x93f c:/altera/13.0/nios2eds/bin/gnu/h-i686-mingw32/bin/../lib/gcc/nios2-elf/4.1.2/../../../../nios2-elf/lib/mno-hw-mul\libc.a(lib_a-exit.o)
 .debug_info    0x00008ae1      0x9e1 c:/altera/13.0/nios2eds/bin/gnu/h-i686-mingw32/bin/../lib/gcc/nios2-elf/4.1.2/../../../../nios2-elf/lib/mno-hw-mul\libc.a(lib_a-fprintf.o)
 .debug_info    0x000094c2      0xa83 c:/altera/13.0/nios2eds/bin/gnu/h-i686-mingw32/bin/../lib/gcc/nios2-elf/4.1.2/../../../../nios2-elf/lib/mno-hw-mul\libc.a(lib_a-fwrite.o)
 .debug_info    0x00009f45      0x9a7 c:/altera/13.0/nios2eds/bin/gnu/h-i686-mingw32/bin/../lib/gcc/nios2-elf/4.1.2/../../../../nios2-elf/lib/mno-hw-mul\libc.a(lib_a-getc.o)
 .debug_info    0x0000a8ec      0x93d c:/altera/13.0/nios2eds/bin/gnu/h-i686-mingw32/bin/../lib/gcc/nios2-elf/4.1.2/../../../../nios2-elf/lib/mno-hw-mul\libc.a(lib_a-impure.o)
 .debug_info    0x0000b229      0x106 c:/altera/13.0/nios2eds/bin/gnu/h-i686-mingw32/bin/../lib/gcc/nios2-elf/4.1.2/../../../../nios2-elf/lib/mno-hw-mul\libc.a(lib_a-memcpy.o)
 .debug_info    0x0000b32f      0x13e c:/altera/13.0/nios2eds/bin/gnu/h-i686-mingw32/bin/../lib/gcc/nios2-elf/4.1.2/../../../../nios2-elf/lib/mno-hw-mul\libc.a(lib_a-memmove.o)
 .debug_info    0x0000b46d      0x113 c:/altera/13.0/nios2eds/bin/gnu/h-i686-mingw32/bin/../lib/gcc/nios2-elf/4.1.2/../../../../nios2-elf/lib/mno-hw-mul\libc.a(lib_a-memset.o)
 .debug_info    0x0000b580      0x97b c:/altera/13.0/nios2eds/bin/gnu/h-i686-mingw32/bin/../lib/gcc/nios2-elf/4.1.2/../../../../nios2-elf/lib/mno-hw-mul\libc.a(lib_a-perror.o)
 .debug_info    0x0000befb      0x9d1 c:/altera/13.0/nios2eds/bin/gnu/h-i686-mingw32/bin/../lib/gcc/nios2-elf/4.1.2/../../../../nios2-elf/lib/mno-hw-mul\libc.a(lib_a-printf.o)
 .debug_info    0x0000c8cc      0x9c1 c:/altera/13.0/nios2eds/bin/gnu/h-i686-mingw32/bin/../lib/gcc/nios2-elf/4.1.2/../../../../nios2-elf/lib/mno-hw-mul\libc.a(lib_a-putc.o)
 .debug_info    0x0000d28d      0x972 c:/altera/13.0/nios2eds/bin/gnu/h-i686-mingw32/bin/../lib/gcc/nios2-elf/4.1.2/../../../../nios2-elf/lib/mno-hw-mul\libc.a(lib_a-putchar.o)
 .debug_info    0x0000dbff      0xa25 c:/altera/13.0/nios2eds/bin/gnu/h-i686-mingw32/bin/../lib/gcc/nios2-elf/4.1.2/../../../../nios2-elf/lib/mno-hw-mul\libc.a(lib_a-puts.o)
 .debug_info    0x0000e624      0x987 c:/altera/13.0/nios2eds/bin/gnu/h-i686-mingw32/bin/../lib/gcc/nios2-elf/4.1.2/../../../../nios2-elf/lib/mno-hw-mul\libc.a(lib_a-rget.o)
 .debug_info    0x0000efab      0x118 c:/altera/13.0/nios2eds/bin/gnu/h-i686-mingw32/bin/../lib/gcc/nios2-elf/4.1.2/../../../../nios2-elf/lib/mno-hw-mul\libc.a(lib_a-strchr.o)
 .debug_info    0x0000f0c3       0xbb c:/altera/13.0/nios2eds/bin/gnu/h-i686-mingw32/bin/../lib/gcc/nios2-elf/4.1.2/../../../../nios2-elf/lib/mno-hw-mul\libc.a(lib_a-strerror.o)
 .debug_info    0x0000f17e       0xdb c:/altera/13.0/nios2eds/bin/gnu/h-i686-mingw32/bin/../lib/gcc/nios2-elf/4.1.2/../../../../nios2-elf/lib/mno-hw-mul\libc.a(lib_a-strlen.o)
 .debug_info    0x0000f259       0x63 c:/altera/13.0/nios2eds/bin/gnu/h-i686-mingw32/bin/../lib/gcc/nios2-elf/4.1.2/../../../../nios2-elf/lib/mno-hw-mul\libc.a(lib_a-u_strerr.o)
 .debug_info    0x0000f2bc     0x10d5 c:/altera/13.0/nios2eds/bin/gnu/h-i686-mingw32/bin/../lib/gcc/nios2-elf/4.1.2/../../../../nios2-elf/lib/mno-hw-mul\libc.a(lib_a-vfprintf.o)
 .debug_info    0x00010391      0x9ae c:/altera/13.0/nios2eds/bin/gnu/h-i686-mingw32/bin/../lib/gcc/nios2-elf/4.1.2/../../../../nios2-elf/lib/mno-hw-mul\libc.a(lib_a-wbuf.o)
 .debug_info    0x00010d3f      0x95d c:/altera/13.0/nios2eds/bin/gnu/h-i686-mingw32/bin/../lib/gcc/nios2-elf/4.1.2/../../../../nios2-elf/lib/mno-hw-mul\libc.a(lib_a-wsetup.o)
 .debug_info    0x0001169c      0x9e2 c:/altera/13.0/nios2eds/bin/gnu/h-i686-mingw32/bin/../lib/gcc/nios2-elf/4.1.2/../../../../nios2-elf/lib/mno-hw-mul\libc.a(lib_a-__call_atexit.o)
 .debug_info    0x0001207e      0xd6f c:/altera/13.0/nios2eds/bin/gnu/h-i686-mingw32/bin/../lib/gcc/nios2-elf/4.1.2/../../../../nios2-elf/lib/mno-hw-mul\libc.a(lib_a-dtoa.o)
 .debug_info    0x00012ded      0x9fe c:/altera/13.0/nios2eds/bin/gnu/h-i686-mingw32/bin/../lib/gcc/nios2-elf/4.1.2/../../../../nios2-elf/lib/mno-hw-mul\libc.a(lib_a-fflush.o)
 .debug_info    0x000137eb      0xb72 c:/altera/13.0/nios2eds/bin/gnu/h-i686-mingw32/bin/../lib/gcc/nios2-elf/4.1.2/../../../../nios2-elf/lib/mno-hw-mul\libc.a(lib_a-findfp.o)
 .debug_info    0x0001435d      0x9bd c:/altera/13.0/nios2eds/bin/gnu/h-i686-mingw32/bin/../lib/gcc/nios2-elf/4.1.2/../../../../nios2-elf/lib/mno-hw-mul\libc.a(lib_a-fputc.o)
 .debug_info    0x00014d1a      0xa40 c:/altera/13.0/nios2eds/bin/gnu/h-i686-mingw32/bin/../lib/gcc/nios2-elf/4.1.2/../../../../nios2-elf/lib/mno-hw-mul\libc.a(lib_a-fputs.o)
 .debug_info    0x0001575a      0xbc9 c:/altera/13.0/nios2eds/bin/gnu/h-i686-mingw32/bin/../lib/gcc/nios2-elf/4.1.2/../../../../nios2-elf/lib/mno-hw-mul\libc.a(lib_a-freer.o)
 .debug_info    0x00016323      0xa88 c:/altera/13.0/nios2eds/bin/gnu/h-i686-mingw32/bin/../lib/gcc/nios2-elf/4.1.2/../../../../nios2-elf/lib/mno-hw-mul\libc.a(lib_a-fvwrite.o)
 .debug_info    0x00016dab      0xaed c:/altera/13.0/nios2eds/bin/gnu/h-i686-mingw32/bin/../lib/gcc/nios2-elf/4.1.2/../../../../nios2-elf/lib/mno-hw-mul\libc.a(lib_a-fwalk.o)
 .debug_info    0x00017898      0xb97 c:/altera/13.0/nios2eds/bin/gnu/h-i686-mingw32/bin/../lib/gcc/nios2-elf/4.1.2/../../../../nios2-elf/lib/mno-hw-mul\libc.a(lib_a-locale.o)
 .debug_info    0x0001842f      0xb1a c:/altera/13.0/nios2eds/bin/gnu/h-i686-mingw32/bin/../lib/gcc/nios2-elf/4.1.2/../../../../nios2-elf/lib/mno-hw-mul\libc.a(lib_a-makebuf.o)
 .debug_info    0x00018f49      0xcd0 c:/altera/13.0/nios2eds/bin/gnu/h-i686-mingw32/bin/../lib/gcc/nios2-elf/4.1.2/../../../../nios2-elf/lib/mno-hw-mul\libc.a(lib_a-mallocr.o)
 .debug_info    0x00019c19      0x138 c:/altera/13.0/nios2eds/bin/gnu/h-i686-mingw32/bin/../lib/gcc/nios2-elf/4.1.2/../../../../nios2-elf/lib/mno-hw-mul\libc.a(lib_a-memchr.o)
 .debug_info    0x00019d51     0x143b c:/altera/13.0/nios2eds/bin/gnu/h-i686-mingw32/bin/../lib/gcc/nios2-elf/4.1.2/../../../../nios2-elf/lib/mno-hw-mul\libc.a(lib_a-mprec.o)
 .debug_info    0x0001b18c      0xbd7 c:/altera/13.0/nios2eds/bin/gnu/h-i686-mingw32/bin/../lib/gcc/nios2-elf/4.1.2/../../../../nios2-elf/lib/mno-hw-mul\libc.a(lib_a-reallocr.o)
 .debug_info    0x0001bd63      0x98b c:/altera/13.0/nios2eds/bin/gnu/h-i686-mingw32/bin/../lib/gcc/nios2-elf/4.1.2/../../../../nios2-elf/lib/mno-hw-mul\libc.a(lib_a-refill.o)
 .debug_info    0x0001c6ee       0xd7 c:/altera/13.0/nios2eds/bin/gnu/h-i686-mingw32/bin/../lib/gcc/nios2-elf/4.1.2/../../../../nios2-elf/lib/mno-hw-mul\libc.a(lib_a-s_isinfd.o)
 .debug_info    0x0001c7c5       0xd5 c:/altera/13.0/nios2eds/bin/gnu/h-i686-mingw32/bin/../lib/gcc/nios2-elf/4.1.2/../../../../nios2-elf/lib/mno-hw-mul\libc.a(lib_a-s_isnand.o)
 .debug_info    0x0001c89a      0x962 c:/altera/13.0/nios2eds/bin/gnu/h-i686-mingw32/bin/../lib/gcc/nios2-elf/4.1.2/../../../../nios2-elf/lib/mno-hw-mul\libc.a(lib_a-sbrkr.o)
 .debug_info    0x0001d1fc      0xaac c:/altera/13.0/nios2eds/bin/gnu/h-i686-mingw32/bin/../lib/gcc/nios2-elf/4.1.2/../../../../nios2-elf/lib/mno-hw-mul\libc.a(lib_a-stdio.o)
 .debug_info    0x0001dca8       0xdd c:/altera/13.0/nios2eds/bin/gnu/h-i686-mingw32/bin/../lib/gcc/nios2-elf/4.1.2/../../../../nios2-elf/lib/mno-hw-mul\libc.a(lib_a-strcmp.o)
 .debug_info    0x0001dd85      0x993 c:/altera/13.0/nios2eds/bin/gnu/h-i686-mingw32/bin/../lib/gcc/nios2-elf/4.1.2/../../../../nios2-elf/lib/mno-hw-mul\libc.a(lib_a-writer.o)
 .debug_info    0x0001e718      0xa1b c:/altera/13.0/nios2eds/bin/gnu/h-i686-mingw32/bin/../lib/gcc/nios2-elf/4.1.2/../../../../nios2-elf/lib/mno-hw-mul\libc.a(lib_a-callocr.o)
 .debug_info    0x0001f133      0x958 c:/altera/13.0/nios2eds/bin/gnu/h-i686-mingw32/bin/../lib/gcc/nios2-elf/4.1.2/../../../../nios2-elf/lib/mno-hw-mul\libc.a(lib_a-closer.o)
 .debug_info    0x0001fa8b      0x994 c:/altera/13.0/nios2eds/bin/gnu/h-i686-mingw32/bin/../lib/gcc/nios2-elf/4.1.2/../../../../nios2-elf/lib/mno-hw-mul\libc.a(lib_a-fclose.o)
 .debug_info    0x0002041f      0xafc c:/altera/13.0/nios2eds/bin/gnu/h-i686-mingw32/bin/../lib/gcc/nios2-elf/4.1.2/../../../../nios2-elf/lib/mno-hw-mul\libc.a(lib_a-fstatr.o)
 .debug_info    0x00020f1b       0x8c c:/altera/13.0/nios2eds/bin/gnu/h-i686-mingw32/bin/../lib/gcc/nios2-elf/4.1.2/../../../../nios2-elf/lib/mno-hw-mul\libc.a(lib_a-int_errno.o)
 .debug_info    0x00020fa7      0x958 c:/altera/13.0/nios2eds/bin/gnu/h-i686-mingw32/bin/../lib/gcc/nios2-elf/4.1.2/../../../../nios2-elf/lib/mno-hw-mul\libc.a(lib_a-isattyr.o)
 .debug_info    0x000218ff      0x981 c:/altera/13.0/nios2eds/bin/gnu/h-i686-mingw32/bin/../lib/gcc/nios2-elf/4.1.2/../../../../nios2-elf/lib/mno-hw-mul\libc.a(lib_a-lseekr.o)
 .debug_info    0x00022280      0x98c c:/altera/13.0/nios2eds/bin/gnu/h-i686-mingw32/bin/../lib/gcc/nios2-elf/4.1.2/../../../../nios2-elf/lib/mno-hw-mul\libc.a(lib_a-readr.o)
 .debug_info    0x00022c0c      0x71c c:/altera/13.0/nios2eds/bin/gnu/h-i686-mingw32/bin/../lib/gcc/nios2-elf/4.1.2/mno-hw-mul\libgcc.a(_udivdi3.o)
 .debug_info    0x00023328      0x749 c:/altera/13.0/nios2eds/bin/gnu/h-i686-mingw32/bin/../lib/gcc/nios2-elf/4.1.2/mno-hw-mul\libgcc.a(_umoddi3.o)
 .debug_info    0x00023a71      0x39b c:/altera/13.0/nios2eds/bin/gnu/h-i686-mingw32/bin/../lib/gcc/nios2-elf/4.1.2/mno-hw-mul\libgcc.a(_div_df.o)
 .debug_info    0x00023e0c      0x29d c:/altera/13.0/nios2eds/bin/gnu/h-i686-mingw32/bin/../lib/gcc/nios2-elf/4.1.2/mno-hw-mul\libgcc.a(_eq_df.o)
 .debug_info    0x000240a9      0x29d c:/altera/13.0/nios2eds/bin/gnu/h-i686-mingw32/bin/../lib/gcc/nios2-elf/4.1.2/mno-hw-mul\libgcc.a(_ne_df.o)
 .debug_info    0x00024346      0x29d c:/altera/13.0/nios2eds/bin/gnu/h-i686-mingw32/bin/../lib/gcc/nios2-elf/4.1.2/mno-hw-mul\libgcc.a(_gt_df.o)
 .debug_info    0x000245e3      0x29d c:/altera/13.0/nios2eds/bin/gnu/h-i686-mingw32/bin/../lib/gcc/nios2-elf/4.1.2/mno-hw-mul\libgcc.a(_lt_df.o)
 .debug_info    0x00024880      0x218 c:/altera/13.0/nios2eds/bin/gnu/h-i686-mingw32/bin/../lib/gcc/nios2-elf/4.1.2/mno-hw-mul\libgcc.a(_si_to_df.o)
 .debug_info    0x00024a98      0x21c c:/altera/13.0/nios2eds/bin/gnu/h-i686-mingw32/bin/../lib/gcc/nios2-elf/4.1.2/mno-hw-mul\libgcc.a(lib2-divmod.o)
 .debug_info    0x00024cb4      0x215 ../cool_bsp/\libucosii_bsp.a(alt_exit.o)
 .debug_info    0x00024ec9      0x5fa ../cool_bsp/\libucosii_bsp.a(alt_flash_dev.o)
 .debug_info    0x000254c3      0x6c1 ../cool_bsp/\libucosii_bsp.a(alt_fstat.o)
 .debug_info    0x00025b84      0x477 ../cool_bsp/\libucosii_bsp.a(alt_irq_register.o)
 .debug_info    0x00025ffb      0x174 ../cool_bsp/\libucosii_bsp.a(alt_irq_vars.o)
 .debug_info    0x0002616f      0x6c7 ../cool_bsp/\libucosii_bsp.a(alt_isatty.o)
 .debug_info    0x00026836      0x4fb ../cool_bsp/\libucosii_bsp.a(alt_lseek.o)
 .debug_info    0x00026d31      0x3ea ../cool_bsp/\libucosii_bsp.a(alt_main.o)
 .debug_info    0x0002711b      0x2c4 ../cool_bsp/\libucosii_bsp.a(alt_sbrk.o)
 .debug_info    0x000273df      0x241 ../cool_bsp/\libucosii_bsp.a(alt_usleep.o)
 .debug_info    0x00027620     0x11e0 ../cool_bsp/\libucosii_bsp.a(alt_env_lock.o)
 .debug_info    0x00028800     0x133c ../cool_bsp/\libucosii_bsp.a(alt_malloc_lock.o)
 .debug_info    0x00029b3c     0x1bf6 ../cool_bsp/\libucosii_bsp.a(os_core.o)
 .debug_info    0x0002b732     0x113b ../cool_bsp/\libucosii_bsp.a(os_dbg.o)
 .debug_info    0x0002c86d     0x1251 ../cool_bsp/\libucosii_bsp.a(os_flag.o)
 .debug_info    0x0002dabe      0x81b ../cool_bsp/\libucosii_bsp.a(os_mem.o)
 .debug_info    0x0002e2d9     0x108b ../cool_bsp/\libucosii_bsp.a(os_q.o)
 .debug_info    0x0002f364      0xcf3 ../cool_bsp/\libucosii_bsp.a(os_sem.o)
 .debug_info    0x00030057     0x1369 ../cool_bsp/\libucosii_bsp.a(os_task.o)
 .debug_info    0x000313c0      0x9ed ../cool_bsp/\libucosii_bsp.a(os_time.o)
 .debug_info    0x00031dad      0xeef ../cool_bsp/\libucosii_bsp.a(alt_sys_init.o)
 .debug_info    0x00032c9c      0xb56 ../cool_bsp/\libucosii_bsp.a(altera_avalon_cfi_flash.o)
 .debug_info    0x000337f2      0xe42 ../cool_bsp/\libucosii_bsp.a(altera_avalon_cfi_flash_table.o)
 .debug_info    0x00034634      0xbb6 ../cool_bsp/\libucosii_bsp.a(altera_avalon_epcs_flash_controller.o)
 .debug_info    0x000351ea      0x9df ../cool_bsp/\libucosii_bsp.a(altera_avalon_jtag_uart_fd.o)
 .debug_info    0x00035bc9      0x95d ../cool_bsp/\libucosii_bsp.a(altera_avalon_jtag_uart_init.o)
 .debug_info    0x00036526      0x649 ../cool_bsp/\libucosii_bsp.a(altera_avalon_jtag_uart_ioctl.o)
 .debug_info    0x00036b6f      0x805 ../cool_bsp/\libucosii_bsp.a(altera_avalon_jtag_uart_read.o)
 .debug_info    0x00037374      0x7fc ../cool_bsp/\libucosii_bsp.a(altera_avalon_jtag_uart_write.o)
 .debug_info    0x00037b70      0x398 ../cool_bsp/\libucosii_bsp.a(altera_avalon_timer_sc.o)
 .debug_info    0x00037f08      0x649 ../cool_bsp/\libucosii_bsp.a(epcs_commands.o)
 .debug_info    0x00038551      0x1c3 ../cool_bsp/\libucosii_bsp.a(alt_iniche_close.o)
 .debug_info    0x00038714      0xb6a ../cool_bsp/\libucosii_bsp.a(alt_iniche_dev.o)
 .debug_info    0x0003927e      0x1ed ../cool_bsp/\libucosii_bsp.a(alt_iniche_read.o)
 .debug_info    0x0003946b      0x1f4 ../cool_bsp/\libucosii_bsp.a(alt_iniche_write.o)
 .debug_info    0x0003965f      0xc56 ../cool_bsp/\libucosii_bsp.a(ipnet.o)
 .debug_info    0x0003a2b5      0xba9 ../cool_bsp/\libucosii_bsp.a(ipstart.o)
 .debug_info    0x0003ae5e     0x153d ../cool_bsp/\libucosii_bsp.a(igmp_cmn.o)
 .debug_info    0x0003c39b     0x146d ../cool_bsp/\libucosii_bsp.a(bsdsock.o)
 .debug_info    0x0003d808      0x25f ../cool_bsp/\libucosii_bsp.a(cksum.o)
 .debug_info    0x0003da67      0x751 ../cool_bsp/\libucosii_bsp.a(in_utils.o)
 .debug_info    0x0003e1b8      0x56b ../cool_bsp/\libucosii_bsp.a(netmain.o)
 .debug_info    0x0003e723      0x6f7 ../cool_bsp/\libucosii_bsp.a(parseip.o)
 .debug_info    0x0003ee1a      0x978 ../cool_bsp/\libucosii_bsp.a(tk_crnos.o)
 .debug_info    0x0003f792     0x1606 ../cool_bsp/\libucosii_bsp.a(dhcpclnt.o)
 .debug_info    0x00040d98      0x1e9 ../cool_bsp/\libucosii_bsp.a(dhcputil.o)
 .debug_info    0x00040f81      0xcb5 ../cool_bsp/\libucosii_bsp.a(pktalloc.o)
 .debug_info    0x00041c36      0x2f9 ../cool_bsp/\libucosii_bsp.a(q.o)
 .debug_info    0x00041f2f      0xb34 ../cool_bsp/\libucosii_bsp.a(udp_open.o)
 .debug_info    0x00042a63       0x9a ../cool_bsp/\libucosii_bsp.a(asm_cksum.o)
 .debug_info    0x00042afd      0xeba ../cool_bsp/\libucosii_bsp.a(brdutils.o)
 .debug_info    0x000439b7      0x6ec ../cool_bsp/\libucosii_bsp.a(osportco.o)
 .debug_info    0x000440a3      0x669 ../cool_bsp/\libucosii_bsp.a(targnios.o)
 .debug_info    0x0004470c     0x2530 ../cool_bsp/\libucosii_bsp.a(nptcp.o)
 .debug_info    0x00046c3c     0x11e8 ../cool_bsp/\libucosii_bsp.a(rawsock.o)
 .debug_info    0x00047e24     0x1ca6 ../cool_bsp/\libucosii_bsp.a(sockcall.o)
 .debug_info    0x00049aca     0x1aac ../cool_bsp/\libucosii_bsp.a(socket.o)
 .debug_info    0x0004b576     0x1572 ../cool_bsp/\libucosii_bsp.a(socket2.o)
 .debug_info    0x0004cae8     0x128b ../cool_bsp/\libucosii_bsp.a(soselect.o)
 .debug_info    0x0004dd73     0x213d ../cool_bsp/\libucosii_bsp.a(tcp_in.o)
 .debug_info    0x0004feb0     0x1e2c ../cool_bsp/\libucosii_bsp.a(tcp_out.o)
 .debug_info    0x00051cdc     0x1e94 ../cool_bsp/\libucosii_bsp.a(tcp_subr.o)
 .debug_info    0x00053b70     0x1caf ../cool_bsp/\libucosii_bsp.a(tcp_timr.o)
 .debug_info    0x0005581f     0x1c6c ../cool_bsp/\libucosii_bsp.a(tcp_usr.o)
 .debug_info    0x0005748b      0x1bf ../cool_bsp/\libucosii_bsp.a(tcpport.o)
 .debug_info    0x0005764a     0x1342 ../cool_bsp/\libucosii_bsp.a(udpsock.o)
 .debug_info    0x0005898c      0x44f ../cool_bsp/\libucosii_bsp.a(alt_alarm_start.o)
 .debug_info    0x00058ddb      0x1b8 ../cool_bsp/\libucosii_bsp.a(alt_busy_sleep.o)
 .debug_info    0x00058f93      0x4cc ../cool_bsp/\libucosii_bsp.a(alt_close.o)
 .debug_info    0x0005945f      0x191 ../cool_bsp/\libucosii_bsp.a(alt_dcache_flush.o)
 .debug_info    0x000595f0      0x7ea ../cool_bsp/\libucosii_bsp.a(alt_dev.o)
 .debug_info    0x00059dda      0x2c4 ../cool_bsp/\libucosii_bsp.a(alt_dev_llist_insert.o)
 .debug_info    0x0005a09e      0x11c ../cool_bsp/\libucosii_bsp.a(alt_do_ctors.o)
 .debug_info    0x0005a1ba      0x11b ../cool_bsp/\libucosii_bsp.a(alt_do_dtors.o)
 .debug_info    0x0005a2d5      0x171 ../cool_bsp/\libucosii_bsp.a(alt_errno.o)
 .debug_info    0x0005a446      0x479 ../cool_bsp/\libucosii_bsp.a(alt_find_dev.o)
 .debug_info    0x0005a8bf      0x4a0 ../cool_bsp/\libucosii_bsp.a(alt_iic.o)
 .debug_info    0x0005ad5f      0x321 ../cool_bsp/\libucosii_bsp.a(alt_iic_isr_register.o)
 .debug_info    0x0005b080      0x6f6 ../cool_bsp/\libucosii_bsp.a(alt_io_redirect.o)
 .debug_info    0x0005b776       0x91 ../cool_bsp/\libucosii_bsp.a(alt_irq_entry.o)
 .debug_info    0x0005b807      0x2c7 ../cool_bsp/\libucosii_bsp.a(alt_irq_handler.o)
 .debug_info    0x0005bace      0x577 ../cool_bsp/\libucosii_bsp.a(alt_open.o)
 .debug_info    0x0005c045      0x6ef ../cool_bsp/\libucosii_bsp.a(alt_read.o)
 .debug_info    0x0005c734      0x45c ../cool_bsp/\libucosii_bsp.a(alt_release_fd.o)
 .debug_info    0x0005cb90      0x19e ../cool_bsp/\libucosii_bsp.a(alt_remap_cached.o)
 .debug_info    0x0005cd2e      0x1a2 ../cool_bsp/\libucosii_bsp.a(alt_remap_uncached.o)
 .debug_info    0x0005ced0      0x41e ../cool_bsp/\libucosii_bsp.a(alt_tick.o)
 .debug_info    0x0005d2ee      0x6f8 ../cool_bsp/\libucosii_bsp.a(alt_write.o)
 .debug_info    0x0005d9e6      0x170 ../cool_bsp/\libucosii_bsp.a(altera_nios2_qsys_irq.o)
 .debug_info    0x0005db56       0x90 ../cool_bsp/\libucosii_bsp.a(os_cpu_a.o)
 .debug_info    0x0005dbe6     0x12e0 ../cool_bsp/\libucosii_bsp.a(os_cpu_c.o)
 .debug_info    0x0005eec6      0x8f6 ../cool_bsp/\libucosii_bsp.a(altera_avalon_cfi_flash_amd.o)
 .debug_info    0x0005f7bc      0x8ec ../cool_bsp/\libucosii_bsp.a(altera_avalon_cfi_flash_intel.o)
 .debug_info    0x000600a8      0x2b6 ../cool_bsp/\libucosii_bsp.a(altera_avalon_spi.o)
 .debug_info    0x0006035e      0xdac ../cool_bsp/\libucosii_bsp.a(allports.o)
 .debug_info    0x0006110a      0x3ce ../cool_bsp/\libucosii_bsp.a(timeouts.o)
 .debug_info    0x000614d8      0x22d ../cool_bsp/\libucosii_bsp.a(tk_misc.o)
 .debug_info    0x00061705      0x21a ../cool_bsp/\libucosii_bsp.a(alt_iniche_fcntl.o)
 .debug_info    0x0006191f     0x1286 ../cool_bsp/\libucosii_bsp.a(et_arp.o)
 .debug_info    0x00062ba5      0xfa4 ../cool_bsp/\libucosii_bsp.a(iface.o)
 .debug_info    0x00063b49     0x1714 ../cool_bsp/\libucosii_bsp.a(ip.o)
 .debug_info    0x0006525d     0x1875 ../cool_bsp/\libucosii_bsp.a(ip_reasm.o)
 .debug_info    0x00066ad2      0xdf6 ../cool_bsp/\libucosii_bsp.a(ipdemux.o)
 .debug_info    0x000678c8      0xa52 ../cool_bsp/\libucosii_bsp.a(ipmc.o)
 .debug_info    0x0006831a      0x2f0 ../cool_bsp/\libucosii_bsp.a(ipport.o)
 .debug_info    0x0006860a      0xf63 ../cool_bsp/\libucosii_bsp.a(ipraw.o)
 .debug_info    0x0006956d      0xf0e ../cool_bsp/\libucosii_bsp.a(iproute.o)
 .debug_info    0x0006a47b     0x12a5 ../cool_bsp/\libucosii_bsp.a(udp.o)
 .debug_info    0x0006b720     0x113f ../cool_bsp/\libucosii_bsp.a(igmp.o)
 .debug_info    0x0006c85f     0x1373 ../cool_bsp/\libucosii_bsp.a(igmp2.o)
 .debug_info    0x0006dbd2     0x10ee ../cool_bsp/\libucosii_bsp.a(ipopt.o)
 .debug_info    0x0006ecc0      0xbc6 ../cool_bsp/\libucosii_bsp.a(u_mctest.o)
 .debug_info    0x0006f886      0xa64 ../cool_bsp/\libucosii_bsp.a(dhcsetup.o)
 .debug_info    0x000702ea      0x74c ../cool_bsp/\libucosii_bsp.a(memdev.o)
 .debug_info    0x00070a36      0x3f1 ../cool_bsp/\libucosii_bsp.a(tcpcksum.o)
 .debug_info    0x00070e27     0x12c0 ../cool_bsp/\libucosii_bsp.a(in_pcb.o)
 .debug_info    0x000720e7      0xff1 ../cool_bsp/\libucosii_bsp.a(vfsfiles.o)
 .debug_info    0x000730d8      0x1c0 ../cool_bsp/\libucosii_bsp.a(vfsport.o)
 .debug_info    0x00073298       0x97 ../cool_bsp/\libucosii_bsp.a(alt_exception_entry.o)
 .debug_info    0x0007332f      0x70d ../cool_bsp/\libucosii_bsp.a(alt_fcntl.o)
 .debug_info    0x00073a3c      0x480 ../cool_bsp/\libucosii_bsp.a(alt_find_file.o)
 .debug_info    0x00073ebc      0x612 ../cool_bsp/\libucosii_bsp.a(alt_get_fd.o)
 .debug_info    0x000744ce     0x1193 ../cool_bsp/\libucosii_bsp.a(icmp.o)
 .debug_info    0x00075661      0x181 c:/altera/13.0/nios2eds/bin/gnu/h-i686-mingw32/bin/../lib/gcc/nios2-elf/4.1.2/../../../../nios2-elf/lib/mno-hw-mul\libc.a(lib_a-atexit.o)
 .debug_info    0x000757e2      0x960 c:/altera/13.0/nios2eds/bin/gnu/h-i686-mingw32/bin/../lib/gcc/nios2-elf/4.1.2/../../../../nios2-elf/lib/mno-hw-mul\libc.a(lib_a-atoi.o)
 .debug_info    0x00076142      0x954 c:/altera/13.0/nios2eds/bin/gnu/h-i686-mingw32/bin/../lib/gcc/nios2-elf/4.1.2/../../../../nios2-elf/lib/mno-hw-mul\libc.a(lib_a-calloc.o)
 .debug_info    0x00076a96      0x96e c:/altera/13.0/nios2eds/bin/gnu/h-i686-mingw32/bin/../lib/gcc/nios2-elf/4.1.2/../../../../nios2-elf/lib/mno-hw-mul\libc.a(lib_a-malloc.o)
 .debug_info    0x00077404      0x115 c:/altera/13.0/nios2eds/bin/gnu/h-i686-mingw32/bin/../lib/gcc/nios2-elf/4.1.2/../../../../nios2-elf/lib/mno-hw-mul\libc.a(lib_a-memcmp.o)
 .debug_info    0x00077519      0xa16 c:/altera/13.0/nios2eds/bin/gnu/h-i686-mingw32/bin/../lib/gcc/nios2-elf/4.1.2/../../../../nios2-elf/lib/mno-hw-mul\libc.a(lib_a-sprintf.o)
 .debug_info    0x00077f2f      0x110 c:/altera/13.0/nios2eds/bin/gnu/h-i686-mingw32/bin/../lib/gcc/nios2-elf/4.1.2/../../../../nios2-elf/lib/mno-hw-mul\libc.a(lib_a-strcpy.o)
 .debug_info    0x0007803f       0xf5 c:/altera/13.0/nios2eds/bin/gnu/h-i686-mingw32/bin/../lib/gcc/nios2-elf/4.1.2/../../../../nios2-elf/lib/mno-hw-mul\libc.a(lib_a-strncmp.o)
 .debug_info    0x00078134      0x12a c:/altera/13.0/nios2eds/bin/gnu/h-i686-mingw32/bin/../lib/gcc/nios2-elf/4.1.2/../../../../nios2-elf/lib/mno-hw-mul\libc.a(lib_a-strncpy.o)
 .debug_info    0x0007825e      0xa2a c:/altera/13.0/nios2eds/bin/gnu/h-i686-mingw32/bin/../lib/gcc/nios2-elf/4.1.2/../../../../nios2-elf/lib/mno-hw-mul\libc.a(lib_a-strtol.o)
 .debug_info    0x00078c88      0x9aa c:/altera/13.0/nios2eds/bin/gnu/h-i686-mingw32/bin/../lib/gcc/nios2-elf/4.1.2/../../../../nios2-elf/lib/mno-hw-mul\libc.a(lib_a-vprintf.o)
 .debug_info    0x00079632      0x9ed c:/altera/13.0/nios2eds/bin/gnu/h-i686-mingw32/bin/../lib/gcc/nios2-elf/4.1.2/../../../../nios2-elf/lib/mno-hw-mul\libc.a(lib_a-vsprintf.o)
 .debug_info    0x0007a01f      0x99c c:/altera/13.0/nios2eds/bin/gnu/h-i686-mingw32/bin/../lib/gcc/nios2-elf/4.1.2/../../../../nios2-elf/lib/mno-hw-mul\libc.a(lib_a-__atexit.o)

.debug_abbrev   0x00000000    0x11b69
 *(.debug_abbrev)
 .debug_abbrev  0x00000000       0x14 ../cool_bsp//obj/HAL/src/crt0.o
 .debug_abbrev  0x00000014      0x15c obj/default/SSS_DE2_115.o
 .debug_abbrev  0x00000170      0x1f1 obj/default/alt_error_handler.o
 .debug_abbrev  0x00000361      0x231 obj/default/dm9000a.o
 .debug_abbrev  0x00000592      0x1ae obj/default/iniche_init.o
 .debug_abbrev  0x00000740       0xf5 obj/default/led.o
 .debug_abbrev  0x00000835      0x282 obj/default/network_utilities.o
 .debug_abbrev  0x00000ab7      0x1c4 obj/default/simple_socket_server.o
 .debug_abbrev  0x00000c7b        0x1 obj/default/tse_my_system.o
 .debug_abbrev  0x00000c7c       0x5d c:/altera/13.0/nios2eds/bin/gnu/h-i686-mingw32/bin/../lib/gcc/nios2-elf/4.1.2/mno-hw-mul\libgcc.a(_fixunsdfsi.o)
 .debug_abbrev  0x00000cd9      0x1d2 c:/altera/13.0/nios2eds/bin/gnu/h-i686-mingw32/bin/../lib/gcc/nios2-elf/4.1.2/mno-hw-mul\libgcc.a(_addsub_df.o)
 .debug_abbrev  0x00000eab      0x204 c:/altera/13.0/nios2eds/bin/gnu/h-i686-mingw32/bin/../lib/gcc/nios2-elf/4.1.2/mno-hw-mul\libgcc.a(_mul_df.o)
 .debug_abbrev  0x000010af      0x151 c:/altera/13.0/nios2eds/bin/gnu/h-i686-mingw32/bin/../lib/gcc/nios2-elf/4.1.2/mno-hw-mul\libgcc.a(_ge_df.o)
 .debug_abbrev  0x00001200      0x176 c:/altera/13.0/nios2eds/bin/gnu/h-i686-mingw32/bin/../lib/gcc/nios2-elf/4.1.2/mno-hw-mul\libgcc.a(_df_to_si.o)
 .debug_abbrev  0x00001376       0xba c:/altera/13.0/nios2eds/bin/gnu/h-i686-mingw32/bin/../lib/gcc/nios2-elf/4.1.2/mno-hw-mul\libgcc.a(_thenan_df.o)
 .debug_abbrev  0x00001430      0x155 c:/altera/13.0/nios2eds/bin/gnu/h-i686-mingw32/bin/../lib/gcc/nios2-elf/4.1.2/mno-hw-mul\libgcc.a(_usi_to_df.o)
 .debug_abbrev  0x00001585       0x7b c:/altera/13.0/nios2eds/bin/gnu/h-i686-mingw32/bin/../lib/gcc/nios2-elf/4.1.2/mno-hw-mul\libgcc.a(lib2-mul.o)
 .debug_abbrev  0x00001600       0xfb c:/altera/13.0/nios2eds/bin/gnu/h-i686-mingw32/bin/../lib/gcc/nios2-elf/4.1.2/mno-hw-mul\libgcc.a(_muldi3.o)
 .debug_abbrev  0x000016fb       0xb9 c:/altera/13.0/nios2eds/bin/gnu/h-i686-mingw32/bin/../lib/gcc/nios2-elf/4.1.2/mno-hw-mul\libgcc.a(_clzsi2.o)
 .debug_abbrev  0x000017b4      0x1b1 c:/altera/13.0/nios2eds/bin/gnu/h-i686-mingw32/bin/../lib/gcc/nios2-elf/4.1.2/mno-hw-mul\libgcc.a(_pack_df.o)
 .debug_abbrev  0x00001965      0x149 c:/altera/13.0/nios2eds/bin/gnu/h-i686-mingw32/bin/../lib/gcc/nios2-elf/4.1.2/mno-hw-mul\libgcc.a(_unpack_df.o)
 .debug_abbrev  0x00001aae      0x132 c:/altera/13.0/nios2eds/bin/gnu/h-i686-mingw32/bin/../lib/gcc/nios2-elf/4.1.2/mno-hw-mul\libgcc.a(_fpcmp_parts_df.o)
 .debug_abbrev  0x00001be0       0x61 c:/altera/13.0/nios2eds/bin/gnu/h-i686-mingw32/bin/../lib/gcc/nios2-elf/4.1.2/mno-hw-mul\libgcc.a(_clz.o)
 .debug_abbrev  0x00001c41       0x61 c:/altera/13.0/nios2eds/bin/gnu/h-i686-mingw32/bin/../lib/gcc/nios2-elf/4.1.2/../../../../nios2-elf/lib/mno-hw-mul\libc.a(lib_a-ctype_.o)
 .debug_abbrev  0x00001ca2      0x16e c:/altera/13.0/nios2eds/bin/gnu/h-i686-mingw32/bin/../lib/gcc/nios2-elf/4.1.2/../../../../nios2-elf/lib/mno-hw-mul\libc.a(lib_a-exit.o)
 .debug_abbrev  0x00001e10      0x197 c:/altera/13.0/nios2eds/bin/gnu/h-i686-mingw32/bin/../lib/gcc/nios2-elf/4.1.2/../../../../nios2-elf/lib/mno-hw-mul\libc.a(lib_a-fprintf.o)
 .debug_abbrev  0x00001fa7      0x1b1 c:/altera/13.0/nios2eds/bin/gnu/h-i686-mingw32/bin/../lib/gcc/nios2-elf/4.1.2/../../../../nios2-elf/lib/mno-hw-mul\libc.a(lib_a-fwrite.o)
 .debug_abbrev  0x00002158      0x17f c:/altera/13.0/nios2eds/bin/gnu/h-i686-mingw32/bin/../lib/gcc/nios2-elf/4.1.2/../../../../nios2-elf/lib/mno-hw-mul\libc.a(lib_a-getc.o)
 .debug_abbrev  0x000022d7      0x157 c:/altera/13.0/nios2eds/bin/gnu/h-i686-mingw32/bin/../lib/gcc/nios2-elf/4.1.2/../../../../nios2-elf/lib/mno-hw-mul\libc.a(lib_a-impure.o)
 .debug_abbrev  0x0000242e       0xb5 c:/altera/13.0/nios2eds/bin/gnu/h-i686-mingw32/bin/../lib/gcc/nios2-elf/4.1.2/../../../../nios2-elf/lib/mno-hw-mul\libc.a(lib_a-memcpy.o)
 .debug_abbrev  0x000024e3       0xb5 c:/altera/13.0/nios2eds/bin/gnu/h-i686-mingw32/bin/../lib/gcc/nios2-elf/4.1.2/../../../../nios2-elf/lib/mno-hw-mul\libc.a(lib_a-memmove.o)
 .debug_abbrev  0x00002598       0xb8 c:/altera/13.0/nios2eds/bin/gnu/h-i686-mingw32/bin/../lib/gcc/nios2-elf/4.1.2/../../../../nios2-elf/lib/mno-hw-mul\libc.a(lib_a-memset.o)
 .debug_abbrev  0x00002650      0x194 c:/altera/13.0/nios2eds/bin/gnu/h-i686-mingw32/bin/../lib/gcc/nios2-elf/4.1.2/../../../../nios2-elf/lib/mno-hw-mul\libc.a(lib_a-perror.o)
 .debug_abbrev  0x000027e4      0x191 c:/altera/13.0/nios2eds/bin/gnu/h-i686-mingw32/bin/../lib/gcc/nios2-elf/4.1.2/../../../../nios2-elf/lib/mno-hw-mul\libc.a(lib_a-printf.o)
 .debug_abbrev  0x00002975      0x17f c:/altera/13.0/nios2eds/bin/gnu/h-i686-mingw32/bin/../lib/gcc/nios2-elf/4.1.2/../../../../nios2-elf/lib/mno-hw-mul\libc.a(lib_a-putc.o)
 .debug_abbrev  0x00002af4      0x170 c:/altera/13.0/nios2eds/bin/gnu/h-i686-mingw32/bin/../lib/gcc/nios2-elf/4.1.2/../../../../nios2-elf/lib/mno-hw-mul\libc.a(lib_a-putchar.o)
 .debug_abbrev  0x00002c64      0x1ac c:/altera/13.0/nios2eds/bin/gnu/h-i686-mingw32/bin/../lib/gcc/nios2-elf/4.1.2/../../../../nios2-elf/lib/mno-hw-mul\libc.a(lib_a-puts.o)
 .debug_abbrev  0x00002e10      0x189 c:/altera/13.0/nios2eds/bin/gnu/h-i686-mingw32/bin/../lib/gcc/nios2-elf/4.1.2/../../../../nios2-elf/lib/mno-hw-mul\libc.a(lib_a-rget.o)
 .debug_abbrev  0x00002f99       0x80 c:/altera/13.0/nios2eds/bin/gnu/h-i686-mingw32/bin/../lib/gcc/nios2-elf/4.1.2/../../../../nios2-elf/lib/mno-hw-mul\libc.a(lib_a-strchr.o)
 .debug_abbrev  0x00003019       0x68 c:/altera/13.0/nios2eds/bin/gnu/h-i686-mingw32/bin/../lib/gcc/nios2-elf/4.1.2/../../../../nios2-elf/lib/mno-hw-mul\libc.a(lib_a-strerror.o)
 .debug_abbrev  0x00003081       0x8b c:/altera/13.0/nios2eds/bin/gnu/h-i686-mingw32/bin/../lib/gcc/nios2-elf/4.1.2/../../../../nios2-elf/lib/mno-hw-mul\libc.a(lib_a-strlen.o)
 .debug_abbrev  0x0000310c       0x5b c:/altera/13.0/nios2eds/bin/gnu/h-i686-mingw32/bin/../lib/gcc/nios2-elf/4.1.2/../../../../nios2-elf/lib/mno-hw-mul\libc.a(lib_a-u_strerr.o)
 .debug_abbrev  0x00003167      0x30a c:/altera/13.0/nios2eds/bin/gnu/h-i686-mingw32/bin/../lib/gcc/nios2-elf/4.1.2/../../../../nios2-elf/lib/mno-hw-mul\libc.a(lib_a-vfprintf.o)
 .debug_abbrev  0x00003471      0x198 c:/altera/13.0/nios2eds/bin/gnu/h-i686-mingw32/bin/../lib/gcc/nios2-elf/4.1.2/../../../../nios2-elf/lib/mno-hw-mul\libc.a(lib_a-wbuf.o)
 .debug_abbrev  0x00003609      0x170 c:/altera/13.0/nios2eds/bin/gnu/h-i686-mingw32/bin/../lib/gcc/nios2-elf/4.1.2/../../../../nios2-elf/lib/mno-hw-mul\libc.a(lib_a-wsetup.o)
 .debug_abbrev  0x00003779      0x1de c:/altera/13.0/nios2eds/bin/gnu/h-i686-mingw32/bin/../lib/gcc/nios2-elf/4.1.2/../../../../nios2-elf/lib/mno-hw-mul\libc.a(lib_a-__call_atexit.o)
 .debug_abbrev  0x00003957      0x232 c:/altera/13.0/nios2eds/bin/gnu/h-i686-mingw32/bin/../lib/gcc/nios2-elf/4.1.2/../../../../nios2-elf/lib/mno-hw-mul\libc.a(lib_a-dtoa.o)
 .debug_abbrev  0x00003b89      0x1c6 c:/altera/13.0/nios2eds/bin/gnu/h-i686-mingw32/bin/../lib/gcc/nios2-elf/4.1.2/../../../../nios2-elf/lib/mno-hw-mul\libc.a(lib_a-fflush.o)
 .debug_abbrev  0x00003d4f      0x24c c:/altera/13.0/nios2eds/bin/gnu/h-i686-mingw32/bin/../lib/gcc/nios2-elf/4.1.2/../../../../nios2-elf/lib/mno-hw-mul\libc.a(lib_a-findfp.o)
 .debug_abbrev  0x00003f9b      0x18c c:/altera/13.0/nios2eds/bin/gnu/h-i686-mingw32/bin/../lib/gcc/nios2-elf/4.1.2/../../../../nios2-elf/lib/mno-hw-mul\libc.a(lib_a-fputc.o)
 .debug_abbrev  0x00004127      0x1aa c:/altera/13.0/nios2eds/bin/gnu/h-i686-mingw32/bin/../lib/gcc/nios2-elf/4.1.2/../../../../nios2-elf/lib/mno-hw-mul\libc.a(lib_a-fputs.o)
 .debug_abbrev  0x000042d1      0x1d9 c:/altera/13.0/nios2eds/bin/gnu/h-i686-mingw32/bin/../lib/gcc/nios2-elf/4.1.2/../../../../nios2-elf/lib/mno-hw-mul\libc.a(lib_a-freer.o)
 .debug_abbrev  0x000044aa      0x1a3 c:/altera/13.0/nios2eds/bin/gnu/h-i686-mingw32/bin/../lib/gcc/nios2-elf/4.1.2/../../../../nios2-elf/lib/mno-hw-mul\libc.a(lib_a-fvwrite.o)
 .debug_abbrev  0x0000464d      0x1e3 c:/altera/13.0/nios2eds/bin/gnu/h-i686-mingw32/bin/../lib/gcc/nios2-elf/4.1.2/../../../../nios2-elf/lib/mno-hw-mul\libc.a(lib_a-fwalk.o)
 .debug_abbrev  0x00004830      0x1ed c:/altera/13.0/nios2eds/bin/gnu/h-i686-mingw32/bin/../lib/gcc/nios2-elf/4.1.2/../../../../nios2-elf/lib/mno-hw-mul\libc.a(lib_a-locale.o)
 .debug_abbrev  0x00004a1d      0x197 c:/altera/13.0/nios2eds/bin/gnu/h-i686-mingw32/bin/../lib/gcc/nios2-elf/4.1.2/../../../../nios2-elf/lib/mno-hw-mul\libc.a(lib_a-makebuf.o)
 .debug_abbrev  0x00004bb4      0x216 c:/altera/13.0/nios2eds/bin/gnu/h-i686-mingw32/bin/../lib/gcc/nios2-elf/4.1.2/../../../../nios2-elf/lib/mno-hw-mul\libc.a(lib_a-mallocr.o)
 .debug_abbrev  0x00004dca       0xb5 c:/altera/13.0/nios2eds/bin/gnu/h-i686-mingw32/bin/../lib/gcc/nios2-elf/4.1.2/../../../../nios2-elf/lib/mno-hw-mul\libc.a(lib_a-memchr.o)
 .debug_abbrev  0x00004e7f      0x297 c:/altera/13.0/nios2eds/bin/gnu/h-i686-mingw32/bin/../lib/gcc/nios2-elf/4.1.2/../../../../nios2-elf/lib/mno-hw-mul\libc.a(lib_a-mprec.o)
 .debug_abbrev  0x00005116      0x1c3 c:/altera/13.0/nios2eds/bin/gnu/h-i686-mingw32/bin/../lib/gcc/nios2-elf/4.1.2/../../../../nios2-elf/lib/mno-hw-mul\libc.a(lib_a-reallocr.o)
 .debug_abbrev  0x000052d9      0x187 c:/altera/13.0/nios2eds/bin/gnu/h-i686-mingw32/bin/../lib/gcc/nios2-elf/4.1.2/../../../../nios2-elf/lib/mno-hw-mul\libc.a(lib_a-refill.o)
 .debug_abbrev  0x00005460       0x79 c:/altera/13.0/nios2eds/bin/gnu/h-i686-mingw32/bin/../lib/gcc/nios2-elf/4.1.2/../../../../nios2-elf/lib/mno-hw-mul\libc.a(lib_a-s_isinfd.o)
 .debug_abbrev  0x000054d9       0x79 c:/altera/13.0/nios2eds/bin/gnu/h-i686-mingw32/bin/../lib/gcc/nios2-elf/4.1.2/../../../../nios2-elf/lib/mno-hw-mul\libc.a(lib_a-s_isnand.o)
 .debug_abbrev  0x00005552      0x18c c:/altera/13.0/nios2eds/bin/gnu/h-i686-mingw32/bin/../lib/gcc/nios2-elf/4.1.2/../../../../nios2-elf/lib/mno-hw-mul\libc.a(lib_a-sbrkr.o)
 .debug_abbrev  0x000056de      0x1c9 c:/altera/13.0/nios2eds/bin/gnu/h-i686-mingw32/bin/../lib/gcc/nios2-elf/4.1.2/../../../../nios2-elf/lib/mno-hw-mul\libc.a(lib_a-stdio.o)
 .debug_abbrev  0x000058a7       0x80 c:/altera/13.0/nios2eds/bin/gnu/h-i686-mingw32/bin/../lib/gcc/nios2-elf/4.1.2/../../../../nios2-elf/lib/mno-hw-mul\libc.a(lib_a-strcmp.o)
 .debug_abbrev  0x00005927      0x184 c:/altera/13.0/nios2eds/bin/gnu/h-i686-mingw32/bin/../lib/gcc/nios2-elf/4.1.2/../../../../nios2-elf/lib/mno-hw-mul\libc.a(lib_a-writer.o)
 .debug_abbrev  0x00005aab      0x1b8 c:/altera/13.0/nios2eds/bin/gnu/h-i686-mingw32/bin/../lib/gcc/nios2-elf/4.1.2/../../../../nios2-elf/lib/mno-hw-mul\libc.a(lib_a-callocr.o)
 .debug_abbrev  0x00005c63      0x17f c:/altera/13.0/nios2eds/bin/gnu/h-i686-mingw32/bin/../lib/gcc/nios2-elf/4.1.2/../../../../nios2-elf/lib/mno-hw-mul\libc.a(lib_a-closer.o)
 .debug_abbrev  0x00005de2      0x1a7 c:/altera/13.0/nios2eds/bin/gnu/h-i686-mingw32/bin/../lib/gcc/nios2-elf/4.1.2/../../../../nios2-elf/lib/mno-hw-mul\libc.a(lib_a-fclose.o)
 .debug_abbrev  0x00005f89      0x18e c:/altera/13.0/nios2eds/bin/gnu/h-i686-mingw32/bin/../lib/gcc/nios2-elf/4.1.2/../../../../nios2-elf/lib/mno-hw-mul\libc.a(lib_a-fstatr.o)
 .debug_abbrev  0x00006117       0x3b c:/altera/13.0/nios2eds/bin/gnu/h-i686-mingw32/bin/../lib/gcc/nios2-elf/4.1.2/../../../../nios2-elf/lib/mno-hw-mul\libc.a(lib_a-int_errno.o)
 .debug_abbrev  0x00006152      0x17f c:/altera/13.0/nios2eds/bin/gnu/h-i686-mingw32/bin/../lib/gcc/nios2-elf/4.1.2/../../../../nios2-elf/lib/mno-hw-mul\libc.a(lib_a-isattyr.o)
 .debug_abbrev  0x000062d1      0x18e c:/altera/13.0/nios2eds/bin/gnu/h-i686-mingw32/bin/../lib/gcc/nios2-elf/4.1.2/../../../../nios2-elf/lib/mno-hw-mul\libc.a(lib_a-lseekr.o)
 .debug_abbrev  0x0000645f      0x17f c:/altera/13.0/nios2eds/bin/gnu/h-i686-mingw32/bin/../lib/gcc/nios2-elf/4.1.2/../../../../nios2-elf/lib/mno-hw-mul\libc.a(lib_a-readr.o)
 .debug_abbrev  0x000065de      0x16b c:/altera/13.0/nios2eds/bin/gnu/h-i686-mingw32/bin/../lib/gcc/nios2-elf/4.1.2/mno-hw-mul\libgcc.a(_udivdi3.o)
 .debug_abbrev  0x00006749      0x18e c:/altera/13.0/nios2eds/bin/gnu/h-i686-mingw32/bin/../lib/gcc/nios2-elf/4.1.2/mno-hw-mul\libgcc.a(_umoddi3.o)
 .debug_abbrev  0x000068d7      0x1e3 c:/altera/13.0/nios2eds/bin/gnu/h-i686-mingw32/bin/../lib/gcc/nios2-elf/4.1.2/mno-hw-mul\libgcc.a(_div_df.o)
 .debug_abbrev  0x00006aba      0x151 c:/altera/13.0/nios2eds/bin/gnu/h-i686-mingw32/bin/../lib/gcc/nios2-elf/4.1.2/mno-hw-mul\libgcc.a(_eq_df.o)
 .debug_abbrev  0x00006c0b      0x151 c:/altera/13.0/nios2eds/bin/gnu/h-i686-mingw32/bin/../lib/gcc/nios2-elf/4.1.2/mno-hw-mul\libgcc.a(_ne_df.o)
 .debug_abbrev  0x00006d5c      0x151 c:/altera/13.0/nios2eds/bin/gnu/h-i686-mingw32/bin/../lib/gcc/nios2-elf/4.1.2/mno-hw-mul\libgcc.a(_gt_df.o)
 .debug_abbrev  0x00006ead      0x151 c:/altera/13.0/nios2eds/bin/gnu/h-i686-mingw32/bin/../lib/gcc/nios2-elf/4.1.2/mno-hw-mul\libgcc.a(_lt_df.o)
 .debug_abbrev  0x00006ffe      0x13f c:/altera/13.0/nios2eds/bin/gnu/h-i686-mingw32/bin/../lib/gcc/nios2-elf/4.1.2/mno-hw-mul\libgcc.a(_si_to_df.o)
 .debug_abbrev  0x0000713d       0xe0 c:/altera/13.0/nios2eds/bin/gnu/h-i686-mingw32/bin/../lib/gcc/nios2-elf/4.1.2/mno-hw-mul\libgcc.a(lib2-divmod.o)
 .debug_abbrev  0x0000721d       0xaa ../cool_bsp/\libucosii_bsp.a(alt_exit.o)
 .debug_abbrev  0x000072c7      0x128 ../cool_bsp/\libucosii_bsp.a(alt_flash_dev.o)
 .debug_abbrev  0x000073ef      0x102 ../cool_bsp/\libucosii_bsp.a(alt_fstat.o)
 .debug_abbrev  0x000074f1      0x180 ../cool_bsp/\libucosii_bsp.a(alt_irq_register.o)
 .debug_abbrev  0x00007671       0x44 ../cool_bsp/\libucosii_bsp.a(alt_irq_vars.o)
 .debug_abbrev  0x000076b5      0x102 ../cool_bsp/\libucosii_bsp.a(alt_isatty.o)
 .debug_abbrev  0x000077b7      0x102 ../cool_bsp/\libucosii_bsp.a(alt_lseek.o)
 .debug_abbrev  0x000078b9      0x120 ../cool_bsp/\libucosii_bsp.a(alt_main.o)
 .debug_abbrev  0x000079d9      0x115 ../cool_bsp/\libucosii_bsp.a(alt_sbrk.o)
 .debug_abbrev  0x00007aee       0xb7 ../cool_bsp/\libucosii_bsp.a(alt_usleep.o)
 .debug_abbrev  0x00007ba5      0x1b3 ../cool_bsp/\libucosii_bsp.a(alt_env_lock.o)
 .debug_abbrev  0x00007d58      0x234 ../cool_bsp/\libucosii_bsp.a(alt_malloc_lock.o)
 .debug_abbrev  0x00007f8c      0x2aa ../cool_bsp/\libucosii_bsp.a(os_core.o)
 .debug_abbrev  0x00008236      0x114 ../cool_bsp/\libucosii_bsp.a(os_dbg.o)
 .debug_abbrev  0x0000834a      0x21b ../cool_bsp/\libucosii_bsp.a(os_flag.o)
 .debug_abbrev  0x00008565      0x235 ../cool_bsp/\libucosii_bsp.a(os_mem.o)
 .debug_abbrev  0x0000879a      0x20d ../cool_bsp/\libucosii_bsp.a(os_q.o)
 .debug_abbrev  0x000089a7      0x20d ../cool_bsp/\libucosii_bsp.a(os_sem.o)
 .debug_abbrev  0x00008bb4      0x20e ../cool_bsp/\libucosii_bsp.a(os_task.o)
 .debug_abbrev  0x00008dc2      0x1de ../cool_bsp/\libucosii_bsp.a(os_time.o)
 .debug_abbrev  0x00008fa0      0x1ac ../cool_bsp/\libucosii_bsp.a(alt_sys_init.o)
 .debug_abbrev  0x0000914c      0x1bf ../cool_bsp/\libucosii_bsp.a(altera_avalon_cfi_flash.o)
 .debug_abbrev  0x0000930b      0x185 ../cool_bsp/\libucosii_bsp.a(altera_avalon_cfi_flash_table.o)
 .debug_abbrev  0x00009490      0x1bf ../cool_bsp/\libucosii_bsp.a(altera_avalon_epcs_flash_controller.o)
 .debug_abbrev  0x0000964f      0x13c ../cool_bsp/\libucosii_bsp.a(altera_avalon_jtag_uart_fd.o)
 .debug_abbrev  0x0000978b      0x21e ../cool_bsp/\libucosii_bsp.a(altera_avalon_jtag_uart_init.o)
 .debug_abbrev  0x000099a9      0x135 ../cool_bsp/\libucosii_bsp.a(altera_avalon_jtag_uart_ioctl.o)
 .debug_abbrev  0x00009ade      0x1ee ../cool_bsp/\libucosii_bsp.a(altera_avalon_jtag_uart_read.o)
 .debug_abbrev  0x00009ccc      0x1ea ../cool_bsp/\libucosii_bsp.a(altera_avalon_jtag_uart_write.o)
 .debug_abbrev  0x00009eb6      0x137 ../cool_bsp/\libucosii_bsp.a(altera_avalon_timer_sc.o)
 .debug_abbrev  0x00009fed      0x145 ../cool_bsp/\libucosii_bsp.a(epcs_commands.o)
 .debug_abbrev  0x0000a132       0x77 ../cool_bsp/\libucosii_bsp.a(alt_iniche_close.o)
 .debug_abbrev  0x0000a1a9      0x11f ../cool_bsp/\libucosii_bsp.a(alt_iniche_dev.o)
 .debug_abbrev  0x0000a2c8       0x7e ../cool_bsp/\libucosii_bsp.a(alt_iniche_read.o)
 .debug_abbrev  0x0000a346       0x85 ../cool_bsp/\libucosii_bsp.a(alt_iniche_write.o)
 .debug_abbrev  0x0000a3cb      0x184 ../cool_bsp/\libucosii_bsp.a(ipnet.o)
 .debug_abbrev  0x0000a54f      0x18b ../cool_bsp/\libucosii_bsp.a(ipstart.o)
 .debug_abbrev  0x0000a6da      0x191 ../cool_bsp/\libucosii_bsp.a(igmp_cmn.o)
 .debug_abbrev  0x0000a86b      0x1a3 ../cool_bsp/\libucosii_bsp.a(bsdsock.o)
 .debug_abbrev  0x0000aa0e       0x96 ../cool_bsp/\libucosii_bsp.a(cksum.o)
 .debug_abbrev  0x0000aaa4      0x18b ../cool_bsp/\libucosii_bsp.a(in_utils.o)
 .debug_abbrev  0x0000ac2f      0x152 ../cool_bsp/\libucosii_bsp.a(netmain.o)
 .debug_abbrev  0x0000ad81      0x154 ../cool_bsp/\libucosii_bsp.a(parseip.o)
 .debug_abbrev  0x0000aed5      0x144 ../cool_bsp/\libucosii_bsp.a(tk_crnos.o)
 .debug_abbrev  0x0000b019      0x217 ../cool_bsp/\libucosii_bsp.a(dhcpclnt.o)
 .debug_abbrev  0x0000b230       0x8f ../cool_bsp/\libucosii_bsp.a(dhcputil.o)
 .debug_abbrev  0x0000b2bf      0x196 ../cool_bsp/\libucosii_bsp.a(pktalloc.o)
 .debug_abbrev  0x0000b455       0xcb ../cool_bsp/\libucosii_bsp.a(q.o)
 .debug_abbrev  0x0000b520      0x144 ../cool_bsp/\libucosii_bsp.a(udp_open.o)
 .debug_abbrev  0x0000b664       0x14 ../cool_bsp/\libucosii_bsp.a(asm_cksum.o)
 .debug_abbrev  0x0000b678      0x242 ../cool_bsp/\libucosii_bsp.a(brdutils.o)
 .debug_abbrev  0x0000b8ba      0x194 ../cool_bsp/\libucosii_bsp.a(osportco.o)
 .debug_abbrev  0x0000ba4e      0x199 ../cool_bsp/\libucosii_bsp.a(targnios.o)
 .debug_abbrev  0x0000bbe7      0x1dc ../cool_bsp/\libucosii_bsp.a(nptcp.o)
 .debug_abbrev  0x0000bdc3      0x136 ../cool_bsp/\libucosii_bsp.a(rawsock.o)
 .debug_abbrev  0x0000bef9      0x1de ../cool_bsp/\libucosii_bsp.a(sockcall.o)
 .debug_abbrev  0x0000c0d7      0x1ef ../cool_bsp/\libucosii_bsp.a(socket.o)
 .debug_abbrev  0x0000c2c6      0x1ac ../cool_bsp/\libucosii_bsp.a(socket2.o)
 .debug_abbrev  0x0000c472      0x17f ../cool_bsp/\libucosii_bsp.a(soselect.o)
 .debug_abbrev  0x0000c5f1      0x1ca ../cool_bsp/\libucosii_bsp.a(tcp_in.o)
 .debug_abbrev  0x0000c7bb      0x1a4 ../cool_bsp/\libucosii_bsp.a(tcp_out.o)
 .debug_abbrev  0x0000c95f      0x1c3 ../cool_bsp/\libucosii_bsp.a(tcp_subr.o)
 .debug_abbrev  0x0000cb22      0x19e ../cool_bsp/\libucosii_bsp.a(tcp_timr.o)
 .debug_abbrev  0x0000ccc0      0x175 ../cool_bsp/\libucosii_bsp.a(tcp_usr.o)
 .debug_abbrev  0x0000ce35       0x77 ../cool_bsp/\libucosii_bsp.a(tcpport.o)
 .debug_abbrev  0x0000ceac      0x190 ../cool_bsp/\libucosii_bsp.a(udpsock.o)
 .debug_abbrev  0x0000d03c      0x172 ../cool_bsp/\libucosii_bsp.a(alt_alarm_start.o)
 .debug_abbrev  0x0000d1ae       0x6c ../cool_bsp/\libucosii_bsp.a(alt_busy_sleep.o)
 .debug_abbrev  0x0000d21a      0x102 ../cool_bsp/\libucosii_bsp.a(alt_close.o)
 .debug_abbrev  0x0000d31c       0x62 ../cool_bsp/\libucosii_bsp.a(alt_dcache_flush.o)
 .debug_abbrev  0x0000d37e      0x10a ../cool_bsp/\libucosii_bsp.a(alt_dev.o)
 .debug_abbrev  0x0000d488       0xf6 ../cool_bsp/\libucosii_bsp.a(alt_dev_llist_insert.o)
 .debug_abbrev  0x0000d57e       0x76 ../cool_bsp/\libucosii_bsp.a(alt_do_ctors.o)
 .debug_abbrev  0x0000d5f4       0x76 ../cool_bsp/\libucosii_bsp.a(alt_do_dtors.o)
 .debug_abbrev  0x0000d66a       0x5e ../cool_bsp/\libucosii_bsp.a(alt_errno.o)
 .debug_abbrev  0x0000d6c8       0xd6 ../cool_bsp/\libucosii_bsp.a(alt_find_dev.o)
 .debug_abbrev  0x0000d79e      0x134 ../cool_bsp/\libucosii_bsp.a(alt_iic.o)
 .debug_abbrev  0x0000d8d2      0x14e ../cool_bsp/\libucosii_bsp.a(alt_iic_isr_register.o)
 .debug_abbrev  0x0000da20       0xf7 ../cool_bsp/\libucosii_bsp.a(alt_io_redirect.o)
 .debug_abbrev  0x0000db17       0x12 ../cool_bsp/\libucosii_bsp.a(alt_irq_entry.o)
 .debug_abbrev  0x0000db29      0x124 ../cool_bsp/\libucosii_bsp.a(alt_irq_handler.o)
 .debug_abbrev  0x0000dc4d      0x119 ../cool_bsp/\libucosii_bsp.a(alt_open.o)
 .debug_abbrev  0x0000dd66      0x102 ../cool_bsp/\libucosii_bsp.a(alt_read.o)
 .debug_abbrev  0x0000de68       0xd3 ../cool_bsp/\libucosii_bsp.a(alt_release_fd.o)
 .debug_abbrev  0x0000df3b       0x74 ../cool_bsp/\libucosii_bsp.a(alt_remap_cached.o)
 .debug_abbrev  0x0000dfaf       0x74 ../cool_bsp/\libucosii_bsp.a(alt_remap_uncached.o)
 .debug_abbrev  0x0000e023      0x150 ../cool_bsp/\libucosii_bsp.a(alt_tick.o)
 .debug_abbrev  0x0000e173      0x107 ../cool_bsp/\libucosii_bsp.a(alt_write.o)
 .debug_abbrev  0x0000e27a       0x3f ../cool_bsp/\libucosii_bsp.a(altera_nios2_qsys_irq.o)
 .debug_abbrev  0x0000e2b9       0x14 ../cool_bsp/\libucosii_bsp.a(os_cpu_a.o)
 .debug_abbrev  0x0000e2cd      0x1d0 ../cool_bsp/\libucosii_bsp.a(os_cpu_c.o)
 .debug_abbrev  0x0000e49d      0x14d ../cool_bsp/\libucosii_bsp.a(altera_avalon_cfi_flash_amd.o)
 .debug_abbrev  0x0000e5ea      0x14d ../cool_bsp/\libucosii_bsp.a(altera_avalon_cfi_flash_intel.o)
 .debug_abbrev  0x0000e737       0x7c ../cool_bsp/\libucosii_bsp.a(altera_avalon_spi.o)
 .debug_abbrev  0x0000e7b3      0x173 ../cool_bsp/\libucosii_bsp.a(allports.o)
 .debug_abbrev  0x0000e926      0x151 ../cool_bsp/\libucosii_bsp.a(timeouts.o)
 .debug_abbrev  0x0000ea77       0xa4 ../cool_bsp/\libucosii_bsp.a(tk_misc.o)
 .debug_abbrev  0x0000eb1b       0x92 ../cool_bsp/\libucosii_bsp.a(alt_iniche_fcntl.o)
 .debug_abbrev  0x0000ebad      0x1eb ../cool_bsp/\libucosii_bsp.a(et_arp.o)
 .debug_abbrev  0x0000ed98      0x13d ../cool_bsp/\libucosii_bsp.a(iface.o)
 .debug_abbrev  0x0000eed5      0x1ed ../cool_bsp/\libucosii_bsp.a(ip.o)
 .debug_abbrev  0x0000f0c2      0x1ca ../cool_bsp/\libucosii_bsp.a(ip_reasm.o)
 .debug_abbrev  0x0000f28c      0x166 ../cool_bsp/\libucosii_bsp.a(ipdemux.o)
 .debug_abbrev  0x0000f3f2      0x114 ../cool_bsp/\libucosii_bsp.a(ipmc.o)
 .debug_abbrev  0x0000f506       0xe9 ../cool_bsp/\libucosii_bsp.a(ipport.o)
 .debug_abbrev  0x0000f5ef      0x19c ../cool_bsp/\libucosii_bsp.a(ipraw.o)
 .debug_abbrev  0x0000f78b      0x156 ../cool_bsp/\libucosii_bsp.a(iproute.o)
 .debug_abbrev  0x0000f8e1      0x1c0 ../cool_bsp/\libucosii_bsp.a(udp.o)
 .debug_abbrev  0x0000faa1      0x10e ../cool_bsp/\libucosii_bsp.a(igmp.o)
 .debug_abbrev  0x0000fbaf      0x17a ../cool_bsp/\libucosii_bsp.a(igmp2.o)
 .debug_abbrev  0x0000fd29      0x189 ../cool_bsp/\libucosii_bsp.a(ipopt.o)
 .debug_abbrev  0x0000feb2      0x15a ../cool_bsp/\libucosii_bsp.a(u_mctest.o)
 .debug_abbrev  0x0001000c      0x12e ../cool_bsp/\libucosii_bsp.a(dhcsetup.o)
 .debug_abbrev  0x0001013a      0x175 ../cool_bsp/\libucosii_bsp.a(memdev.o)
 .debug_abbrev  0x000102af       0xad ../cool_bsp/\libucosii_bsp.a(tcpcksum.o)
 .debug_abbrev  0x0001035c      0x19f ../cool_bsp/\libucosii_bsp.a(in_pcb.o)
 .debug_abbrev  0x000104fb      0x1b6 ../cool_bsp/\libucosii_bsp.a(vfsfiles.o)
 .debug_abbrev  0x000106b1       0x77 ../cool_bsp/\libucosii_bsp.a(vfsport.o)
 .debug_abbrev  0x00010728       0x12 ../cool_bsp/\libucosii_bsp.a(alt_exception_entry.o)
 .debug_abbrev  0x0001073a      0x107 ../cool_bsp/\libucosii_bsp.a(alt_fcntl.o)
 .debug_abbrev  0x00010841       0xd6 ../cool_bsp/\libucosii_bsp.a(alt_find_file.o)
 .debug_abbrev  0x00010917      0x173 ../cool_bsp/\libucosii_bsp.a(alt_get_fd.o)
 .debug_abbrev  0x00010a8a      0x15d ../cool_bsp/\libucosii_bsp.a(icmp.o)
 .debug_abbrev  0x00010be7       0xb7 c:/altera/13.0/nios2eds/bin/gnu/h-i686-mingw32/bin/../lib/gcc/nios2-elf/4.1.2/../../../../nios2-elf/lib/mno-hw-mul\libc.a(lib_a-atexit.o)
 .debug_abbrev  0x00010c9e      0x176 c:/altera/13.0/nios2eds/bin/gnu/h-i686-mingw32/bin/../lib/gcc/nios2-elf/4.1.2/../../../../nios2-elf/lib/mno-hw-mul\libc.a(lib_a-atoi.o)
 .debug_abbrev  0x00010e14      0x17f c:/altera/13.0/nios2eds/bin/gnu/h-i686-mingw32/bin/../lib/gcc/nios2-elf/4.1.2/../../../../nios2-elf/lib/mno-hw-mul\libc.a(lib_a-calloc.o)
 .debug_abbrev  0x00010f93      0x187 c:/altera/13.0/nios2eds/bin/gnu/h-i686-mingw32/bin/../lib/gcc/nios2-elf/4.1.2/../../../../nios2-elf/lib/mno-hw-mul\libc.a(lib_a-malloc.o)
 .debug_abbrev  0x0001111a       0x7c c:/altera/13.0/nios2eds/bin/gnu/h-i686-mingw32/bin/../lib/gcc/nios2-elf/4.1.2/../../../../nios2-elf/lib/mno-hw-mul\libc.a(lib_a-memcmp.o)
 .debug_abbrev  0x00011196      0x191 c:/altera/13.0/nios2eds/bin/gnu/h-i686-mingw32/bin/../lib/gcc/nios2-elf/4.1.2/../../../../nios2-elf/lib/mno-hw-mul\libc.a(lib_a-sprintf.o)
 .debug_abbrev  0x00011327       0x8f c:/altera/13.0/nios2eds/bin/gnu/h-i686-mingw32/bin/../lib/gcc/nios2-elf/4.1.2/../../../../nios2-elf/lib/mno-hw-mul\libc.a(lib_a-strcpy.o)
 .debug_abbrev  0x000113b6       0x8d c:/altera/13.0/nios2eds/bin/gnu/h-i686-mingw32/bin/../lib/gcc/nios2-elf/4.1.2/../../../../nios2-elf/lib/mno-hw-mul\libc.a(lib_a-strncmp.o)
 .debug_abbrev  0x00011443       0x9c c:/altera/13.0/nios2eds/bin/gnu/h-i686-mingw32/bin/../lib/gcc/nios2-elf/4.1.2/../../../../nios2-elf/lib/mno-hw-mul\libc.a(lib_a-strncpy.o)
 .debug_abbrev  0x000114df      0x1c7 c:/altera/13.0/nios2eds/bin/gnu/h-i686-mingw32/bin/../lib/gcc/nios2-elf/4.1.2/../../../../nios2-elf/lib/mno-hw-mul\libc.a(lib_a-strtol.o)
 .debug_abbrev  0x000116a6      0x170 c:/altera/13.0/nios2eds/bin/gnu/h-i686-mingw32/bin/../lib/gcc/nios2-elf/4.1.2/../../../../nios2-elf/lib/mno-hw-mul\libc.a(lib_a-vprintf.o)
 .debug_abbrev  0x00011816      0x1a5 c:/altera/13.0/nios2eds/bin/gnu/h-i686-mingw32/bin/../lib/gcc/nios2-elf/4.1.2/../../../../nios2-elf/lib/mno-hw-mul\libc.a(lib_a-vsprintf.o)
 .debug_abbrev  0x000119bb      0x1ae c:/altera/13.0/nios2eds/bin/gnu/h-i686-mingw32/bin/../lib/gcc/nios2-elf/4.1.2/../../../../nios2-elf/lib/mno-hw-mul\libc.a(lib_a-__atexit.o)

.debug_line     0x00000000    0x3fbaf
 *(.debug_line)
 .debug_line    0x00000000       0x51 ../cool_bsp//obj/HAL/src/crt0.o
 .debug_line    0x00000051      0x4ef obj/default/SSS_DE2_115.o
 .debug_line    0x00000540      0x702 obj/default/alt_error_handler.o
 .debug_line    0x00000c42      0xaa7 obj/default/dm9000a.o
 .debug_line    0x000016e9      0x628 obj/default/iniche_init.o
 .debug_line    0x00001d11      0x402 obj/default/led.o
 .debug_line    0x00002113      0x7b6 obj/default/network_utilities.o
 .debug_line    0x000028c9      0x77a obj/default/simple_socket_server.o
 .debug_line    0x00003043       0x24 obj/default/tse_my_system.o
 .debug_line    0x00003067       0xff c:/altera/13.0/nios2eds/bin/gnu/h-i686-mingw32/bin/../lib/gcc/nios2-elf/4.1.2/mno-hw-mul\libgcc.a(_fixunsdfsi.o)
 .debug_line    0x00003166      0x430 c:/altera/13.0/nios2eds/bin/gnu/h-i686-mingw32/bin/../lib/gcc/nios2-elf/4.1.2/mno-hw-mul\libgcc.a(_addsub_df.o)
 .debug_line    0x00003596      0x3e5 c:/altera/13.0/nios2eds/bin/gnu/h-i686-mingw32/bin/../lib/gcc/nios2-elf/4.1.2/mno-hw-mul\libgcc.a(_mul_df.o)
 .debug_line    0x0000397b      0x129 c:/altera/13.0/nios2eds/bin/gnu/h-i686-mingw32/bin/../lib/gcc/nios2-elf/4.1.2/mno-hw-mul\libgcc.a(_ge_df.o)
 .debug_line    0x00003aa4      0x149 c:/altera/13.0/nios2eds/bin/gnu/h-i686-mingw32/bin/../lib/gcc/nios2-elf/4.1.2/mno-hw-mul\libgcc.a(_df_to_si.o)
 .debug_line    0x00003bed       0x94 c:/altera/13.0/nios2eds/bin/gnu/h-i686-mingw32/bin/../lib/gcc/nios2-elf/4.1.2/mno-hw-mul\libgcc.a(_thenan_df.o)
 .debug_line    0x00003c81      0x189 c:/altera/13.0/nios2eds/bin/gnu/h-i686-mingw32/bin/../lib/gcc/nios2-elf/4.1.2/mno-hw-mul\libgcc.a(_usi_to_df.o)
 .debug_line    0x00003e0a      0x11a c:/altera/13.0/nios2eds/bin/gnu/h-i686-mingw32/bin/../lib/gcc/nios2-elf/4.1.2/mno-hw-mul\libgcc.a(lib2-mul.o)
 .debug_line    0x00003f24      0x14f c:/altera/13.0/nios2eds/bin/gnu/h-i686-mingw32/bin/../lib/gcc/nios2-elf/4.1.2/mno-hw-mul\libgcc.a(_muldi3.o)
 .debug_line    0x00004073      0x105 c:/altera/13.0/nios2eds/bin/gnu/h-i686-mingw32/bin/../lib/gcc/nios2-elf/4.1.2/mno-hw-mul\libgcc.a(_clzsi2.o)
 .debug_line    0x00004178      0x222 c:/altera/13.0/nios2eds/bin/gnu/h-i686-mingw32/bin/../lib/gcc/nios2-elf/4.1.2/mno-hw-mul\libgcc.a(_pack_df.o)
 .debug_line    0x0000439a      0x1e4 c:/altera/13.0/nios2eds/bin/gnu/h-i686-mingw32/bin/../lib/gcc/nios2-elf/4.1.2/mno-hw-mul\libgcc.a(_unpack_df.o)
 .debug_line    0x0000457e      0x187 c:/altera/13.0/nios2eds/bin/gnu/h-i686-mingw32/bin/../lib/gcc/nios2-elf/4.1.2/mno-hw-mul\libgcc.a(_fpcmp_parts_df.o)
 .debug_line    0x00004705       0xaa c:/altera/13.0/nios2eds/bin/gnu/h-i686-mingw32/bin/../lib/gcc/nios2-elf/4.1.2/mno-hw-mul\libgcc.a(_clz.o)
 .debug_line    0x000047af       0x81 c:/altera/13.0/nios2eds/bin/gnu/h-i686-mingw32/bin/../lib/gcc/nios2-elf/4.1.2/../../../../nios2-elf/lib/mno-hw-mul\libc.a(lib_a-ctype_.o)
 .debug_line    0x00004830      0x235 c:/altera/13.0/nios2eds/bin/gnu/h-i686-mingw32/bin/../lib/gcc/nios2-elf/4.1.2/../../../../nios2-elf/lib/mno-hw-mul\libc.a(lib_a-exit.o)
 .debug_line    0x00004a65      0x281 c:/altera/13.0/nios2eds/bin/gnu/h-i686-mingw32/bin/../lib/gcc/nios2-elf/4.1.2/../../../../nios2-elf/lib/mno-hw-mul\libc.a(lib_a-fprintf.o)
 .debug_line    0x00004ce6      0x2de c:/altera/13.0/nios2eds/bin/gnu/h-i686-mingw32/bin/../lib/gcc/nios2-elf/4.1.2/../../../../nios2-elf/lib/mno-hw-mul\libc.a(lib_a-fwrite.o)
 .debug_line    0x00004fc4      0x2a1 c:/altera/13.0/nios2eds/bin/gnu/h-i686-mingw32/bin/../lib/gcc/nios2-elf/4.1.2/../../../../nios2-elf/lib/mno-hw-mul\libc.a(lib_a-getc.o)
 .debug_line    0x00005265      0x227 c:/altera/13.0/nios2eds/bin/gnu/h-i686-mingw32/bin/../lib/gcc/nios2-elf/4.1.2/../../../../nios2-elf/lib/mno-hw-mul\libc.a(lib_a-impure.o)
 .debug_line    0x0000548c      0x1ac c:/altera/13.0/nios2eds/bin/gnu/h-i686-mingw32/bin/../lib/gcc/nios2-elf/4.1.2/../../../../nios2-elf/lib/mno-hw-mul\libc.a(lib_a-memcpy.o)
 .debug_line    0x00005638      0x304 c:/altera/13.0/nios2eds/bin/gnu/h-i686-mingw32/bin/../lib/gcc/nios2-elf/4.1.2/../../../../nios2-elf/lib/mno-hw-mul\libc.a(lib_a-memmove.o)
 .debug_line    0x0000593c      0x2fb c:/altera/13.0/nios2eds/bin/gnu/h-i686-mingw32/bin/../lib/gcc/nios2-elf/4.1.2/../../../../nios2-elf/lib/mno-hw-mul\libc.a(lib_a-memset.o)
 .debug_line    0x00005c37      0x2a1 c:/altera/13.0/nios2eds/bin/gnu/h-i686-mingw32/bin/../lib/gcc/nios2-elf/4.1.2/../../../../nios2-elf/lib/mno-hw-mul\libc.a(lib_a-perror.o)
 .debug_line    0x00005ed8      0x298 c:/altera/13.0/nios2eds/bin/gnu/h-i686-mingw32/bin/../lib/gcc/nios2-elf/4.1.2/../../../../nios2-elf/lib/mno-hw-mul\libc.a(lib_a-printf.o)
 .debug_line    0x00006170      0x2c1 c:/altera/13.0/nios2eds/bin/gnu/h-i686-mingw32/bin/../lib/gcc/nios2-elf/4.1.2/../../../../nios2-elf/lib/mno-hw-mul\libc.a(lib_a-putc.o)
 .debug_line    0x00006431      0x261 c:/altera/13.0/nios2eds/bin/gnu/h-i686-mingw32/bin/../lib/gcc/nios2-elf/4.1.2/../../../../nios2-elf/lib/mno-hw-mul\libc.a(lib_a-putchar.o)
 .debug_line    0x00006692      0x2f4 c:/altera/13.0/nios2eds/bin/gnu/h-i686-mingw32/bin/../lib/gcc/nios2-elf/4.1.2/../../../../nios2-elf/lib/mno-hw-mul\libc.a(lib_a-puts.o)
 .debug_line    0x00006986      0x28a c:/altera/13.0/nios2eds/bin/gnu/h-i686-mingw32/bin/../lib/gcc/nios2-elf/4.1.2/../../../../nios2-elf/lib/mno-hw-mul\libc.a(lib_a-rget.o)
 .debug_line    0x00006c10      0x2c1 c:/altera/13.0/nios2eds/bin/gnu/h-i686-mingw32/bin/../lib/gcc/nios2-elf/4.1.2/../../../../nios2-elf/lib/mno-hw-mul\libc.a(lib_a-strchr.o)
 .debug_line    0x00006ed1      0x4de c:/altera/13.0/nios2eds/bin/gnu/h-i686-mingw32/bin/../lib/gcc/nios2-elf/4.1.2/../../../../nios2-elf/lib/mno-hw-mul\libc.a(lib_a-strerror.o)
 .debug_line    0x000073af      0x267 c:/altera/13.0/nios2eds/bin/gnu/h-i686-mingw32/bin/../lib/gcc/nios2-elf/4.1.2/../../../../nios2-elf/lib/mno-hw-mul\libc.a(lib_a-strlen.o)
 .debug_line    0x00007616       0x94 c:/altera/13.0/nios2eds/bin/gnu/h-i686-mingw32/bin/../lib/gcc/nios2-elf/4.1.2/../../../../nios2-elf/lib/mno-hw-mul\libc.a(lib_a-u_strerr.o)
 .debug_line    0x000076aa     0x1109 c:/altera/13.0/nios2eds/bin/gnu/h-i686-mingw32/bin/../lib/gcc/nios2-elf/4.1.2/../../../../nios2-elf/lib/mno-hw-mul\libc.a(lib_a-vfprintf.o)
 .debug_line    0x000087b3      0x34d c:/altera/13.0/nios2eds/bin/gnu/h-i686-mingw32/bin/../lib/gcc/nios2-elf/4.1.2/../../../../nios2-elf/lib/mno-hw-mul\libc.a(lib_a-wbuf.o)
 .debug_line    0x00008b00      0x2ed c:/altera/13.0/nios2eds/bin/gnu/h-i686-mingw32/bin/../lib/gcc/nios2-elf/4.1.2/../../../../nios2-elf/lib/mno-hw-mul\libc.a(lib_a-wsetup.o)
 .debug_line    0x00008ded      0x364 c:/altera/13.0/nios2eds/bin/gnu/h-i686-mingw32/bin/../lib/gcc/nios2-elf/4.1.2/../../../../nios2-elf/lib/mno-hw-mul\libc.a(lib_a-__call_atexit.o)
 .debug_line    0x00009151     0x1303 c:/altera/13.0/nios2eds/bin/gnu/h-i686-mingw32/bin/../lib/gcc/nios2-elf/4.1.2/../../../../nios2-elf/lib/mno-hw-mul\libc.a(lib_a-dtoa.o)
 .debug_line    0x0000a454      0x40a c:/altera/13.0/nios2eds/bin/gnu/h-i686-mingw32/bin/../lib/gcc/nios2-elf/4.1.2/../../../../nios2-elf/lib/mno-hw-mul\libc.a(lib_a-fflush.o)
 .debug_line    0x0000a85e      0x606 c:/altera/13.0/nios2eds/bin/gnu/h-i686-mingw32/bin/../lib/gcc/nios2-elf/4.1.2/../../../../nios2-elf/lib/mno-hw-mul\libc.a(lib_a-findfp.o)
 .debug_line    0x0000ae64      0x282 c:/altera/13.0/nios2eds/bin/gnu/h-i686-mingw32/bin/../lib/gcc/nios2-elf/4.1.2/../../../../nios2-elf/lib/mno-hw-mul\libc.a(lib_a-fputc.o)
 .debug_line    0x0000b0e6      0x2c5 c:/altera/13.0/nios2eds/bin/gnu/h-i686-mingw32/bin/../lib/gcc/nios2-elf/4.1.2/../../../../nios2-elf/lib/mno-hw-mul\libc.a(lib_a-fputs.o)
 .debug_line    0x0000b3ab      0x5e8 c:/altera/13.0/nios2eds/bin/gnu/h-i686-mingw32/bin/../lib/gcc/nios2-elf/4.1.2/../../../../nios2-elf/lib/mno-hw-mul\libc.a(lib_a-freer.o)
 .debug_line    0x0000b993      0x63e c:/altera/13.0/nios2eds/bin/gnu/h-i686-mingw32/bin/../lib/gcc/nios2-elf/4.1.2/../../../../nios2-elf/lib/mno-hw-mul\libc.a(lib_a-fvwrite.o)
 .debug_line    0x0000bfd1      0x347 c:/altera/13.0/nios2eds/bin/gnu/h-i686-mingw32/bin/../lib/gcc/nios2-elf/4.1.2/../../../../nios2-elf/lib/mno-hw-mul\libc.a(lib_a-fwalk.o)
 .debug_line    0x0000c318      0x2c5 c:/altera/13.0/nios2eds/bin/gnu/h-i686-mingw32/bin/../lib/gcc/nios2-elf/4.1.2/../../../../nios2-elf/lib/mno-hw-mul\libc.a(lib_a-locale.o)
 .debug_line    0x0000c5dd      0x3c0 c:/altera/13.0/nios2eds/bin/gnu/h-i686-mingw32/bin/../lib/gcc/nios2-elf/4.1.2/../../../../nios2-elf/lib/mno-hw-mul\libc.a(lib_a-makebuf.o)
 .debug_line    0x0000c99d      0x807 c:/altera/13.0/nios2eds/bin/gnu/h-i686-mingw32/bin/../lib/gcc/nios2-elf/4.1.2/../../../../nios2-elf/lib/mno-hw-mul\libc.a(lib_a-mallocr.o)
 .debug_line    0x0000d1a4      0x2fd c:/altera/13.0/nios2eds/bin/gnu/h-i686-mingw32/bin/../lib/gcc/nios2-elf/4.1.2/../../../../nios2-elf/lib/mno-hw-mul\libc.a(lib_a-memchr.o)
 .debug_line    0x0000d4a1     0x1258 c:/altera/13.0/nios2eds/bin/gnu/h-i686-mingw32/bin/../lib/gcc/nios2-elf/4.1.2/../../../../nios2-elf/lib/mno-hw-mul\libc.a(lib_a-mprec.o)
 .debug_line    0x0000e6f9      0x587 c:/altera/13.0/nios2eds/bin/gnu/h-i686-mingw32/bin/../lib/gcc/nios2-elf/4.1.2/../../../../nios2-elf/lib/mno-hw-mul\libc.a(lib_a-reallocr.o)
 .debug_line    0x0000ec80      0x3c1 c:/altera/13.0/nios2eds/bin/gnu/h-i686-mingw32/bin/../lib/gcc/nios2-elf/4.1.2/../../../../nios2-elf/lib/mno-hw-mul\libc.a(lib_a-refill.o)
 .debug_line    0x0000f041      0x21f c:/altera/13.0/nios2eds/bin/gnu/h-i686-mingw32/bin/../lib/gcc/nios2-elf/4.1.2/../../../../nios2-elf/lib/mno-hw-mul\libc.a(lib_a-s_isinfd.o)
 .debug_line    0x0000f260      0x217 c:/altera/13.0/nios2eds/bin/gnu/h-i686-mingw32/bin/../lib/gcc/nios2-elf/4.1.2/../../../../nios2-elf/lib/mno-hw-mul\libc.a(lib_a-s_isnand.o)
 .debug_line    0x0000f477      0x293 c:/altera/13.0/nios2eds/bin/gnu/h-i686-mingw32/bin/../lib/gcc/nios2-elf/4.1.2/../../../../nios2-elf/lib/mno-hw-mul\libc.a(lib_a-sbrkr.o)
 .debug_line    0x0000f70a      0x389 c:/altera/13.0/nios2eds/bin/gnu/h-i686-mingw32/bin/../lib/gcc/nios2-elf/4.1.2/../../../../nios2-elf/lib/mno-hw-mul\libc.a(lib_a-stdio.o)
 .debug_line    0x0000fa93      0x2cf c:/altera/13.0/nios2eds/bin/gnu/h-i686-mingw32/bin/../lib/gcc/nios2-elf/4.1.2/../../../../nios2-elf/lib/mno-hw-mul\libc.a(lib_a-strcmp.o)
 .debug_line    0x0000fd62      0x294 c:/altera/13.0/nios2eds/bin/gnu/h-i686-mingw32/bin/../lib/gcc/nios2-elf/4.1.2/../../../../nios2-elf/lib/mno-hw-mul\libc.a(lib_a-writer.o)
 .debug_line    0x0000fff6      0x259 c:/altera/13.0/nios2eds/bin/gnu/h-i686-mingw32/bin/../lib/gcc/nios2-elf/4.1.2/../../../../nios2-elf/lib/mno-hw-mul\libc.a(lib_a-callocr.o)
 .debug_line    0x0001024f      0x294 c:/altera/13.0/nios2eds/bin/gnu/h-i686-mingw32/bin/../lib/gcc/nios2-elf/4.1.2/../../../../nios2-elf/lib/mno-hw-mul\libc.a(lib_a-closer.o)
 .debug_line    0x000104e3      0x2e5 c:/altera/13.0/nios2eds/bin/gnu/h-i686-mingw32/bin/../lib/gcc/nios2-elf/4.1.2/../../../../nios2-elf/lib/mno-hw-mul\libc.a(lib_a-fclose.o)
 .debug_line    0x000107c8      0x261 c:/altera/13.0/nios2eds/bin/gnu/h-i686-mingw32/bin/../lib/gcc/nios2-elf/4.1.2/../../../../nios2-elf/lib/mno-hw-mul\libc.a(lib_a-fstatr.o)
 .debug_line    0x00010a29      0x1dc c:/altera/13.0/nios2eds/bin/gnu/h-i686-mingw32/bin/../lib/gcc/nios2-elf/4.1.2/../../../../nios2-elf/lib/mno-hw-mul\libc.a(lib_a-int_errno.o)
 .debug_line    0x00010c05      0x295 c:/altera/13.0/nios2eds/bin/gnu/h-i686-mingw32/bin/../lib/gcc/nios2-elf/4.1.2/../../../../nios2-elf/lib/mno-hw-mul\libc.a(lib_a-isattyr.o)
 .debug_line    0x00010e9a      0x294 c:/altera/13.0/nios2eds/bin/gnu/h-i686-mingw32/bin/../lib/gcc/nios2-elf/4.1.2/../../../../nios2-elf/lib/mno-hw-mul\libc.a(lib_a-lseekr.o)
 .debug_line    0x0001112e      0x293 c:/altera/13.0/nios2eds/bin/gnu/h-i686-mingw32/bin/../lib/gcc/nios2-elf/4.1.2/../../../../nios2-elf/lib/mno-hw-mul\libc.a(lib_a-readr.o)
 .debug_line    0x000113c1      0x2f2 c:/altera/13.0/nios2eds/bin/gnu/h-i686-mingw32/bin/../lib/gcc/nios2-elf/4.1.2/mno-hw-mul\libgcc.a(_udivdi3.o)
 .debug_line    0x000116b3      0x405 c:/altera/13.0/nios2eds/bin/gnu/h-i686-mingw32/bin/../lib/gcc/nios2-elf/4.1.2/mno-hw-mul\libgcc.a(_umoddi3.o)
 .debug_line    0x00011ab8      0x301 c:/altera/13.0/nios2eds/bin/gnu/h-i686-mingw32/bin/../lib/gcc/nios2-elf/4.1.2/mno-hw-mul\libgcc.a(_div_df.o)
 .debug_line    0x00011db9      0x129 c:/altera/13.0/nios2eds/bin/gnu/h-i686-mingw32/bin/../lib/gcc/nios2-elf/4.1.2/mno-hw-mul\libgcc.a(_eq_df.o)
 .debug_line    0x00011ee2      0x129 c:/altera/13.0/nios2eds/bin/gnu/h-i686-mingw32/bin/../lib/gcc/nios2-elf/4.1.2/mno-hw-mul\libgcc.a(_ne_df.o)
 .debug_line    0x0001200b      0x129 c:/altera/13.0/nios2eds/bin/gnu/h-i686-mingw32/bin/../lib/gcc/nios2-elf/4.1.2/mno-hw-mul\libgcc.a(_gt_df.o)
 .debug_line    0x00012134      0x129 c:/altera/13.0/nios2eds/bin/gnu/h-i686-mingw32/bin/../lib/gcc/nios2-elf/4.1.2/mno-hw-mul\libgcc.a(_lt_df.o)
 .debug_line    0x0001225d      0x175 c:/altera/13.0/nios2eds/bin/gnu/h-i686-mingw32/bin/../lib/gcc/nios2-elf/4.1.2/mno-hw-mul\libgcc.a(_si_to_df.o)
 .debug_line    0x000123d2      0x24f c:/altera/13.0/nios2eds/bin/gnu/h-i686-mingw32/bin/../lib/gcc/nios2-elf/4.1.2/mno-hw-mul\libgcc.a(lib2-divmod.o)
 .debug_line    0x00012621      0x270 ../cool_bsp/\libucosii_bsp.a(alt_exit.o)
 .debug_line    0x00012891      0x2c2 ../cool_bsp/\libucosii_bsp.a(alt_flash_dev.o)
 .debug_line    0x00012b53      0x2fb ../cool_bsp/\libucosii_bsp.a(alt_fstat.o)
 .debug_line    0x00012e4e      0x367 ../cool_bsp/\libucosii_bsp.a(alt_irq_register.o)
 .debug_line    0x000131b5       0x72 ../cool_bsp/\libucosii_bsp.a(alt_irq_vars.o)
 .debug_line    0x00013227      0x2fc ../cool_bsp/\libucosii_bsp.a(alt_isatty.o)
 .debug_line    0x00013523      0x2fb ../cool_bsp/\libucosii_bsp.a(alt_lseek.o)
 .debug_line    0x0001381e      0x343 ../cool_bsp/\libucosii_bsp.a(alt_main.o)
 .debug_line    0x00013b61      0x25b ../cool_bsp/\libucosii_bsp.a(alt_sbrk.o)
 .debug_line    0x00013dbc      0x2a7 ../cool_bsp/\libucosii_bsp.a(alt_usleep.o)
 .debug_line    0x00014063      0x2b9 ../cool_bsp/\libucosii_bsp.a(alt_env_lock.o)
 .debug_line    0x0001431c      0x375 ../cool_bsp/\libucosii_bsp.a(alt_malloc_lock.o)
 .debug_line    0x00014691     0x165d ../cool_bsp/\libucosii_bsp.a(os_core.o)
 .debug_line    0x00015cee      0x382 ../cool_bsp/\libucosii_bsp.a(os_dbg.o)
 .debug_line    0x00016070     0x11e1 ../cool_bsp/\libucosii_bsp.a(os_flag.o)
 .debug_line    0x00017251      0x784 ../cool_bsp/\libucosii_bsp.a(os_mem.o)
 .debug_line    0x000179d5      0xe65 ../cool_bsp/\libucosii_bsp.a(os_q.o)
 .debug_line    0x0001883a      0xa1d ../cool_bsp/\libucosii_bsp.a(os_sem.o)
 .debug_line    0x00019257     0x1126 ../cool_bsp/\libucosii_bsp.a(os_task.o)
 .debug_line    0x0001a37d      0x529 ../cool_bsp/\libucosii_bsp.a(os_time.o)
 .debug_line    0x0001a8a6      0x371 ../cool_bsp/\libucosii_bsp.a(alt_sys_init.o)
 .debug_line    0x0001ac17      0x56d ../cool_bsp/\libucosii_bsp.a(altera_avalon_cfi_flash.o)
 .debug_line    0x0001b184      0x973 ../cool_bsp/\libucosii_bsp.a(altera_avalon_cfi_flash_table.o)
 .debug_line    0x0001baf7      0x6e9 ../cool_bsp/\libucosii_bsp.a(altera_avalon_epcs_flash_controller.o)
 .debug_line    0x0001c1e0      0x313 ../cool_bsp/\libucosii_bsp.a(altera_avalon_jtag_uart_fd.o)
 .debug_line    0x0001c4f3      0x592 ../cool_bsp/\libucosii_bsp.a(altera_avalon_jtag_uart_init.o)
 .debug_line    0x0001ca85      0x350 ../cool_bsp/\libucosii_bsp.a(altera_avalon_jtag_uart_ioctl.o)
 .debug_line    0x0001cdd5      0x48e ../cool_bsp/\libucosii_bsp.a(altera_avalon_jtag_uart_read.o)
 .debug_line    0x0001d263      0x49c ../cool_bsp/\libucosii_bsp.a(altera_avalon_jtag_uart_write.o)
 .debug_line    0x0001d6ff      0x2ad ../cool_bsp/\libucosii_bsp.a(altera_avalon_timer_sc.o)
 .debug_line    0x0001d9ac      0x405 ../cool_bsp/\libucosii_bsp.a(epcs_commands.o)
 .debug_line    0x0001ddb1      0x341 ../cool_bsp/\libucosii_bsp.a(alt_iniche_close.o)
 .debug_line    0x0001e0f2      0x3e4 ../cool_bsp/\libucosii_bsp.a(alt_iniche_dev.o)
 .debug_line    0x0001e4d6      0x340 ../cool_bsp/\libucosii_bsp.a(alt_iniche_read.o)
 .debug_line    0x0001e816      0x351 ../cool_bsp/\libucosii_bsp.a(alt_iniche_write.o)
 .debug_line    0x0001eb67      0x7a0 ../cool_bsp/\libucosii_bsp.a(ipnet.o)
 .debug_line    0x0001f307      0x4e1 ../cool_bsp/\libucosii_bsp.a(ipstart.o)
 .debug_line    0x0001f7e8      0x916 ../cool_bsp/\libucosii_bsp.a(igmp_cmn.o)
 .debug_line    0x000200fe      0x6c1 ../cool_bsp/\libucosii_bsp.a(bsdsock.o)
 .debug_line    0x000207bf      0x304 ../cool_bsp/\libucosii_bsp.a(cksum.o)
 .debug_line    0x00020ac3      0x7a3 ../cool_bsp/\libucosii_bsp.a(in_utils.o)
 .debug_line    0x00021266      0x439 ../cool_bsp/\libucosii_bsp.a(netmain.o)
 .debug_line    0x0002169f      0x647 ../cool_bsp/\libucosii_bsp.a(parseip.o)
 .debug_line    0x00021ce6      0x5a2 ../cool_bsp/\libucosii_bsp.a(tk_crnos.o)
 .debug_line    0x00022288     0x1063 ../cool_bsp/\libucosii_bsp.a(dhcpclnt.o)
 .debug_line    0x000232eb      0x2f9 ../cool_bsp/\libucosii_bsp.a(dhcputil.o)
 .debug_line    0x000235e4      0x643 ../cool_bsp/\libucosii_bsp.a(pktalloc.o)
 .debug_line    0x00023c27      0x3d5 ../cool_bsp/\libucosii_bsp.a(q.o)
 .debug_line    0x00023ffc      0x468 ../cool_bsp/\libucosii_bsp.a(udp_open.o)
 .debug_line    0x00024464       0xaf ../cool_bsp/\libucosii_bsp.a(asm_cksum.o)
 .debug_line    0x00024513      0x46c ../cool_bsp/\libucosii_bsp.a(brdutils.o)
 .debug_line    0x0002497f      0x4f9 ../cool_bsp/\libucosii_bsp.a(osportco.o)
 .debug_line    0x00024e78      0x638 ../cool_bsp/\libucosii_bsp.a(targnios.o)
 .debug_line    0x000254b0      0xf1d ../cool_bsp/\libucosii_bsp.a(nptcp.o)
 .debug_line    0x000263cd      0x842 ../cool_bsp/\libucosii_bsp.a(rawsock.o)
 .debug_line    0x00026c0f      0xe30 ../cool_bsp/\libucosii_bsp.a(sockcall.o)
 .debug_line    0x00027a3f     0x12b2 ../cool_bsp/\libucosii_bsp.a(socket.o)
 .debug_line    0x00028cf1      0xbe6 ../cool_bsp/\libucosii_bsp.a(socket2.o)
 .debug_line    0x000298d7      0x727 ../cool_bsp/\libucosii_bsp.a(soselect.o)
 .debug_line    0x00029ffe     0x15e8 ../cool_bsp/\libucosii_bsp.a(tcp_in.o)
 .debug_line    0x0002b5e6      0xa53 ../cool_bsp/\libucosii_bsp.a(tcp_out.o)
 .debug_line    0x0002c039      0x7bd ../cool_bsp/\libucosii_bsp.a(tcp_subr.o)
 .debug_line    0x0002c7f6      0x60d ../cool_bsp/\libucosii_bsp.a(tcp_timr.o)
 .debug_line    0x0002ce03      0x89c ../cool_bsp/\libucosii_bsp.a(tcp_usr.o)
 .debug_line    0x0002d69f      0x339 ../cool_bsp/\libucosii_bsp.a(tcpport.o)
 .debug_line    0x0002d9d8      0x953 ../cool_bsp/\libucosii_bsp.a(udpsock.o)
 .debug_line    0x0002e32b      0x2d6 ../cool_bsp/\libucosii_bsp.a(alt_alarm_start.o)
 .debug_line    0x0002e601      0x253 ../cool_bsp/\libucosii_bsp.a(alt_busy_sleep.o)
 .debug_line    0x0002e854      0x2f3 ../cool_bsp/\libucosii_bsp.a(alt_close.o)
 .debug_line    0x0002eb47      0x1ab ../cool_bsp/\libucosii_bsp.a(alt_dcache_flush.o)
 .debug_line    0x0002ecf2      0x2b4 ../cool_bsp/\libucosii_bsp.a(alt_dev.o)
 .debug_line    0x0002efa6      0x254 ../cool_bsp/\libucosii_bsp.a(alt_dev_llist_insert.o)
 .debug_line    0x0002f1fa       0x83 ../cool_bsp/\libucosii_bsp.a(alt_do_ctors.o)
 .debug_line    0x0002f27d       0x83 ../cool_bsp/\libucosii_bsp.a(alt_do_dtors.o)
 .debug_line    0x0002f300      0x1a4 ../cool_bsp/\libucosii_bsp.a(alt_errno.o)
 .debug_line    0x0002f4a4      0x2d4 ../cool_bsp/\libucosii_bsp.a(alt_find_dev.o)
 .debug_line    0x0002f778      0x2c2 ../cool_bsp/\libucosii_bsp.a(alt_iic.o)
 .debug_line    0x0002fa3a      0x243 ../cool_bsp/\libucosii_bsp.a(alt_iic_isr_register.o)
 .debug_line    0x0002fc7d      0x31d ../cool_bsp/\libucosii_bsp.a(alt_io_redirect.o)
 .debug_line    0x0002ff9a       0x6b ../cool_bsp/\libucosii_bsp.a(alt_irq_entry.o)
 .debug_line    0x00030005      0x2be ../cool_bsp/\libucosii_bsp.a(alt_irq_handler.o)
 .debug_line    0x000302c3      0x359 ../cool_bsp/\libucosii_bsp.a(alt_open.o)
 .debug_line    0x0003061c      0x322 ../cool_bsp/\libucosii_bsp.a(alt_read.o)
 .debug_line    0x0003093e      0x273 ../cool_bsp/\libucosii_bsp.a(alt_release_fd.o)
 .debug_line    0x00030bb1      0x1b3 ../cool_bsp/\libucosii_bsp.a(alt_remap_cached.o)
 .debug_line    0x00030d64      0x1bd ../cool_bsp/\libucosii_bsp.a(alt_remap_uncached.o)
 .debug_line    0x00030f21      0x310 ../cool_bsp/\libucosii_bsp.a(alt_tick.o)
 .debug_line    0x00031231      0x323 ../cool_bsp/\libucosii_bsp.a(alt_write.o)
 .debug_line    0x00031554      0x1c8 ../cool_bsp/\libucosii_bsp.a(altera_nios2_qsys_irq.o)
 .debug_line    0x0003171c       0x86 ../cool_bsp/\libucosii_bsp.a(os_cpu_a.o)
 .debug_line    0x000317a2      0x32a ../cool_bsp/\libucosii_bsp.a(os_cpu_c.o)
 .debug_line    0x00031acc      0x43f ../cool_bsp/\libucosii_bsp.a(altera_avalon_cfi_flash_amd.o)
 .debug_line    0x00031f0b      0x431 ../cool_bsp/\libucosii_bsp.a(altera_avalon_cfi_flash_intel.o)
 .debug_line    0x0003233c      0x1ef ../cool_bsp/\libucosii_bsp.a(altera_avalon_spi.o)
 .debug_line    0x0003252b      0x519 ../cool_bsp/\libucosii_bsp.a(allports.o)
 .debug_line    0x00032a44      0x47d ../cool_bsp/\libucosii_bsp.a(timeouts.o)
 .debug_line    0x00032ec1      0x36a ../cool_bsp/\libucosii_bsp.a(tk_misc.o)
 .debug_line    0x0003322b      0x389 ../cool_bsp/\libucosii_bsp.a(alt_iniche_fcntl.o)
 .debug_line    0x000335b4      0xc9c ../cool_bsp/\libucosii_bsp.a(et_arp.o)
 .debug_line    0x00034250      0x473 ../cool_bsp/\libucosii_bsp.a(iface.o)
 .debug_line    0x000346c3      0xf8f ../cool_bsp/\libucosii_bsp.a(ip.o)
 .debug_line    0x00035652      0xf76 ../cool_bsp/\libucosii_bsp.a(ip_reasm.o)
 .debug_line    0x000365c8      0x780 ../cool_bsp/\libucosii_bsp.a(ipdemux.o)
 .debug_line    0x00036d48      0x462 ../cool_bsp/\libucosii_bsp.a(ipmc.o)
 .debug_line    0x000371aa      0x332 ../cool_bsp/\libucosii_bsp.a(ipport.o)
 .debug_line    0x000374dc      0x5b3 ../cool_bsp/\libucosii_bsp.a(ipraw.o)
 .debug_line    0x00037a8f      0x5b5 ../cool_bsp/\libucosii_bsp.a(iproute.o)
 .debug_line    0x00038044      0x7f0 ../cool_bsp/\libucosii_bsp.a(udp.o)
 .debug_line    0x00038834      0x434 ../cool_bsp/\libucosii_bsp.a(igmp.o)
 .debug_line    0x00038c68      0x627 ../cool_bsp/\libucosii_bsp.a(igmp2.o)
 .debug_line    0x0003928f      0x70b ../cool_bsp/\libucosii_bsp.a(ipopt.o)
 .debug_line    0x0003999a      0x5f5 ../cool_bsp/\libucosii_bsp.a(u_mctest.o)
 .debug_line    0x00039f8f      0x439 ../cool_bsp/\libucosii_bsp.a(dhcsetup.o)
 .debug_line    0x0003a3c8      0x443 ../cool_bsp/\libucosii_bsp.a(memdev.o)
 .debug_line    0x0003a80b      0x3b3 ../cool_bsp/\libucosii_bsp.a(tcpcksum.o)
 .debug_line    0x0003abbe      0x767 ../cool_bsp/\libucosii_bsp.a(in_pcb.o)
 .debug_line    0x0003b325      0xff1 ../cool_bsp/\libucosii_bsp.a(vfsfiles.o)
 .debug_line    0x0003c316      0x2be ../cool_bsp/\libucosii_bsp.a(vfsport.o)
 .debug_line    0x0003c5d4       0xab ../cool_bsp/\libucosii_bsp.a(alt_exception_entry.o)
 .debug_line    0x0003c67f      0x352 ../cool_bsp/\libucosii_bsp.a(alt_fcntl.o)
 .debug_line    0x0003c9d1      0x2e5 ../cool_bsp/\libucosii_bsp.a(alt_find_file.o)
 .debug_line    0x0003ccb6      0x315 ../cool_bsp/\libucosii_bsp.a(alt_get_fd.o)
 .debug_line    0x0003cfcb      0x952 ../cool_bsp/\libucosii_bsp.a(icmp.o)
 .debug_line    0x0003d91d      0x1fd c:/altera/13.0/nios2eds/bin/gnu/h-i686-mingw32/bin/../lib/gcc/nios2-elf/4.1.2/../../../../nios2-elf/lib/mno-hw-mul\libc.a(lib_a-atexit.o)
 .debug_line    0x0003db1a      0x207 c:/altera/13.0/nios2eds/bin/gnu/h-i686-mingw32/bin/../lib/gcc/nios2-elf/4.1.2/../../../../nios2-elf/lib/mno-hw-mul\libc.a(lib_a-atoi.o)
 .debug_line    0x0003dd21      0x209 c:/altera/13.0/nios2eds/bin/gnu/h-i686-mingw32/bin/../lib/gcc/nios2-elf/4.1.2/../../../../nios2-elf/lib/mno-hw-mul\libc.a(lib_a-calloc.o)
 .debug_line    0x0003df2a      0x248 c:/altera/13.0/nios2eds/bin/gnu/h-i686-mingw32/bin/../lib/gcc/nios2-elf/4.1.2/../../../../nios2-elf/lib/mno-hw-mul\libc.a(lib_a-malloc.o)
 .debug_line    0x0003e172      0x299 c:/altera/13.0/nios2eds/bin/gnu/h-i686-mingw32/bin/../lib/gcc/nios2-elf/4.1.2/../../../../nios2-elf/lib/mno-hw-mul\libc.a(lib_a-memcmp.o)
 .debug_line    0x0003e40b      0x31f c:/altera/13.0/nios2eds/bin/gnu/h-i686-mingw32/bin/../lib/gcc/nios2-elf/4.1.2/../../../../nios2-elf/lib/mno-hw-mul\libc.a(lib_a-sprintf.o)
 .debug_line    0x0003e72a      0x281 c:/altera/13.0/nios2eds/bin/gnu/h-i686-mingw32/bin/../lib/gcc/nios2-elf/4.1.2/../../../../nios2-elf/lib/mno-hw-mul\libc.a(lib_a-strcpy.o)
 .debug_line    0x0003e9ab      0x2f8 c:/altera/13.0/nios2eds/bin/gnu/h-i686-mingw32/bin/../lib/gcc/nios2-elf/4.1.2/../../../../nios2-elf/lib/mno-hw-mul\libc.a(lib_a-strncmp.o)
 .debug_line    0x0003eca3      0x2ca c:/altera/13.0/nios2eds/bin/gnu/h-i686-mingw32/bin/../lib/gcc/nios2-elf/4.1.2/../../../../nios2-elf/lib/mno-hw-mul\libc.a(lib_a-strncpy.o)
 .debug_line    0x0003ef6d      0x3f0 c:/altera/13.0/nios2eds/bin/gnu/h-i686-mingw32/bin/../lib/gcc/nios2-elf/4.1.2/../../../../nios2-elf/lib/mno-hw-mul\libc.a(lib_a-strtol.o)
 .debug_line    0x0003f35d      0x26c c:/altera/13.0/nios2eds/bin/gnu/h-i686-mingw32/bin/../lib/gcc/nios2-elf/4.1.2/../../../../nios2-elf/lib/mno-hw-mul\libc.a(lib_a-vprintf.o)
 .debug_line    0x0003f5c9      0x2d6 c:/altera/13.0/nios2eds/bin/gnu/h-i686-mingw32/bin/../lib/gcc/nios2-elf/4.1.2/../../../../nios2-elf/lib/mno-hw-mul\libc.a(lib_a-vsprintf.o)
 .debug_line    0x0003f89f      0x310 c:/altera/13.0/nios2eds/bin/gnu/h-i686-mingw32/bin/../lib/gcc/nios2-elf/4.1.2/../../../../nios2-elf/lib/mno-hw-mul\libc.a(lib_a-__atexit.o)

.debug_frame    0x00000000     0x64b0
 *(.debug_frame)
 .debug_frame   0x00000000       0x48 obj/default/SSS_DE2_115.o
 .debug_frame   0x00000048       0x64 obj/default/alt_error_handler.o
 .debug_frame   0x000000ac      0x19c obj/default/dm9000a.o
 .debug_frame   0x00000248       0x84 obj/default/iniche_init.o
 .debug_frame   0x000002cc       0x64 obj/default/led.o
 .debug_frame   0x00000330       0xbc obj/default/network_utilities.o
 .debug_frame   0x000003ec       0xfc obj/default/simple_socket_server.o
 .debug_frame   0x000004e8       0x30 c:/altera/13.0/nios2eds/bin/gnu/h-i686-mingw32/bin/../lib/gcc/nios2-elf/4.1.2/mno-hw-mul\libgcc.a(_fixunsdfsi.o)
 .debug_frame   0x00000518       0x70 c:/altera/13.0/nios2eds/bin/gnu/h-i686-mingw32/bin/../lib/gcc/nios2-elf/4.1.2/mno-hw-mul\libgcc.a(_addsub_df.o)
 .debug_frame   0x00000588       0x3c c:/altera/13.0/nios2eds/bin/gnu/h-i686-mingw32/bin/../lib/gcc/nios2-elf/4.1.2/mno-hw-mul\libgcc.a(_mul_df.o)
 .debug_frame   0x000005c4       0x2c c:/altera/13.0/nios2eds/bin/gnu/h-i686-mingw32/bin/../lib/gcc/nios2-elf/4.1.2/mno-hw-mul\libgcc.a(_ge_df.o)
 .debug_frame   0x000005f0       0x28 c:/altera/13.0/nios2eds/bin/gnu/h-i686-mingw32/bin/../lib/gcc/nios2-elf/4.1.2/mno-hw-mul\libgcc.a(_df_to_si.o)
 .debug_frame   0x00000618       0x38 c:/altera/13.0/nios2eds/bin/gnu/h-i686-mingw32/bin/../lib/gcc/nios2-elf/4.1.2/mno-hw-mul\libgcc.a(_usi_to_df.o)
 .debug_frame   0x00000650       0x20 c:/altera/13.0/nios2eds/bin/gnu/h-i686-mingw32/bin/../lib/gcc/nios2-elf/4.1.2/mno-hw-mul\libgcc.a(lib2-mul.o)
 .debug_frame   0x00000670       0x40 c:/altera/13.0/nios2eds/bin/gnu/h-i686-mingw32/bin/../lib/gcc/nios2-elf/4.1.2/mno-hw-mul\libgcc.a(_muldi3.o)
 .debug_frame   0x000006b0       0x20 c:/altera/13.0/nios2eds/bin/gnu/h-i686-mingw32/bin/../lib/gcc/nios2-elf/4.1.2/mno-hw-mul\libgcc.a(_clzsi2.o)
 .debug_frame   0x000006d0       0x2c c:/altera/13.0/nios2eds/bin/gnu/h-i686-mingw32/bin/../lib/gcc/nios2-elf/4.1.2/mno-hw-mul\libgcc.a(_pack_df.o)
 .debug_frame   0x000006fc       0x20 c:/altera/13.0/nios2eds/bin/gnu/h-i686-mingw32/bin/../lib/gcc/nios2-elf/4.1.2/mno-hw-mul\libgcc.a(_unpack_df.o)
 .debug_frame   0x0000071c       0x20 c:/altera/13.0/nios2eds/bin/gnu/h-i686-mingw32/bin/../lib/gcc/nios2-elf/4.1.2/mno-hw-mul\libgcc.a(_fpcmp_parts_df.o)
 .debug_frame   0x0000073c       0x28 c:/altera/13.0/nios2eds/bin/gnu/h-i686-mingw32/bin/../lib/gcc/nios2-elf/4.1.2/../../../../nios2-elf/lib/mno-hw-mul\libc.a(lib_a-exit.o)
 .debug_frame   0x00000764       0x40 c:/altera/13.0/nios2eds/bin/gnu/h-i686-mingw32/bin/../lib/gcc/nios2-elf/4.1.2/../../../../nios2-elf/lib/mno-hw-mul\libc.a(lib_a-fprintf.o)
 .debug_frame   0x000007a4       0x48 c:/altera/13.0/nios2eds/bin/gnu/h-i686-mingw32/bin/../lib/gcc/nios2-elf/4.1.2/../../../../nios2-elf/lib/mno-hw-mul\libc.a(lib_a-fwrite.o)
 .debug_frame   0x000007ec       0x48 c:/altera/13.0/nios2eds/bin/gnu/h-i686-mingw32/bin/../lib/gcc/nios2-elf/4.1.2/../../../../nios2-elf/lib/mno-hw-mul\libc.a(lib_a-getc.o)
 .debug_frame   0x00000834       0x20 c:/altera/13.0/nios2eds/bin/gnu/h-i686-mingw32/bin/../lib/gcc/nios2-elf/4.1.2/../../../../nios2-elf/lib/mno-hw-mul\libc.a(lib_a-memcpy.o)
 .debug_frame   0x00000854       0x20 c:/altera/13.0/nios2eds/bin/gnu/h-i686-mingw32/bin/../lib/gcc/nios2-elf/4.1.2/../../../../nios2-elf/lib/mno-hw-mul\libc.a(lib_a-memmove.o)
 .debug_frame   0x00000874       0x20 c:/altera/13.0/nios2eds/bin/gnu/h-i686-mingw32/bin/../lib/gcc/nios2-elf/4.1.2/../../../../nios2-elf/lib/mno-hw-mul\libc.a(lib_a-memset.o)
 .debug_frame   0x00000894       0x38 c:/altera/13.0/nios2eds/bin/gnu/h-i686-mingw32/bin/../lib/gcc/nios2-elf/4.1.2/../../../../nios2-elf/lib/mno-hw-mul\libc.a(lib_a-perror.o)
 .debug_frame   0x000008cc       0x40 c:/altera/13.0/nios2eds/bin/gnu/h-i686-mingw32/bin/../lib/gcc/nios2-elf/4.1.2/../../../../nios2-elf/lib/mno-hw-mul\libc.a(lib_a-printf.o)
 .debug_frame   0x0000090c       0x4c c:/altera/13.0/nios2eds/bin/gnu/h-i686-mingw32/bin/../lib/gcc/nios2-elf/4.1.2/../../../../nios2-elf/lib/mno-hw-mul\libc.a(lib_a-putc.o)
 .debug_frame   0x00000958       0x30 c:/altera/13.0/nios2eds/bin/gnu/h-i686-mingw32/bin/../lib/gcc/nios2-elf/4.1.2/../../../../nios2-elf/lib/mno-hw-mul\libc.a(lib_a-putchar.o)
 .debug_frame   0x00000988       0x3c c:/altera/13.0/nios2eds/bin/gnu/h-i686-mingw32/bin/../lib/gcc/nios2-elf/4.1.2/../../../../nios2-elf/lib/mno-hw-mul\libc.a(lib_a-puts.o)
 .debug_frame   0x000009c4       0x38 c:/altera/13.0/nios2eds/bin/gnu/h-i686-mingw32/bin/../lib/gcc/nios2-elf/4.1.2/../../../../nios2-elf/lib/mno-hw-mul\libc.a(lib_a-rget.o)
 .debug_frame   0x000009fc       0x20 c:/altera/13.0/nios2eds/bin/gnu/h-i686-mingw32/bin/../lib/gcc/nios2-elf/4.1.2/../../../../nios2-elf/lib/mno-hw-mul\libc.a(lib_a-strchr.o)
 .debug_frame   0x00000a1c       0x28 c:/altera/13.0/nios2eds/bin/gnu/h-i686-mingw32/bin/../lib/gcc/nios2-elf/4.1.2/../../../../nios2-elf/lib/mno-hw-mul\libc.a(lib_a-strerror.o)
 .debug_frame   0x00000a44       0x20 c:/altera/13.0/nios2eds/bin/gnu/h-i686-mingw32/bin/../lib/gcc/nios2-elf/4.1.2/../../../../nios2-elf/lib/mno-hw-mul\libc.a(lib_a-strlen.o)
 .debug_frame   0x00000a64       0x20 c:/altera/13.0/nios2eds/bin/gnu/h-i686-mingw32/bin/../lib/gcc/nios2-elf/4.1.2/../../../../nios2-elf/lib/mno-hw-mul\libc.a(lib_a-u_strerr.o)
 .debug_frame   0x00000a84       0x64 c:/altera/13.0/nios2eds/bin/gnu/h-i686-mingw32/bin/../lib/gcc/nios2-elf/4.1.2/../../../../nios2-elf/lib/mno-hw-mul\libc.a(lib_a-vfprintf.o)
 .debug_frame   0x00000ae8       0x3c c:/altera/13.0/nios2eds/bin/gnu/h-i686-mingw32/bin/../lib/gcc/nios2-elf/4.1.2/../../../../nios2-elf/lib/mno-hw-mul\libc.a(lib_a-wbuf.o)
 .debug_frame   0x00000b24       0x2c c:/altera/13.0/nios2eds/bin/gnu/h-i686-mingw32/bin/../lib/gcc/nios2-elf/4.1.2/../../../../nios2-elf/lib/mno-hw-mul\libc.a(lib_a-wsetup.o)
 .debug_frame   0x00000b50       0x4c c:/altera/13.0/nios2eds/bin/gnu/h-i686-mingw32/bin/../lib/gcc/nios2-elf/4.1.2/../../../../nios2-elf/lib/mno-hw-mul\libc.a(lib_a-__call_atexit.o)
 .debug_frame   0x00000b9c       0x64 c:/altera/13.0/nios2eds/bin/gnu/h-i686-mingw32/bin/../lib/gcc/nios2-elf/4.1.2/../../../../nios2-elf/lib/mno-hw-mul\libc.a(lib_a-dtoa.o)
 .debug_frame   0x00000c00       0x40 c:/altera/13.0/nios2eds/bin/gnu/h-i686-mingw32/bin/../lib/gcc/nios2-elf/4.1.2/../../../../nios2-elf/lib/mno-hw-mul\libc.a(lib_a-fflush.o)
 .debug_frame   0x00000c40      0x118 c:/altera/13.0/nios2eds/bin/gnu/h-i686-mingw32/bin/../lib/gcc/nios2-elf/4.1.2/../../../../nios2-elf/lib/mno-hw-mul\libc.a(lib_a-findfp.o)
 .debug_frame   0x00000d58       0x4c c:/altera/13.0/nios2eds/bin/gnu/h-i686-mingw32/bin/../lib/gcc/nios2-elf/4.1.2/../../../../nios2-elf/lib/mno-hw-mul\libc.a(lib_a-fputc.o)
 .debug_frame   0x00000da4       0x3c c:/altera/13.0/nios2eds/bin/gnu/h-i686-mingw32/bin/../lib/gcc/nios2-elf/4.1.2/../../../../nios2-elf/lib/mno-hw-mul\libc.a(lib_a-fputs.o)
 .debug_frame   0x00000de0       0x4c c:/altera/13.0/nios2eds/bin/gnu/h-i686-mingw32/bin/../lib/gcc/nios2-elf/4.1.2/../../../../nios2-elf/lib/mno-hw-mul\libc.a(lib_a-freer.o)
 .debug_frame   0x00000e2c       0x38 c:/altera/13.0/nios2eds/bin/gnu/h-i686-mingw32/bin/../lib/gcc/nios2-elf/4.1.2/../../../../nios2-elf/lib/mno-hw-mul\libc.a(lib_a-fvwrite.o)
 .debug_frame   0x00000e64       0x60 c:/altera/13.0/nios2eds/bin/gnu/h-i686-mingw32/bin/../lib/gcc/nios2-elf/4.1.2/../../../../nios2-elf/lib/mno-hw-mul\libc.a(lib_a-fwalk.o)
 .debug_frame   0x00000ec4       0x70 c:/altera/13.0/nios2eds/bin/gnu/h-i686-mingw32/bin/../lib/gcc/nios2-elf/4.1.2/../../../../nios2-elf/lib/mno-hw-mul\libc.a(lib_a-locale.o)
 .debug_frame   0x00000f34       0x2c c:/altera/13.0/nios2eds/bin/gnu/h-i686-mingw32/bin/../lib/gcc/nios2-elf/4.1.2/../../../../nios2-elf/lib/mno-hw-mul\libc.a(lib_a-makebuf.o)
 .debug_frame   0x00000f60       0x38 c:/altera/13.0/nios2eds/bin/gnu/h-i686-mingw32/bin/../lib/gcc/nios2-elf/4.1.2/../../../../nios2-elf/lib/mno-hw-mul\libc.a(lib_a-mallocr.o)
 .debug_frame   0x00000f98       0x20 c:/altera/13.0/nios2eds/bin/gnu/h-i686-mingw32/bin/../lib/gcc/nios2-elf/4.1.2/../../../../nios2-elf/lib/mno-hw-mul\libc.a(lib_a-memchr.o)
 .debug_frame   0x00000fb8      0x228 c:/altera/13.0/nios2eds/bin/gnu/h-i686-mingw32/bin/../lib/gcc/nios2-elf/4.1.2/../../../../nios2-elf/lib/mno-hw-mul\libc.a(lib_a-mprec.o)
 .debug_frame   0x000011e0       0x38 c:/altera/13.0/nios2eds/bin/gnu/h-i686-mingw32/bin/../lib/gcc/nios2-elf/4.1.2/../../../../nios2-elf/lib/mno-hw-mul\libc.a(lib_a-reallocr.o)
 .debug_frame   0x00001218       0x3c c:/altera/13.0/nios2eds/bin/gnu/h-i686-mingw32/bin/../lib/gcc/nios2-elf/4.1.2/../../../../nios2-elf/lib/mno-hw-mul\libc.a(lib_a-refill.o)
 .debug_frame   0x00001254       0x20 c:/altera/13.0/nios2eds/bin/gnu/h-i686-mingw32/bin/../lib/gcc/nios2-elf/4.1.2/../../../../nios2-elf/lib/mno-hw-mul\libc.a(lib_a-s_isinfd.o)
 .debug_frame   0x00001274       0x20 c:/altera/13.0/nios2eds/bin/gnu/h-i686-mingw32/bin/../lib/gcc/nios2-elf/4.1.2/../../../../nios2-elf/lib/mno-hw-mul\libc.a(lib_a-s_isnand.o)
 .debug_frame   0x00001294       0x2c c:/altera/13.0/nios2eds/bin/gnu/h-i686-mingw32/bin/../lib/gcc/nios2-elf/4.1.2/../../../../nios2-elf/lib/mno-hw-mul\libc.a(lib_a-sbrkr.o)
 .debug_frame   0x000012c0       0x78 c:/altera/13.0/nios2eds/bin/gnu/h-i686-mingw32/bin/../lib/gcc/nios2-elf/4.1.2/../../../../nios2-elf/lib/mno-hw-mul\libc.a(lib_a-stdio.o)
 .debug_frame   0x00001338       0x20 c:/altera/13.0/nios2eds/bin/gnu/h-i686-mingw32/bin/../lib/gcc/nios2-elf/4.1.2/../../../../nios2-elf/lib/mno-hw-mul\libc.a(lib_a-strcmp.o)
 .debug_frame   0x00001358       0x2c c:/altera/13.0/nios2eds/bin/gnu/h-i686-mingw32/bin/../lib/gcc/nios2-elf/4.1.2/../../../../nios2-elf/lib/mno-hw-mul\libc.a(lib_a-writer.o)
 .debug_frame   0x00001384       0x2c c:/altera/13.0/nios2eds/bin/gnu/h-i686-mingw32/bin/../lib/gcc/nios2-elf/4.1.2/../../../../nios2-elf/lib/mno-hw-mul\libc.a(lib_a-callocr.o)
 .debug_frame   0x000013b0       0x2c c:/altera/13.0/nios2eds/bin/gnu/h-i686-mingw32/bin/../lib/gcc/nios2-elf/4.1.2/../../../../nios2-elf/lib/mno-hw-mul\libc.a(lib_a-closer.o)
 .debug_frame   0x000013dc       0x3c c:/altera/13.0/nios2eds/bin/gnu/h-i686-mingw32/bin/../lib/gcc/nios2-elf/4.1.2/../../../../nios2-elf/lib/mno-hw-mul\libc.a(lib_a-fclose.o)
 .debug_frame   0x00001418       0x2c c:/altera/13.0/nios2eds/bin/gnu/h-i686-mingw32/bin/../lib/gcc/nios2-elf/4.1.2/../../../../nios2-elf/lib/mno-hw-mul\libc.a(lib_a-fstatr.o)
 .debug_frame   0x00001444       0x2c c:/altera/13.0/nios2eds/bin/gnu/h-i686-mingw32/bin/../lib/gcc/nios2-elf/4.1.2/../../../../nios2-elf/lib/mno-hw-mul\libc.a(lib_a-isattyr.o)
 .debug_frame   0x00001470       0x2c c:/altera/13.0/nios2eds/bin/gnu/h-i686-mingw32/bin/../lib/gcc/nios2-elf/4.1.2/../../../../nios2-elf/lib/mno-hw-mul\libc.a(lib_a-lseekr.o)
 .debug_frame   0x0000149c       0x2c c:/altera/13.0/nios2eds/bin/gnu/h-i686-mingw32/bin/../lib/gcc/nios2-elf/4.1.2/../../../../nios2-elf/lib/mno-hw-mul\libc.a(lib_a-readr.o)
 .debug_frame   0x000014c8       0x38 c:/altera/13.0/nios2eds/bin/gnu/h-i686-mingw32/bin/../lib/gcc/nios2-elf/4.1.2/mno-hw-mul\libgcc.a(_udivdi3.o)
 .debug_frame   0x00001500       0x38 c:/altera/13.0/nios2eds/bin/gnu/h-i686-mingw32/bin/../lib/gcc/nios2-elf/4.1.2/mno-hw-mul\libgcc.a(_umoddi3.o)
 .debug_frame   0x00001538       0x30 c:/altera/13.0/nios2eds/bin/gnu/h-i686-mingw32/bin/../lib/gcc/nios2-elf/4.1.2/mno-hw-mul\libgcc.a(_div_df.o)
 .debug_frame   0x00001568       0x2c c:/altera/13.0/nios2eds/bin/gnu/h-i686-mingw32/bin/../lib/gcc/nios2-elf/4.1.2/mno-hw-mul\libgcc.a(_eq_df.o)
 .debug_frame   0x00001594       0x2c c:/altera/13.0/nios2eds/bin/gnu/h-i686-mingw32/bin/../lib/gcc/nios2-elf/4.1.2/mno-hw-mul\libgcc.a(_ne_df.o)
 .debug_frame   0x000015c0       0x2c c:/altera/13.0/nios2eds/bin/gnu/h-i686-mingw32/bin/../lib/gcc/nios2-elf/4.1.2/mno-hw-mul\libgcc.a(_gt_df.o)
 .debug_frame   0x000015ec       0x2c c:/altera/13.0/nios2eds/bin/gnu/h-i686-mingw32/bin/../lib/gcc/nios2-elf/4.1.2/mno-hw-mul\libgcc.a(_lt_df.o)
 .debug_frame   0x00001618       0x30 c:/altera/13.0/nios2eds/bin/gnu/h-i686-mingw32/bin/../lib/gcc/nios2-elf/4.1.2/mno-hw-mul\libgcc.a(_si_to_df.o)
 .debug_frame   0x00001648       0x70 c:/altera/13.0/nios2eds/bin/gnu/h-i686-mingw32/bin/../lib/gcc/nios2-elf/4.1.2/mno-hw-mul\libgcc.a(lib2-divmod.o)
 .debug_frame   0x000016b8       0x48 ../cool_bsp/\libucosii_bsp.a(alt_exit.o)
 .debug_frame   0x00001700       0x48 ../cool_bsp/\libucosii_bsp.a(alt_flash_dev.o)
 .debug_frame   0x00001748       0x48 ../cool_bsp/\libucosii_bsp.a(alt_fstat.o)
 .debug_frame   0x00001790       0x2c ../cool_bsp/\libucosii_bsp.a(alt_irq_register.o)
 .debug_frame   0x000017bc       0x48 ../cool_bsp/\libucosii_bsp.a(alt_isatty.o)
 .debug_frame   0x00001804       0x48 ../cool_bsp/\libucosii_bsp.a(alt_lseek.o)
 .debug_frame   0x0000184c       0x2c ../cool_bsp/\libucosii_bsp.a(alt_main.o)
 .debug_frame   0x00001878       0x2c ../cool_bsp/\libucosii_bsp.a(alt_sbrk.o)
 .debug_frame   0x000018a4       0x30 ../cool_bsp/\libucosii_bsp.a(alt_usleep.o)
 .debug_frame   0x000018d4       0x4c ../cool_bsp/\libucosii_bsp.a(alt_env_lock.o)
 .debug_frame   0x00001920       0x4c ../cool_bsp/\libucosii_bsp.a(alt_malloc_lock.o)
 .debug_frame   0x0000196c      0x3e4 ../cool_bsp/\libucosii_bsp.a(os_core.o)
 .debug_frame   0x00001d50       0x2c ../cool_bsp/\libucosii_bsp.a(os_dbg.o)
 .debug_frame   0x00001d7c      0x180 ../cool_bsp/\libucosii_bsp.a(os_flag.o)
 .debug_frame   0x00001efc       0xd4 ../cool_bsp/\libucosii_bsp.a(os_mem.o)
 .debug_frame   0x00001fd0      0x144 ../cool_bsp/\libucosii_bsp.a(os_q.o)
 .debug_frame   0x00002114       0xf0 ../cool_bsp/\libucosii_bsp.a(os_sem.o)
 .debug_frame   0x00002204      0x160 ../cool_bsp/\libucosii_bsp.a(os_task.o)
 .debug_frame   0x00002364       0xa0 ../cool_bsp/\libucosii_bsp.a(os_time.o)
 .debug_frame   0x00002404       0x64 ../cool_bsp/\libucosii_bsp.a(alt_sys_init.o)
 .debug_frame   0x00002468       0xd4 ../cool_bsp/\libucosii_bsp.a(altera_avalon_cfi_flash.o)
 .debug_frame   0x0000253c      0x210 ../cool_bsp/\libucosii_bsp.a(altera_avalon_cfi_flash_table.o)
 .debug_frame   0x0000274c      0x128 ../cool_bsp/\libucosii_bsp.a(altera_avalon_epcs_flash_controller.o)
 .debug_frame   0x00002874       0x80 ../cool_bsp/\libucosii_bsp.a(altera_avalon_jtag_uart_fd.o)
 .debug_frame   0x000028f4       0x80 ../cool_bsp/\libucosii_bsp.a(altera_avalon_jtag_uart_init.o)
 .debug_frame   0x00002974       0x2c ../cool_bsp/\libucosii_bsp.a(altera_avalon_jtag_uart_ioctl.o)
 .debug_frame   0x000029a0       0x2c ../cool_bsp/\libucosii_bsp.a(altera_avalon_jtag_uart_read.o)
 .debug_frame   0x000029cc       0x2c ../cool_bsp/\libucosii_bsp.a(altera_avalon_jtag_uart_write.o)
 .debug_frame   0x000029f8       0x48 ../cool_bsp/\libucosii_bsp.a(altera_avalon_timer_sc.o)
 .debug_frame   0x00002a40      0x160 ../cool_bsp/\libucosii_bsp.a(epcs_commands.o)
 .debug_frame   0x00002ba0       0x2c ../cool_bsp/\libucosii_bsp.a(alt_iniche_close.o)
 .debug_frame   0x00002bcc       0x2c ../cool_bsp/\libucosii_bsp.a(alt_iniche_dev.o)
 .debug_frame   0x00002bf8       0x2c ../cool_bsp/\libucosii_bsp.a(alt_iniche_read.o)
 .debug_frame   0x00002c24       0x2c ../cool_bsp/\libucosii_bsp.a(alt_iniche_write.o)
 .debug_frame   0x00002c50       0xb8 ../cool_bsp/\libucosii_bsp.a(ipnet.o)
 .debug_frame   0x00002d08       0x84 ../cool_bsp/\libucosii_bsp.a(ipstart.o)
 .debug_frame   0x00002d8c       0xf8 ../cool_bsp/\libucosii_bsp.a(igmp_cmn.o)
 .debug_frame   0x00002e84      0x12c ../cool_bsp/\libucosii_bsp.a(bsdsock.o)
 .debug_frame   0x00002fb0       0x48 ../cool_bsp/\libucosii_bsp.a(cksum.o)
 .debug_frame   0x00002ff8      0x164 ../cool_bsp/\libucosii_bsp.a(in_utils.o)
 .debug_frame   0x0000315c       0x64 ../cool_bsp/\libucosii_bsp.a(netmain.o)
 .debug_frame   0x000031c0      0x10c ../cool_bsp/\libucosii_bsp.a(parseip.o)
 .debug_frame   0x000032cc       0xdc ../cool_bsp/\libucosii_bsp.a(tk_crnos.o)
 .debug_frame   0x000033a8      0x290 ../cool_bsp/\libucosii_bsp.a(dhcpclnt.o)
 .debug_frame   0x00003638       0x2c ../cool_bsp/\libucosii_bsp.a(dhcputil.o)
 .debug_frame   0x00003664       0xb8 ../cool_bsp/\libucosii_bsp.a(pktalloc.o)
 .debug_frame   0x0000371c       0x64 ../cool_bsp/\libucosii_bsp.a(q.o)
 .debug_frame   0x00003780       0x48 ../cool_bsp/\libucosii_bsp.a(udp_open.o)
 .debug_frame   0x000037c8       0xf0 ../cool_bsp/\libucosii_bsp.a(brdutils.o)
 .debug_frame   0x000038b8       0x9c ../cool_bsp/\libucosii_bsp.a(osportco.o)
 .debug_frame   0x00003954      0x114 ../cool_bsp/\libucosii_bsp.a(targnios.o)
 .debug_frame   0x00003a68      0x208 ../cool_bsp/\libucosii_bsp.a(nptcp.o)
 .debug_frame   0x00003c70       0x68 ../cool_bsp/\libucosii_bsp.a(rawsock.o)
 .debug_frame   0x00003cd8      0x224 ../cool_bsp/\libucosii_bsp.a(sockcall.o)
 .debug_frame   0x00003efc      0x1d4 ../cool_bsp/\libucosii_bsp.a(socket.o)
 .debug_frame   0x000040d0      0x294 ../cool_bsp/\libucosii_bsp.a(socket2.o)
 .debug_frame   0x00004364      0x110 ../cool_bsp/\libucosii_bsp.a(soselect.o)
 .debug_frame   0x00004474       0xd8 ../cool_bsp/\libucosii_bsp.a(tcp_in.o)
 .debug_frame   0x0000454c       0x68 ../cool_bsp/\libucosii_bsp.a(tcp_out.o)
 .debug_frame   0x000045b4      0x10c ../cool_bsp/\libucosii_bsp.a(tcp_subr.o)
 .debug_frame   0x000046c0       0x64 ../cool_bsp/\libucosii_bsp.a(tcp_timr.o)
 .debug_frame   0x00004724       0x80 ../cool_bsp/\libucosii_bsp.a(tcp_usr.o)
 .debug_frame   0x000047a4       0x2c ../cool_bsp/\libucosii_bsp.a(tcpport.o)
 .debug_frame   0x000047d0       0xbc ../cool_bsp/\libucosii_bsp.a(udpsock.o)
 .debug_frame   0x0000488c       0x2c ../cool_bsp/\libucosii_bsp.a(alt_alarm_start.o)
 .debug_frame   0x000048b8       0x2c ../cool_bsp/\libucosii_bsp.a(alt_busy_sleep.o)
 .debug_frame   0x000048e4       0x48 ../cool_bsp/\libucosii_bsp.a(alt_close.o)
 .debug_frame   0x0000492c       0x2c ../cool_bsp/\libucosii_bsp.a(alt_dcache_flush.o)
 .debug_frame   0x00004958       0x2c ../cool_bsp/\libucosii_bsp.a(alt_dev.o)
 .debug_frame   0x00004984       0x48 ../cool_bsp/\libucosii_bsp.a(alt_dev_llist_insert.o)
 .debug_frame   0x000049cc       0x2c ../cool_bsp/\libucosii_bsp.a(alt_do_ctors.o)
 .debug_frame   0x000049f8       0x2c ../cool_bsp/\libucosii_bsp.a(alt_do_dtors.o)
 .debug_frame   0x00004a24       0x2c ../cool_bsp/\libucosii_bsp.a(alt_find_dev.o)
 .debug_frame   0x00004a50       0x80 ../cool_bsp/\libucosii_bsp.a(alt_iic.o)
 .debug_frame   0x00004ad0       0x2c ../cool_bsp/\libucosii_bsp.a(alt_iic_isr_register.o)
 .debug_frame   0x00004afc       0x4c ../cool_bsp/\libucosii_bsp.a(alt_io_redirect.o)
 .debug_frame   0x00004b48       0x2c ../cool_bsp/\libucosii_bsp.a(alt_irq_handler.o)
 .debug_frame   0x00004b74       0x68 ../cool_bsp/\libucosii_bsp.a(alt_open.o)
 .debug_frame   0x00004bdc       0x48 ../cool_bsp/\libucosii_bsp.a(alt_read.o)
 .debug_frame   0x00004c24       0x30 ../cool_bsp/\libucosii_bsp.a(alt_release_fd.o)
 .debug_frame   0x00004c54       0x2c ../cool_bsp/\libucosii_bsp.a(alt_remap_cached.o)
 .debug_frame   0x00004c80       0x2c ../cool_bsp/\libucosii_bsp.a(alt_remap_uncached.o)
 .debug_frame   0x00004cac       0x48 ../cool_bsp/\libucosii_bsp.a(alt_tick.o)
 .debug_frame   0x00004cf4       0x48 ../cool_bsp/\libucosii_bsp.a(alt_write.o)
 .debug_frame   0x00004d3c       0x2c ../cool_bsp/\libucosii_bsp.a(altera_nios2_qsys_irq.o)
 .debug_frame   0x00004d68      0x128 ../cool_bsp/\libucosii_bsp.a(os_cpu_c.o)
 .debug_frame   0x00004e90       0x80 ../cool_bsp/\libucosii_bsp.a(altera_avalon_cfi_flash_amd.o)
 .debug_frame   0x00004f10       0x80 ../cool_bsp/\libucosii_bsp.a(altera_avalon_cfi_flash_intel.o)
 .debug_frame   0x00004f90       0x2c ../cool_bsp/\libucosii_bsp.a(altera_avalon_spi.o)
 .debug_frame   0x00004fbc       0xe0 ../cool_bsp/\libucosii_bsp.a(allports.o)
 .debug_frame   0x0000509c       0x98 ../cool_bsp/\libucosii_bsp.a(timeouts.o)
 .debug_frame   0x00005134       0x48 ../cool_bsp/\libucosii_bsp.a(tk_misc.o)
 .debug_frame   0x0000517c       0x2c ../cool_bsp/\libucosii_bsp.a(alt_iniche_fcntl.o)
 .debug_frame   0x000051a8      0x160 ../cool_bsp/\libucosii_bsp.a(et_arp.o)
 .debug_frame   0x00005308       0x80 ../cool_bsp/\libucosii_bsp.a(iface.o)
 .debug_frame   0x00005388      0x168 ../cool_bsp/\libucosii_bsp.a(ip.o)
 .debug_frame   0x000054f0      0x1d4 ../cool_bsp/\libucosii_bsp.a(ip_reasm.o)
 .debug_frame   0x000056c4       0x68 ../cool_bsp/\libucosii_bsp.a(ipdemux.o)
 .debug_frame   0x0000572c       0x64 ../cool_bsp/\libucosii_bsp.a(ipmc.o)
 .debug_frame   0x00005790       0x64 ../cool_bsp/\libucosii_bsp.a(ipport.o)
 .debug_frame   0x000057f4       0xb8 ../cool_bsp/\libucosii_bsp.a(ipraw.o)
 .debug_frame   0x000058ac       0x64 ../cool_bsp/\libucosii_bsp.a(iproute.o)
 .debug_frame   0x00005910       0xd4 ../cool_bsp/\libucosii_bsp.a(udp.o)
 .debug_frame   0x000059e4       0x2c ../cool_bsp/\libucosii_bsp.a(igmp.o)
 .debug_frame   0x00005a10       0x9c ../cool_bsp/\libucosii_bsp.a(igmp2.o)
 .debug_frame   0x00005aac       0x84 ../cool_bsp/\libucosii_bsp.a(ipopt.o)
 .debug_frame   0x00005b30       0x4c ../cool_bsp/\libucosii_bsp.a(u_mctest.o)
 .debug_frame   0x00005b7c       0x4c ../cool_bsp/\libucosii_bsp.a(dhcsetup.o)
 .debug_frame   0x00005bc8      0x110 ../cool_bsp/\libucosii_bsp.a(memdev.o)
 .debug_frame   0x00005cd8       0x2c ../cool_bsp/\libucosii_bsp.a(tcpcksum.o)
 .debug_frame   0x00005d04       0xf0 ../cool_bsp/\libucosii_bsp.a(in_pcb.o)
 .debug_frame   0x00005df4      0x320 ../cool_bsp/\libucosii_bsp.a(vfsfiles.o)
 .debug_frame   0x00006114       0x2c ../cool_bsp/\libucosii_bsp.a(vfsport.o)
 .debug_frame   0x00006140       0x48 ../cool_bsp/\libucosii_bsp.a(alt_fcntl.o)
 .debug_frame   0x00006188       0x2c ../cool_bsp/\libucosii_bsp.a(alt_find_file.o)
 .debug_frame   0x000061b4       0x30 ../cool_bsp/\libucosii_bsp.a(alt_get_fd.o)
 .debug_frame   0x000061e4       0x84 ../cool_bsp/\libucosii_bsp.a(icmp.o)
 .debug_frame   0x00006268       0x20 c:/altera/13.0/nios2eds/bin/gnu/h-i686-mingw32/bin/../lib/gcc/nios2-elf/4.1.2/../../../../nios2-elf/lib/mno-hw-mul\libc.a(lib_a-atexit.o)
 .debug_frame   0x00006288       0x30 c:/altera/13.0/nios2eds/bin/gnu/h-i686-mingw32/bin/../lib/gcc/nios2-elf/4.1.2/../../../../nios2-elf/lib/mno-hw-mul\libc.a(lib_a-atoi.o)
 .debug_frame   0x000062b8       0x20 c:/altera/13.0/nios2eds/bin/gnu/h-i686-mingw32/bin/../lib/gcc/nios2-elf/4.1.2/../../../../nios2-elf/lib/mno-hw-mul\libc.a(lib_a-calloc.o)
 .debug_frame   0x000062d8       0x30 c:/altera/13.0/nios2eds/bin/gnu/h-i686-mingw32/bin/../lib/gcc/nios2-elf/4.1.2/../../../../nios2-elf/lib/mno-hw-mul\libc.a(lib_a-malloc.o)
 .debug_frame   0x00006308       0x20 c:/altera/13.0/nios2eds/bin/gnu/h-i686-mingw32/bin/../lib/gcc/nios2-elf/4.1.2/../../../../nios2-elf/lib/mno-hw-mul\libc.a(lib_a-memcmp.o)
 .debug_frame   0x00006328       0x40 c:/altera/13.0/nios2eds/bin/gnu/h-i686-mingw32/bin/../lib/gcc/nios2-elf/4.1.2/../../../../nios2-elf/lib/mno-hw-mul\libc.a(lib_a-sprintf.o)
 .debug_frame   0x00006368       0x20 c:/altera/13.0/nios2eds/bin/gnu/h-i686-mingw32/bin/../lib/gcc/nios2-elf/4.1.2/../../../../nios2-elf/lib/mno-hw-mul\libc.a(lib_a-strcpy.o)
 .debug_frame   0x00006388       0x20 c:/altera/13.0/nios2eds/bin/gnu/h-i686-mingw32/bin/../lib/gcc/nios2-elf/4.1.2/../../../../nios2-elf/lib/mno-hw-mul\libc.a(lib_a-strncmp.o)
 .debug_frame   0x000063a8       0x20 c:/altera/13.0/nios2eds/bin/gnu/h-i686-mingw32/bin/../lib/gcc/nios2-elf/4.1.2/../../../../nios2-elf/lib/mno-hw-mul\libc.a(lib_a-strncpy.o)
 .debug_frame   0x000063c8       0x4c c:/altera/13.0/nios2eds/bin/gnu/h-i686-mingw32/bin/../lib/gcc/nios2-elf/4.1.2/../../../../nios2-elf/lib/mno-hw-mul\libc.a(lib_a-strtol.o)
 .debug_frame   0x00006414       0x30 c:/altera/13.0/nios2eds/bin/gnu/h-i686-mingw32/bin/../lib/gcc/nios2-elf/4.1.2/../../../../nios2-elf/lib/mno-hw-mul\libc.a(lib_a-vprintf.o)
 .debug_frame   0x00006444       0x38 c:/altera/13.0/nios2eds/bin/gnu/h-i686-mingw32/bin/../lib/gcc/nios2-elf/4.1.2/../../../../nios2-elf/lib/mno-hw-mul\libc.a(lib_a-vsprintf.o)
 .debug_frame   0x0000647c       0x34 c:/altera/13.0/nios2eds/bin/gnu/h-i686-mingw32/bin/../lib/gcc/nios2-elf/4.1.2/../../../../nios2-elf/lib/mno-hw-mul\libc.a(lib_a-__atexit.o)

.debug_str      0x00000000     0x3685
 *(.debug_str)
 .debug_str     0x00000000       0x3f obj/default/SSS_DE2_115.o
 .debug_str     0x0000003f       0x4e obj/default/alt_error_handler.o
 .debug_str     0x0000008d       0x33 obj/default/dm9000a.o
 .debug_str     0x000000c0       0x1d obj/default/iniche_init.o
 .debug_str     0x000000dd       0x2b obj/default/led.o
 .debug_str     0x00000108       0x52 obj/default/network_utilities.o
 .debug_str     0x0000015a       0x2c obj/default/simple_socket_server.o
 .debug_str     0x00000186      0x122 c:/altera/13.0/nios2eds/bin/gnu/h-i686-mingw32/bin/../lib/gcc/nios2-elf/4.1.2/mno-hw-mul\libgcc.a(_fixunsdfsi.o)
                                0x168 (size before relaxing)
 .debug_str     0x000002a8      0x138 c:/altera/13.0/nios2eds/bin/gnu/h-i686-mingw32/bin/../lib/gcc/nios2-elf/4.1.2/mno-hw-mul\libgcc.a(_addsub_df.o)
                                0x26c (size before relaxing)
 .debug_str     0x000003e0       0x45 c:/altera/13.0/nios2eds/bin/gnu/h-i686-mingw32/bin/../lib/gcc/nios2-elf/4.1.2/mno-hw-mul\libgcc.a(_mul_df.o)
                                0x23e (size before relaxing)
 .debug_str     0x00000425        0x8 c:/altera/13.0/nios2eds/bin/gnu/h-i686-mingw32/bin/../lib/gcc/nios2-elf/4.1.2/mno-hw-mul\libgcc.a(_ge_df.o)
                                0x1fb (size before relaxing)
 .debug_str     0x0000042d        0xa c:/altera/13.0/nios2eds/bin/gnu/h-i686-mingw32/bin/../lib/gcc/nios2-elf/4.1.2/mno-hw-mul\libgcc.a(_df_to_si.o)
                                0x204 (size before relaxing)
 .debug_str     0x00000000      0x1a0 c:/altera/13.0/nios2eds/bin/gnu/h-i686-mingw32/bin/../lib/gcc/nios2-elf/4.1.2/mno-hw-mul\libgcc.a(_thenan_df.o)
 .debug_str     0x00000437       0x1b c:/altera/13.0/nios2eds/bin/gnu/h-i686-mingw32/bin/../lib/gcc/nios2-elf/4.1.2/mno-hw-mul\libgcc.a(_usi_to_df.o)
                                0x1d7 (size before relaxing)
 .debug_str     0x00000452       0x37 c:/altera/13.0/nios2eds/bin/gnu/h-i686-mingw32/bin/../lib/gcc/nios2-elf/4.1.2/mno-hw-mul\libgcc.a(lib2-mul.o)
                                0x172 (size before relaxing)
 .debug_str     0x00000489       0x42 c:/altera/13.0/nios2eds/bin/gnu/h-i686-mingw32/bin/../lib/gcc/nios2-elf/4.1.2/mno-hw-mul\libgcc.a(_muldi3.o)
                                0x1a9 (size before relaxing)
 .debug_str     0x000004cb       0x20 c:/altera/13.0/nios2eds/bin/gnu/h-i686-mingw32/bin/../lib/gcc/nios2-elf/4.1.2/mno-hw-mul\libgcc.a(_clzsi2.o)
                                0x17b (size before relaxing)
 .debug_str     0x000004eb       0x10 c:/altera/13.0/nios2eds/bin/gnu/h-i686-mingw32/bin/../lib/gcc/nios2-elf/4.1.2/mno-hw-mul\libgcc.a(_pack_df.o)
                                0x203 (size before relaxing)
 .debug_str     0x000004fb        0xb c:/altera/13.0/nios2eds/bin/gnu/h-i686-mingw32/bin/../lib/gcc/nios2-elf/4.1.2/mno-hw-mul\libgcc.a(_unpack_df.o)
                                0x1e5 (size before relaxing)
 .debug_str     0x00000506       0x10 c:/altera/13.0/nios2eds/bin/gnu/h-i686-mingw32/bin/../lib/gcc/nios2-elf/4.1.2/mno-hw-mul\libgcc.a(_fpcmp_parts_df.o)
                                0x1c3 (size before relaxing)
 .debug_str     0x00000000      0x15e c:/altera/13.0/nios2eds/bin/gnu/h-i686-mingw32/bin/../lib/gcc/nios2-elf/4.1.2/mno-hw-mul\libgcc.a(_clz.o)
 .debug_str     0x00000516       0xed c:/altera/13.0/nios2eds/bin/gnu/h-i686-mingw32/bin/../lib/gcc/nios2-elf/4.1.2/../../../../nios2-elf/lib/mno-hw-mul\libc.a(lib_a-ctype_.o)
                                0x110 (size before relaxing)
 .debug_str     0x00000603      0x449 c:/altera/13.0/nios2eds/bin/gnu/h-i686-mingw32/bin/../lib/gcc/nios2-elf/4.1.2/../../../../nios2-elf/lib/mno-hw-mul\libc.a(lib_a-exit.o)
                                0x517 (size before relaxing)
 .debug_str     0x00000a4c       0xf3 c:/altera/13.0/nios2eds/bin/gnu/h-i686-mingw32/bin/../lib/gcc/nios2-elf/4.1.2/../../../../nios2-elf/lib/mno-hw-mul\libc.a(lib_a-fprintf.o)
                                0x52a (size before relaxing)
 .debug_str     0x00000b3f       0x8a c:/altera/13.0/nios2eds/bin/gnu/h-i686-mingw32/bin/../lib/gcc/nios2-elf/4.1.2/../../../../nios2-elf/lib/mno-hw-mul\libc.a(lib_a-fwrite.o)
                                0x56a (size before relaxing)
 .debug_str     0x00000bc9       0x48 c:/altera/13.0/nios2eds/bin/gnu/h-i686-mingw32/bin/../lib/gcc/nios2-elf/4.1.2/../../../../nios2-elf/lib/mno-hw-mul\libc.a(lib_a-getc.o)
                                0x51d (size before relaxing)
 .debug_str     0x00000c11       0xdc c:/altera/13.0/nios2eds/bin/gnu/h-i686-mingw32/bin/../lib/gcc/nios2-elf/4.1.2/../../../../nios2-elf/lib/mno-hw-mul\libc.a(lib_a-impure.o)
                                0x525 (size before relaxing)
 .debug_str     0x00000ced      0x100 c:/altera/13.0/nios2eds/bin/gnu/h-i686-mingw32/bin/../lib/gcc/nios2-elf/4.1.2/../../../../nios2-elf/lib/mno-hw-mul\libc.a(lib_a-memcpy.o)
                                0x133 (size before relaxing)
 .debug_str     0x00000ded       0x60 c:/altera/13.0/nios2eds/bin/gnu/h-i686-mingw32/bin/../lib/gcc/nios2-elf/4.1.2/../../../../nios2-elf/lib/mno-hw-mul\libc.a(lib_a-memmove.o)
                                0x1a8 (size before relaxing)
 .debug_str     0x00000e4d       0x59 c:/altera/13.0/nios2eds/bin/gnu/h-i686-mingw32/bin/../lib/gcc/nios2-elf/4.1.2/../../../../nios2-elf/lib/mno-hw-mul\libc.a(lib_a-memset.o)
                                0x189 (size before relaxing)
 .debug_str     0x00000ea6       0x4e c:/altera/13.0/nios2eds/bin/gnu/h-i686-mingw32/bin/../lib/gcc/nios2-elf/4.1.2/../../../../nios2-elf/lib/mno-hw-mul\libc.a(lib_a-perror.o)
                                0x51d (size before relaxing)
 .debug_str     0x00000ef4       0x47 c:/altera/13.0/nios2eds/bin/gnu/h-i686-mingw32/bin/../lib/gcc/nios2-elf/4.1.2/../../../../nios2-elf/lib/mno-hw-mul\libc.a(lib_a-printf.o)
                                0x52e (size before relaxing)
 .debug_str     0x00000f3b       0x43 c:/altera/13.0/nios2eds/bin/gnu/h-i686-mingw32/bin/../lib/gcc/nios2-elf/4.1.2/../../../../nios2-elf/lib/mno-hw-mul\libc.a(lib_a-putc.o)
                                0x51d (size before relaxing)
 .debug_str     0x00000f7e       0x51 c:/altera/13.0/nios2eds/bin/gnu/h-i686-mingw32/bin/../lib/gcc/nios2-elf/4.1.2/../../../../nios2-elf/lib/mno-hw-mul\libc.a(lib_a-putchar.o)
                                0x51a (size before relaxing)
 .debug_str     0x00000fcf       0x43 c:/altera/13.0/nios2eds/bin/gnu/h-i686-mingw32/bin/../lib/gcc/nios2-elf/4.1.2/../../../../nios2-elf/lib/mno-hw-mul\libc.a(lib_a-puts.o)
                                0x554 (size before relaxing)
 .debug_str     0x00001012       0x4d c:/altera/13.0/nios2eds/bin/gnu/h-i686-mingw32/bin/../lib/gcc/nios2-elf/4.1.2/../../../../nios2-elf/lib/mno-hw-mul\libc.a(lib_a-rget.o)
                                0x51b (size before relaxing)
 .debug_str     0x0000105f       0x4a c:/altera/13.0/nios2eds/bin/gnu/h-i686-mingw32/bin/../lib/gcc/nios2-elf/4.1.2/../../../../nios2-elf/lib/mno-hw-mul\libc.a(lib_a-strchr.o)
                                0x180 (size before relaxing)
 .debug_str     0x000010a9       0x47 c:/altera/13.0/nios2eds/bin/gnu/h-i686-mingw32/bin/../lib/gcc/nios2-elf/4.1.2/../../../../nios2-elf/lib/mno-hw-mul\libc.a(lib_a-strerror.o)
                                0x17f (size before relaxing)
 .debug_str     0x000010f0       0x45 c:/altera/13.0/nios2eds/bin/gnu/h-i686-mingw32/bin/../lib/gcc/nios2-elf/4.1.2/../../../../nios2-elf/lib/mno-hw-mul\libc.a(lib_a-strlen.o)
                                0x188 (size before relaxing)
 .debug_str     0x00001135       0x4f c:/altera/13.0/nios2eds/bin/gnu/h-i686-mingw32/bin/../lib/gcc/nios2-elf/4.1.2/../../../../nios2-elf/lib/mno-hw-mul\libc.a(lib_a-u_strerr.o)
                                 0xfb (size before relaxing)
 .debug_str     0x00001184      0x17b c:/altera/13.0/nios2eds/bin/gnu/h-i686-mingw32/bin/../lib/gcc/nios2-elf/4.1.2/../../../../nios2-elf/lib/mno-hw-mul\libc.a(lib_a-vfprintf.o)
                                0x703 (size before relaxing)
 .debug_str     0x000012ff       0x4d c:/altera/13.0/nios2eds/bin/gnu/h-i686-mingw32/bin/../lib/gcc/nios2-elf/4.1.2/../../../../nios2-elf/lib/mno-hw-mul\libc.a(lib_a-wbuf.o)
                                0x51b (size before relaxing)
 .debug_str     0x0000134c       0x49 c:/altera/13.0/nios2eds/bin/gnu/h-i686-mingw32/bin/../lib/gcc/nios2-elf/4.1.2/../../../../nios2-elf/lib/mno-hw-mul\libc.a(lib_a-wsetup.o)
                                0x517 (size before relaxing)
 .debug_str     0x00001395       0x7e c:/altera/13.0/nios2eds/bin/gnu/h-i686-mingw32/bin/../lib/gcc/nios2-elf/4.1.2/../../../../nios2-elf/lib/mno-hw-mul\libc.a(lib_a-__call_atexit.o)
                                0x559 (size before relaxing)
 .debug_str     0x00001413      0x105 c:/altera/13.0/nios2eds/bin/gnu/h-i686-mingw32/bin/../lib/gcc/nios2-elf/4.1.2/../../../../nios2-elf/lib/mno-hw-mul\libc.a(lib_a-dtoa.o)
                                0x60c (size before relaxing)
 .debug_str     0x00001518       0x55 c:/altera/13.0/nios2eds/bin/gnu/h-i686-mingw32/bin/../lib/gcc/nios2-elf/4.1.2/../../../../nios2-elf/lib/mno-hw-mul\libc.a(lib_a-fflush.o)
                                0x53d (size before relaxing)
 .debug_str     0x0000156d      0x105 c:/altera/13.0/nios2eds/bin/gnu/h-i686-mingw32/bin/../lib/gcc/nios2-elf/4.1.2/../../../../nios2-elf/lib/mno-hw-mul\libc.a(lib_a-findfp.o)
                                0x5ff (size before relaxing)
 .debug_str     0x00001672       0x4b c:/altera/13.0/nios2eds/bin/gnu/h-i686-mingw32/bin/../lib/gcc/nios2-elf/4.1.2/../../../../nios2-elf/lib/mno-hw-mul\libc.a(lib_a-fputc.o)
                                0x525 (size before relaxing)
 .debug_str     0x000016bd       0x4b c:/altera/13.0/nios2eds/bin/gnu/h-i686-mingw32/bin/../lib/gcc/nios2-elf/4.1.2/../../../../nios2-elf/lib/mno-hw-mul\libc.a(lib_a-fputs.o)
                                0x563 (size before relaxing)
 .debug_str     0x00001708      0x15e c:/altera/13.0/nios2eds/bin/gnu/h-i686-mingw32/bin/../lib/gcc/nios2-elf/4.1.2/../../../../nios2-elf/lib/mno-hw-mul\libc.a(lib_a-freer.o)
                                0x64e (size before relaxing)
 .debug_str     0x00001866       0x69 c:/altera/13.0/nios2eds/bin/gnu/h-i686-mingw32/bin/../lib/gcc/nios2-elf/4.1.2/../../../../nios2-elf/lib/mno-hw-mul\libc.a(lib_a-fvwrite.o)
                                0x56e (size before relaxing)
 .debug_str     0x000018cf       0x61 c:/altera/13.0/nios2eds/bin/gnu/h-i686-mingw32/bin/../lib/gcc/nios2-elf/4.1.2/../../../../nios2-elf/lib/mno-hw-mul\libc.a(lib_a-fwalk.o)
                                0x540 (size before relaxing)
 .debug_str     0x00001930      0x230 c:/altera/13.0/nios2eds/bin/gnu/h-i686-mingw32/bin/../lib/gcc/nios2-elf/4.1.2/../../../../nios2-elf/lib/mno-hw-mul\libc.a(lib_a-locale.o)
                                0x6b4 (size before relaxing)
 .debug_str     0x00001b60      0x126 c:/altera/13.0/nios2eds/bin/gnu/h-i686-mingw32/bin/../lib/gcc/nios2-elf/4.1.2/../../../../nios2-elf/lib/mno-hw-mul\libc.a(lib_a-makebuf.o)
                                0x611 (size before relaxing)
 .debug_str     0x00001c86       0xe9 c:/altera/13.0/nios2eds/bin/gnu/h-i686-mingw32/bin/../lib/gcc/nios2-elf/4.1.2/../../../../nios2-elf/lib/mno-hw-mul\libc.a(lib_a-mallocr.o)
                                0x6fc (size before relaxing)
 .debug_str     0x00001d6f       0x4a c:/altera/13.0/nios2eds/bin/gnu/h-i686-mingw32/bin/../lib/gcc/nios2-elf/4.1.2/../../../../nios2-elf/lib/mno-hw-mul\libc.a(lib_a-memchr.o)
                                0x196 (size before relaxing)
 .debug_str     0x00001db9       0xfb c:/altera/13.0/nios2eds/bin/gnu/h-i686-mingw32/bin/../lib/gcc/nios2-elf/4.1.2/../../../../nios2-elf/lib/mno-hw-mul\libc.a(lib_a-mprec.o)
                                0x619 (size before relaxing)
 .debug_str     0x00001eb4       0x59 c:/altera/13.0/nios2eds/bin/gnu/h-i686-mingw32/bin/../lib/gcc/nios2-elf/4.1.2/../../../../nios2-elf/lib/mno-hw-mul\libc.a(lib_a-reallocr.o)
                                0x5ce (size before relaxing)
 .debug_str     0x00001f0d       0x50 c:/altera/13.0/nios2eds/bin/gnu/h-i686-mingw32/bin/../lib/gcc/nios2-elf/4.1.2/../../../../nios2-elf/lib/mno-hw-mul\libc.a(lib_a-refill.o)
                                0x525 (size before relaxing)
 .debug_str     0x00001f5d       0xe7 c:/altera/13.0/nios2eds/bin/gnu/h-i686-mingw32/bin/../lib/gcc/nios2-elf/4.1.2/../../../../nios2-elf/lib/mno-hw-mul\libc.a(lib_a-s_isinfd.o)
                                0x195 (size before relaxing)
 .debug_str     0x00002044       0x49 c:/altera/13.0/nios2eds/bin/gnu/h-i686-mingw32/bin/../lib/gcc/nios2-elf/4.1.2/../../../../nios2-elf/lib/mno-hw-mul\libc.a(lib_a-s_isnand.o)
                                0x195 (size before relaxing)
 .debug_str     0x0000208d       0x53 c:/altera/13.0/nios2eds/bin/gnu/h-i686-mingw32/bin/../lib/gcc/nios2-elf/4.1.2/../../../../nios2-elf/lib/mno-hw-mul\libc.a(lib_a-sbrkr.o)
                                0x516 (size before relaxing)
 .debug_str     0x000020e0       0x65 c:/altera/13.0/nios2eds/bin/gnu/h-i686-mingw32/bin/../lib/gcc/nios2-elf/4.1.2/../../../../nios2-elf/lib/mno-hw-mul\libc.a(lib_a-stdio.o)
                                0x53c (size before relaxing)
 .debug_str     0x00002145       0x45 c:/altera/13.0/nios2eds/bin/gnu/h-i686-mingw32/bin/../lib/gcc/nios2-elf/4.1.2/../../../../nios2-elf/lib/mno-hw-mul\libc.a(lib_a-strcmp.o)
                                0x16e (size before relaxing)
 .debug_str     0x0000218a       0x4f c:/altera/13.0/nios2eds/bin/gnu/h-i686-mingw32/bin/../lib/gcc/nios2-elf/4.1.2/../../../../nios2-elf/lib/mno-hw-mul\libc.a(lib_a-writer.o)
                                0x519 (size before relaxing)
 .debug_str     0x000021d9       0x19 c:/altera/13.0/nios2eds/bin/gnu/h-i686-mingw32/bin/../lib/gcc/nios2-elf/4.1.2/../../../../nios2-elf/lib/mno-hw-mul\libc.a(lib_a-callocr.o)
                                0x54d (size before relaxing)
 .debug_str     0x000021f2       0x46 c:/altera/13.0/nios2eds/bin/gnu/h-i686-mingw32/bin/../lib/gcc/nios2-elf/4.1.2/../../../../nios2-elf/lib/mno-hw-mul\libc.a(lib_a-closer.o)
                                0x509 (size before relaxing)
 .debug_str     0x00002238       0x4e c:/altera/13.0/nios2eds/bin/gnu/h-i686-mingw32/bin/../lib/gcc/nios2-elf/4.1.2/../../../../nios2-elf/lib/mno-hw-mul\libc.a(lib_a-fclose.o)
                                0x521 (size before relaxing)
 .debug_str     0x00002286       0x4c c:/altera/13.0/nios2eds/bin/gnu/h-i686-mingw32/bin/../lib/gcc/nios2-elf/4.1.2/../../../../nios2-elf/lib/mno-hw-mul\libc.a(lib_a-fstatr.o)
                                0x5fc (size before relaxing)
 .debug_str     0x000022d2       0x40 c:/altera/13.0/nios2eds/bin/gnu/h-i686-mingw32/bin/../lib/gcc/nios2-elf/4.1.2/../../../../nios2-elf/lib/mno-hw-mul\libc.a(lib_a-int_errno.o)
                                0x16e (size before relaxing)
 .debug_str     0x00002312       0x48 c:/altera/13.0/nios2eds/bin/gnu/h-i686-mingw32/bin/../lib/gcc/nios2-elf/4.1.2/../../../../nios2-elf/lib/mno-hw-mul\libc.a(lib_a-isattyr.o)
                                0x50b (size before relaxing)
 .debug_str     0x0000235a       0x46 c:/altera/13.0/nios2eds/bin/gnu/h-i686-mingw32/bin/../lib/gcc/nios2-elf/4.1.2/../../../../nios2-elf/lib/mno-hw-mul\libc.a(lib_a-lseekr.o)
                                0x517 (size before relaxing)
 .debug_str     0x000023a0       0x44 c:/altera/13.0/nios2eds/bin/gnu/h-i686-mingw32/bin/../lib/gcc/nios2-elf/4.1.2/../../../../nios2-elf/lib/mno-hw-mul\libc.a(lib_a-readr.o)
                                0x517 (size before relaxing)
 .debug_str     0x000023e4       0x35 c:/altera/13.0/nios2eds/bin/gnu/h-i686-mingw32/bin/../lib/gcc/nios2-elf/4.1.2/mno-hw-mul\libgcc.a(_udivdi3.o)
                                0x1f4 (size before relaxing)
 .debug_str     0x00002419        0xa c:/altera/13.0/nios2eds/bin/gnu/h-i686-mingw32/bin/../lib/gcc/nios2-elf/4.1.2/mno-hw-mul\libgcc.a(_umoddi3.o)
                                0x1f4 (size before relaxing)
 .debug_str     0x00002423       0x35 c:/altera/13.0/nios2eds/bin/gnu/h-i686-mingw32/bin/../lib/gcc/nios2-elf/4.1.2/mno-hw-mul\libgcc.a(_div_df.o)
                                0x22e (size before relaxing)
 .debug_str     0x00002458        0x8 c:/altera/13.0/nios2eds/bin/gnu/h-i686-mingw32/bin/../lib/gcc/nios2-elf/4.1.2/mno-hw-mul\libgcc.a(_eq_df.o)
                                0x1fb (size before relaxing)
 .debug_str     0x00002460        0x8 c:/altera/13.0/nios2eds/bin/gnu/h-i686-mingw32/bin/../lib/gcc/nios2-elf/4.1.2/mno-hw-mul\libgcc.a(_ne_df.o)
                                0x1fb (size before relaxing)
 .debug_str     0x00002468        0x8 c:/altera/13.0/nios2eds/bin/gnu/h-i686-mingw32/bin/../lib/gcc/nios2-elf/4.1.2/mno-hw-mul\libgcc.a(_gt_df.o)
                                0x1fb (size before relaxing)
 .debug_str     0x00002470        0x8 c:/altera/13.0/nios2eds/bin/gnu/h-i686-mingw32/bin/../lib/gcc/nios2-elf/4.1.2/mno-hw-mul\libgcc.a(_lt_df.o)
                                0x1fb (size before relaxing)
 .debug_str     0x00002478       0x11 c:/altera/13.0/nios2eds/bin/gnu/h-i686-mingw32/bin/../lib/gcc/nios2-elf/4.1.2/mno-hw-mul\libgcc.a(_si_to_df.o)
                                0x1db (size before relaxing)
 .debug_str     0x00002489       0x76 c:/altera/13.0/nios2eds/bin/gnu/h-i686-mingw32/bin/../lib/gcc/nios2-elf/4.1.2/mno-hw-mul\libgcc.a(lib2-divmod.o)
                                0x1b1 (size before relaxing)
 .debug_str     0x000024ff       0x1c ../cool_bsp/\libucosii_bsp.a(alt_exit.o)
 .debug_str     0x0000251b       0x2d ../cool_bsp/\libucosii_bsp.a(alt_flash_dev.o)
 .debug_str     0x00002548       0x12 ../cool_bsp/\libucosii_bsp.a(alt_fstat.o)
 .debug_str     0x0000255a       0x21 ../cool_bsp/\libucosii_bsp.a(alt_irq_register.o)
 .debug_str     0x0000257b       0x12 ../cool_bsp/\libucosii_bsp.a(alt_isatty.o)
 .debug_str     0x0000258d       0x12 ../cool_bsp/\libucosii_bsp.a(alt_lseek.o)
 .debug_str     0x0000259f       0x12 ../cool_bsp/\libucosii_bsp.a(alt_main.o)
 .debug_str     0x000025b1       0x1a ../cool_bsp/\libucosii_bsp.a(alt_sbrk.o)
 .debug_str     0x000025cb       0x12 ../cool_bsp/\libucosii_bsp.a(alt_usleep.o)
 .debug_str     0x000025dd       0x36 ../cool_bsp/\libucosii_bsp.a(alt_env_lock.o)
 .debug_str     0x00002613       0x36 ../cool_bsp/\libucosii_bsp.a(alt_malloc_lock.o)
 .debug_str     0x00002649       0x46 ../cool_bsp/\libucosii_bsp.a(os_core.o)
 .debug_str     0x0000268f       0x2b ../cool_bsp/\libucosii_bsp.a(os_dbg.o)
 .debug_str     0x000026ba       0x4e ../cool_bsp/\libucosii_bsp.a(os_flag.o)
 .debug_str     0x00002708       0x2c ../cool_bsp/\libucosii_bsp.a(os_mem.o)
 .debug_str     0x00002734       0x36 ../cool_bsp/\libucosii_bsp.a(os_q.o)
 .debug_str     0x0000276a       0x36 ../cool_bsp/\libucosii_bsp.a(os_sem.o)
 .debug_str     0x000027a0       0x23 ../cool_bsp/\libucosii_bsp.a(os_task.o)
 .debug_str     0x000027c3       0x1f ../cool_bsp/\libucosii_bsp.a(os_time.o)
 .debug_str     0x000027e2       0x52 ../cool_bsp/\libucosii_bsp.a(alt_sys_init.o)
 .debug_str     0x00002834       0x82 ../cool_bsp/\libucosii_bsp.a(altera_avalon_cfi_flash.o)
 .debug_str     0x000028b6       0x6d ../cool_bsp/\libucosii_bsp.a(altera_avalon_cfi_flash_table.o)
 .debug_str     0x00002923       0x90 ../cool_bsp/\libucosii_bsp.a(altera_avalon_epcs_flash_controller.o)
 .debug_str     0x000029b3       0x12 ../cool_bsp/\libucosii_bsp.a(altera_avalon_jtag_uart_fd.o)
 .debug_str     0x000029c5       0x1a ../cool_bsp/\libucosii_bsp.a(altera_avalon_jtag_uart_init.o)
 .debug_str     0x000029df       0x12 ../cool_bsp/\libucosii_bsp.a(altera_avalon_jtag_uart_ioctl.o)
 .debug_str     0x000029f1       0x22 ../cool_bsp/\libucosii_bsp.a(altera_avalon_jtag_uart_read.o)
 .debug_str     0x00002a13       0x22 ../cool_bsp/\libucosii_bsp.a(altera_avalon_jtag_uart_write.o)
 .debug_str     0x00002a35       0x12 ../cool_bsp/\libucosii_bsp.a(altera_avalon_timer_sc.o)
 .debug_str     0x00002a47       0x2e ../cool_bsp/\libucosii_bsp.a(epcs_commands.o)
 .debug_str     0x00002a75       0x12 ../cool_bsp/\libucosii_bsp.a(alt_iniche_close.o)
 .debug_str     0x00002a87       0x12 ../cool_bsp/\libucosii_bsp.a(alt_iniche_dev.o)
 .debug_str     0x00002a99       0x12 ../cool_bsp/\libucosii_bsp.a(alt_iniche_read.o)
 .debug_str     0x00002aab       0x12 ../cool_bsp/\libucosii_bsp.a(alt_iniche_write.o)
 .debug_str     0x00002abd       0x12 ../cool_bsp/\libucosii_bsp.a(ipnet.o)
 .debug_str     0x00002acf       0x12 ../cool_bsp/\libucosii_bsp.a(ipstart.o)
 .debug_str     0x00002ae1       0x12 ../cool_bsp/\libucosii_bsp.a(igmp_cmn.o)
 .debug_str     0x00002af3       0x20 ../cool_bsp/\libucosii_bsp.a(bsdsock.o)
 .debug_str     0x00002b13       0x12 ../cool_bsp/\libucosii_bsp.a(cksum.o)
 .debug_str     0x00002b25       0x12 ../cool_bsp/\libucosii_bsp.a(in_utils.o)
 .debug_str     0x00002b37       0x12 ../cool_bsp/\libucosii_bsp.a(netmain.o)
 .debug_str     0x00002b49       0x12 ../cool_bsp/\libucosii_bsp.a(parseip.o)
 .debug_str     0x00002b5b       0x12 ../cool_bsp/\libucosii_bsp.a(tk_crnos.o)
 .debug_str     0x00002b6d       0x2e ../cool_bsp/\libucosii_bsp.a(dhcpclnt.o)
 .debug_str     0x00002b9b       0x12 ../cool_bsp/\libucosii_bsp.a(dhcputil.o)
 .debug_str     0x00002bad       0x12 ../cool_bsp/\libucosii_bsp.a(pktalloc.o)
 .debug_str     0x00002bbf       0x12 ../cool_bsp/\libucosii_bsp.a(q.o)
 .debug_str     0x00002bd1       0x12 ../cool_bsp/\libucosii_bsp.a(udp_open.o)
 .debug_str     0x00002be3       0x20 ../cool_bsp/\libucosii_bsp.a(brdutils.o)
 .debug_str     0x00002c03       0x22 ../cool_bsp/\libucosii_bsp.a(osportco.o)
 .debug_str     0x00002c25       0x12 ../cool_bsp/\libucosii_bsp.a(targnios.o)
 .debug_str     0x00002c37       0x1e ../cool_bsp/\libucosii_bsp.a(nptcp.o)
 .debug_str     0x00002c55       0x12 ../cool_bsp/\libucosii_bsp.a(rawsock.o)
 .debug_str     0x00002c67       0x34 ../cool_bsp/\libucosii_bsp.a(sockcall.o)
 .debug_str     0x00002c9b       0x18 ../cool_bsp/\libucosii_bsp.a(socket.o)
 .debug_str     0x00002cb3       0x12 ../cool_bsp/\libucosii_bsp.a(socket2.o)
 .debug_str     0x00002cc5       0x12 ../cool_bsp/\libucosii_bsp.a(soselect.o)
 .debug_str     0x00002cd7       0x12 ../cool_bsp/\libucosii_bsp.a(tcp_in.o)
 .debug_str     0x00002ce9       0x12 ../cool_bsp/\libucosii_bsp.a(tcp_out.o)
 .debug_str     0x00002cfb       0x12 ../cool_bsp/\libucosii_bsp.a(tcp_subr.o)
 .debug_str     0x00002d0d       0x12 ../cool_bsp/\libucosii_bsp.a(tcp_timr.o)
 .debug_str     0x00002d1f       0x12 ../cool_bsp/\libucosii_bsp.a(tcp_usr.o)
 .debug_str     0x00002d31       0x12 ../cool_bsp/\libucosii_bsp.a(tcpport.o)
 .debug_str     0x00002d43       0x1a ../cool_bsp/\libucosii_bsp.a(udpsock.o)
 .debug_str     0x00002d5d       0x23 ../cool_bsp/\libucosii_bsp.a(alt_alarm_start.o)
 .debug_str     0x00002d80       0x12 ../cool_bsp/\libucosii_bsp.a(alt_busy_sleep.o)
 .debug_str     0x00002d92       0x12 ../cool_bsp/\libucosii_bsp.a(alt_close.o)
 .debug_str     0x00002da4       0x12 ../cool_bsp/\libucosii_bsp.a(alt_dcache_flush.o)
 .debug_str     0x00002db6       0x12 ../cool_bsp/\libucosii_bsp.a(alt_dev.o)
 .debug_str     0x00002dc8       0x12 ../cool_bsp/\libucosii_bsp.a(alt_dev_llist_insert.o)
 .debug_str     0x00002dda       0x12 ../cool_bsp/\libucosii_bsp.a(alt_errno.o)
 .debug_str     0x00002dec       0x12 ../cool_bsp/\libucosii_bsp.a(alt_find_dev.o)
 .debug_str     0x00002dfe       0x18 ../cool_bsp/\libucosii_bsp.a(alt_iic.o)
 .debug_str     0x00002e16       0x1a ../cool_bsp/\libucosii_bsp.a(alt_iic_isr_register.o)
 .debug_str     0x00002e30       0x12 ../cool_bsp/\libucosii_bsp.a(alt_io_redirect.o)
 .debug_str     0x00002e42       0x12 ../cool_bsp/\libucosii_bsp.a(alt_irq_handler.o)
 .debug_str     0x00002e54       0x12 ../cool_bsp/\libucosii_bsp.a(alt_open.o)
 .debug_str     0x00002e66       0x12 ../cool_bsp/\libucosii_bsp.a(alt_read.o)
 .debug_str     0x00002e78       0x12 ../cool_bsp/\libucosii_bsp.a(alt_release_fd.o)
 .debug_str     0x00002e8a       0x12 ../cool_bsp/\libucosii_bsp.a(alt_remap_cached.o)
 .debug_str     0x00002e9c       0x12 ../cool_bsp/\libucosii_bsp.a(alt_remap_uncached.o)
 .debug_str     0x00002eae       0x1a ../cool_bsp/\libucosii_bsp.a(alt_tick.o)
 .debug_str     0x00002ec8       0x12 ../cool_bsp/\libucosii_bsp.a(alt_write.o)
 .debug_str     0x00002eda       0x12 ../cool_bsp/\libucosii_bsp.a(altera_nios2_qsys_irq.o)
 .debug_str     0x00002eec       0x20 ../cool_bsp/\libucosii_bsp.a(os_cpu_c.o)
 .debug_str     0x00002f0c       0x76 ../cool_bsp/\libucosii_bsp.a(altera_avalon_cfi_flash_amd.o)
 .debug_str     0x00002f82       0x7d ../cool_bsp/\libucosii_bsp.a(altera_avalon_cfi_flash_intel.o)
 .debug_str     0x00002fff       0x12 ../cool_bsp/\libucosii_bsp.a(allports.o)
 .debug_str     0x00003011       0x1b ../cool_bsp/\libucosii_bsp.a(timeouts.o)
 .debug_str     0x0000302c       0x12 ../cool_bsp/\libucosii_bsp.a(tk_misc.o)
 .debug_str     0x0000303e       0x12 ../cool_bsp/\libucosii_bsp.a(alt_iniche_fcntl.o)
 .debug_str     0x00003050       0x3d ../cool_bsp/\libucosii_bsp.a(et_arp.o)
 .debug_str     0x0000308d       0x12 ../cool_bsp/\libucosii_bsp.a(iface.o)
 .debug_str     0x0000309f       0x2c ../cool_bsp/\libucosii_bsp.a(ip.o)
 .debug_str     0x000030cb       0x4e ../cool_bsp/\libucosii_bsp.a(ip_reasm.o)
 .debug_str     0x00003119       0x12 ../cool_bsp/\libucosii_bsp.a(ipdemux.o)
 .debug_str     0x0000312b       0x12 ../cool_bsp/\libucosii_bsp.a(ipmc.o)
 .debug_str     0x0000313d       0x12 ../cool_bsp/\libucosii_bsp.a(ipport.o)
 .debug_str     0x0000314f       0x12 ../cool_bsp/\libucosii_bsp.a(ipraw.o)
 .debug_str     0x00003161       0x12 ../cool_bsp/\libucosii_bsp.a(iproute.o)
 .debug_str     0x00003173       0x12 ../cool_bsp/\libucosii_bsp.a(udp.o)
 .debug_str     0x00003185       0x12 ../cool_bsp/\libucosii_bsp.a(igmp.o)
 .debug_str     0x00003197       0x20 ../cool_bsp/\libucosii_bsp.a(igmp2.o)
 .debug_str     0x000031b7       0x12 ../cool_bsp/\libucosii_bsp.a(ipopt.o)
 .debug_str     0x000031c9       0x12 ../cool_bsp/\libucosii_bsp.a(u_mctest.o)
 .debug_str     0x000031db       0x12 ../cool_bsp/\libucosii_bsp.a(dhcsetup.o)
 .debug_str     0x000031ed       0x1b ../cool_bsp/\libucosii_bsp.a(memdev.o)
 .debug_str     0x00003208       0x12 ../cool_bsp/\libucosii_bsp.a(tcpcksum.o)
 .debug_str     0x0000321a       0x12 ../cool_bsp/\libucosii_bsp.a(in_pcb.o)
 .debug_str     0x0000322c       0x2b ../cool_bsp/\libucosii_bsp.a(vfsfiles.o)
 .debug_str     0x00003257       0x12 ../cool_bsp/\libucosii_bsp.a(vfsport.o)
 .debug_str     0x00003269       0x12 ../cool_bsp/\libucosii_bsp.a(alt_fcntl.o)
 .debug_str     0x0000327b       0x12 ../cool_bsp/\libucosii_bsp.a(alt_find_file.o)
 .debug_str     0x0000328d       0x12 ../cool_bsp/\libucosii_bsp.a(alt_get_fd.o)
 .debug_str     0x0000329f       0x12 ../cool_bsp/\libucosii_bsp.a(icmp.o)
 .debug_str     0x000032b1       0x3e c:/altera/13.0/nios2eds/bin/gnu/h-i686-mingw32/bin/../lib/gcc/nios2-elf/4.1.2/../../../../nios2-elf/lib/mno-hw-mul\libc.a(lib_a-atexit.o)
                                0x1ca (size before relaxing)
 .debug_str     0x000032ef       0x49 c:/altera/13.0/nios2eds/bin/gnu/h-i686-mingw32/bin/../lib/gcc/nios2-elf/4.1.2/../../../../nios2-elf/lib/mno-hw-mul\libc.a(lib_a-atoi.o)
                                0x507 (size before relaxing)
 .debug_str     0x00003338       0x45 c:/altera/13.0/nios2eds/bin/gnu/h-i686-mingw32/bin/../lib/gcc/nios2-elf/4.1.2/../../../../nios2-elf/lib/mno-hw-mul\libc.a(lib_a-calloc.o)
                                0x51b (size before relaxing)
 .debug_str     0x0000337d       0x4a c:/altera/13.0/nios2eds/bin/gnu/h-i686-mingw32/bin/../lib/gcc/nios2-elf/4.1.2/../../../../nios2-elf/lib/mno-hw-mul\libc.a(lib_a-malloc.o)
                                0x527 (size before relaxing)
 .debug_str     0x000033c7       0x45 c:/altera/13.0/nios2eds/bin/gnu/h-i686-mingw32/bin/../lib/gcc/nios2-elf/4.1.2/../../../../nios2-elf/lib/mno-hw-mul\libc.a(lib_a-memcmp.o)
                                0x175 (size before relaxing)
 .debug_str     0x0000340c       0x49 c:/altera/13.0/nios2eds/bin/gnu/h-i686-mingw32/bin/../lib/gcc/nios2-elf/4.1.2/../../../../nios2-elf/lib/mno-hw-mul\libc.a(lib_a-sprintf.o)
                                0x536 (size before relaxing)
 .debug_str     0x00003455       0x45 c:/altera/13.0/nios2eds/bin/gnu/h-i686-mingw32/bin/../lib/gcc/nios2-elf/4.1.2/../../../../nios2-elf/lib/mno-hw-mul\libc.a(lib_a-strcpy.o)
                                0x190 (size before relaxing)
 .debug_str     0x0000349a       0x47 c:/altera/13.0/nios2eds/bin/gnu/h-i686-mingw32/bin/../lib/gcc/nios2-elf/4.1.2/../../../../nios2-elf/lib/mno-hw-mul\libc.a(lib_a-strncmp.o)
                                0x177 (size before relaxing)
 .debug_str     0x000034e1       0x47 c:/altera/13.0/nios2eds/bin/gnu/h-i686-mingw32/bin/../lib/gcc/nios2-elf/4.1.2/../../../../nios2-elf/lib/mno-hw-mul\libc.a(lib_a-strncpy.o)
                                0x19f (size before relaxing)
 .debug_str     0x00003528       0x64 c:/altera/13.0/nios2eds/bin/gnu/h-i686-mingw32/bin/../lib/gcc/nios2-elf/4.1.2/../../../../nios2-elf/lib/mno-hw-mul\libc.a(lib_a-strtol.o)
                                0x549 (size before relaxing)
 .debug_str     0x0000358c       0x51 c:/altera/13.0/nios2eds/bin/gnu/h-i686-mingw32/bin/../lib/gcc/nios2-elf/4.1.2/../../../../nios2-elf/lib/mno-hw-mul\libc.a(lib_a-vprintf.o)
                                0x531 (size before relaxing)
 .debug_str     0x000035dd       0x54 c:/altera/13.0/nios2eds/bin/gnu/h-i686-mingw32/bin/../lib/gcc/nios2-elf/4.1.2/../../../../nios2-elf/lib/mno-hw-mul\libc.a(lib_a-vsprintf.o)
                                0x539 (size before relaxing)
 .debug_str     0x00003631       0x54 c:/altera/13.0/nios2eds/bin/gnu/h-i686-mingw32/bin/../lib/gcc/nios2-elf/4.1.2/../../../../nios2-elf/lib/mno-hw-mul\libc.a(lib_a-__atexit.o)
                                0x52f (size before relaxing)

.debug_loc      0x00000000    0x139cb
 *(.debug_loc)
 .debug_loc     0x00000000       0x56 obj/default/SSS_DE2_115.o
 .debug_loc     0x00000056       0x81 obj/default/alt_error_handler.o
 .debug_loc     0x000000d7      0x25a obj/default/dm9000a.o
 .debug_loc     0x00000331       0xae obj/default/iniche_init.o
 .debug_loc     0x000003df       0x81 obj/default/led.o
 .debug_loc     0x00000460      0x103 obj/default/network_utilities.o
 .debug_loc     0x00000563      0x15b obj/default/simple_socket_server.o
 .debug_loc     0x000006be       0x87 c:/altera/13.0/nios2eds/bin/gnu/h-i686-mingw32/bin/../lib/gcc/nios2-elf/4.1.2/mno-hw-mul\libgcc.a(_fixunsdfsi.o)
 .debug_loc     0x00000745      0x47a c:/altera/13.0/nios2eds/bin/gnu/h-i686-mingw32/bin/../lib/gcc/nios2-elf/4.1.2/mno-hw-mul\libgcc.a(_addsub_df.o)
 .debug_loc     0x00000bbf      0x3b4 c:/altera/13.0/nios2eds/bin/gnu/h-i686-mingw32/bin/../lib/gcc/nios2-elf/4.1.2/mno-hw-mul\libgcc.a(_mul_df.o)
 .debug_loc     0x00000f73       0x70 c:/altera/13.0/nios2eds/bin/gnu/h-i686-mingw32/bin/../lib/gcc/nios2-elf/4.1.2/mno-hw-mul\libgcc.a(_ge_df.o)
 .debug_loc     0x00000fe3       0x8b c:/altera/13.0/nios2eds/bin/gnu/h-i686-mingw32/bin/../lib/gcc/nios2-elf/4.1.2/mno-hw-mul\libgcc.a(_df_to_si.o)
 .debug_loc     0x0000106e       0x5b c:/altera/13.0/nios2eds/bin/gnu/h-i686-mingw32/bin/../lib/gcc/nios2-elf/4.1.2/mno-hw-mul\libgcc.a(_usi_to_df.o)
 .debug_loc     0x000010c9       0x4f c:/altera/13.0/nios2eds/bin/gnu/h-i686-mingw32/bin/../lib/gcc/nios2-elf/4.1.2/mno-hw-mul\libgcc.a(lib2-mul.o)
 .debug_loc     0x00001118      0x103 c:/altera/13.0/nios2eds/bin/gnu/h-i686-mingw32/bin/../lib/gcc/nios2-elf/4.1.2/mno-hw-mul\libgcc.a(_muldi3.o)
 .debug_loc     0x0000121b       0x1e c:/altera/13.0/nios2eds/bin/gnu/h-i686-mingw32/bin/../lib/gcc/nios2-elf/4.1.2/mno-hw-mul\libgcc.a(_clzsi2.o)
 .debug_loc     0x00001239      0x184 c:/altera/13.0/nios2eds/bin/gnu/h-i686-mingw32/bin/../lib/gcc/nios2-elf/4.1.2/mno-hw-mul\libgcc.a(_pack_df.o)
 .debug_loc     0x000013bd       0xe5 c:/altera/13.0/nios2eds/bin/gnu/h-i686-mingw32/bin/../lib/gcc/nios2-elf/4.1.2/mno-hw-mul\libgcc.a(_unpack_df.o)
 .debug_loc     0x000014a2       0x3d c:/altera/13.0/nios2eds/bin/gnu/h-i686-mingw32/bin/../lib/gcc/nios2-elf/4.1.2/../../../../nios2-elf/lib/mno-hw-mul\libc.a(lib_a-exit.o)
 .debug_loc     0x000014df       0xf1 c:/altera/13.0/nios2eds/bin/gnu/h-i686-mingw32/bin/../lib/gcc/nios2-elf/4.1.2/../../../../nios2-elf/lib/mno-hw-mul\libc.a(lib_a-fprintf.o)
 .debug_loc     0x000015d0      0x183 c:/altera/13.0/nios2eds/bin/gnu/h-i686-mingw32/bin/../lib/gcc/nios2-elf/4.1.2/../../../../nios2-elf/lib/mno-hw-mul\libc.a(lib_a-fwrite.o)
 .debug_loc     0x00001753      0x10b c:/altera/13.0/nios2eds/bin/gnu/h-i686-mingw32/bin/../lib/gcc/nios2-elf/4.1.2/../../../../nios2-elf/lib/mno-hw-mul\libc.a(lib_a-getc.o)
 .debug_loc     0x0000185e       0xca c:/altera/13.0/nios2eds/bin/gnu/h-i686-mingw32/bin/../lib/gcc/nios2-elf/4.1.2/../../../../nios2-elf/lib/mno-hw-mul\libc.a(lib_a-memcpy.o)
 .debug_loc     0x00001928      0x117 c:/altera/13.0/nios2eds/bin/gnu/h-i686-mingw32/bin/../lib/gcc/nios2-elf/4.1.2/../../../../nios2-elf/lib/mno-hw-mul\libc.a(lib_a-memmove.o)
 .debug_loc     0x00001a3f       0xa1 c:/altera/13.0/nios2eds/bin/gnu/h-i686-mingw32/bin/../lib/gcc/nios2-elf/4.1.2/../../../../nios2-elf/lib/mno-hw-mul\libc.a(lib_a-memset.o)
 .debug_loc     0x00001ae0       0xa2 c:/altera/13.0/nios2eds/bin/gnu/h-i686-mingw32/bin/../lib/gcc/nios2-elf/4.1.2/../../../../nios2-elf/lib/mno-hw-mul\libc.a(lib_a-perror.o)
 .debug_loc     0x00001b82       0xcb c:/altera/13.0/nios2eds/bin/gnu/h-i686-mingw32/bin/../lib/gcc/nios2-elf/4.1.2/../../../../nios2-elf/lib/mno-hw-mul\libc.a(lib_a-printf.o)
 .debug_loc     0x00001c4d      0x20d c:/altera/13.0/nios2eds/bin/gnu/h-i686-mingw32/bin/../lib/gcc/nios2-elf/4.1.2/../../../../nios2-elf/lib/mno-hw-mul\libc.a(lib_a-putc.o)
 .debug_loc     0x00001e5a       0x44 c:/altera/13.0/nios2eds/bin/gnu/h-i686-mingw32/bin/../lib/gcc/nios2-elf/4.1.2/../../../../nios2-elf/lib/mno-hw-mul\libc.a(lib_a-putchar.o)
 .debug_loc     0x00001e9e       0xa2 c:/altera/13.0/nios2eds/bin/gnu/h-i686-mingw32/bin/../lib/gcc/nios2-elf/4.1.2/../../../../nios2-elf/lib/mno-hw-mul\libc.a(lib_a-puts.o)
 .debug_loc     0x00001f40       0x6e c:/altera/13.0/nios2eds/bin/gnu/h-i686-mingw32/bin/../lib/gcc/nios2-elf/4.1.2/../../../../nios2-elf/lib/mno-hw-mul\libc.a(lib_a-rget.o)
 .debug_loc     0x00001fae       0xf3 c:/altera/13.0/nios2eds/bin/gnu/h-i686-mingw32/bin/../lib/gcc/nios2-elf/4.1.2/../../../../nios2-elf/lib/mno-hw-mul\libc.a(lib_a-strchr.o)
 .debug_loc     0x000020a1      0x418 c:/altera/13.0/nios2eds/bin/gnu/h-i686-mingw32/bin/../lib/gcc/nios2-elf/4.1.2/../../../../nios2-elf/lib/mno-hw-mul\libc.a(lib_a-strerror.o)
 .debug_loc     0x000024b9       0x3c c:/altera/13.0/nios2eds/bin/gnu/h-i686-mingw32/bin/../lib/gcc/nios2-elf/4.1.2/../../../../nios2-elf/lib/mno-hw-mul\libc.a(lib_a-strlen.o)
 .debug_loc     0x000024f5     0x1dc0 c:/altera/13.0/nios2eds/bin/gnu/h-i686-mingw32/bin/../lib/gcc/nios2-elf/4.1.2/../../../../nios2-elf/lib/mno-hw-mul\libc.a(lib_a-vfprintf.o)
 .debug_loc     0x000042b5      0x157 c:/altera/13.0/nios2eds/bin/gnu/h-i686-mingw32/bin/../lib/gcc/nios2-elf/4.1.2/../../../../nios2-elf/lib/mno-hw-mul\libc.a(lib_a-wbuf.o)
 .debug_loc     0x0000440c       0x7c c:/altera/13.0/nios2eds/bin/gnu/h-i686-mingw32/bin/../lib/gcc/nios2-elf/4.1.2/../../../../nios2-elf/lib/mno-hw-mul\libc.a(lib_a-wsetup.o)
 .debug_loc     0x00004488      0x1cb c:/altera/13.0/nios2eds/bin/gnu/h-i686-mingw32/bin/../lib/gcc/nios2-elf/4.1.2/../../../../nios2-elf/lib/mno-hw-mul\libc.a(lib_a-__call_atexit.o)
 .debug_loc     0x00004653     0x1da7 c:/altera/13.0/nios2eds/bin/gnu/h-i686-mingw32/bin/../lib/gcc/nios2-elf/4.1.2/../../../../nios2-elf/lib/mno-hw-mul\libc.a(lib_a-dtoa.o)
 .debug_loc     0x000063fa      0x1f6 c:/altera/13.0/nios2eds/bin/gnu/h-i686-mingw32/bin/../lib/gcc/nios2-elf/4.1.2/../../../../nios2-elf/lib/mno-hw-mul\libc.a(lib_a-fflush.o)
 .debug_loc     0x000065f0      0x1e1 c:/altera/13.0/nios2eds/bin/gnu/h-i686-mingw32/bin/../lib/gcc/nios2-elf/4.1.2/../../../../nios2-elf/lib/mno-hw-mul\libc.a(lib_a-findfp.o)
 .debug_loc     0x000067d1      0x14d c:/altera/13.0/nios2eds/bin/gnu/h-i686-mingw32/bin/../lib/gcc/nios2-elf/4.1.2/../../../../nios2-elf/lib/mno-hw-mul\libc.a(lib_a-fputc.o)
 .debug_loc     0x0000691e       0xcb c:/altera/13.0/nios2eds/bin/gnu/h-i686-mingw32/bin/../lib/gcc/nios2-elf/4.1.2/../../../../nios2-elf/lib/mno-hw-mul\libc.a(lib_a-fputs.o)
 .debug_loc     0x000069e9      0x4a7 c:/altera/13.0/nios2eds/bin/gnu/h-i686-mingw32/bin/../lib/gcc/nios2-elf/4.1.2/../../../../nios2-elf/lib/mno-hw-mul\libc.a(lib_a-freer.o)
 .debug_loc     0x00006e90      0x4e4 c:/altera/13.0/nios2eds/bin/gnu/h-i686-mingw32/bin/../lib/gcc/nios2-elf/4.1.2/../../../../nios2-elf/lib/mno-hw-mul\libc.a(lib_a-fvwrite.o)
 .debug_loc     0x00007374      0x1d2 c:/altera/13.0/nios2eds/bin/gnu/h-i686-mingw32/bin/../lib/gcc/nios2-elf/4.1.2/../../../../nios2-elf/lib/mno-hw-mul\libc.a(lib_a-fwalk.o)
 .debug_loc     0x00007546       0xe1 c:/altera/13.0/nios2eds/bin/gnu/h-i686-mingw32/bin/../lib/gcc/nios2-elf/4.1.2/../../../../nios2-elf/lib/mno-hw-mul\libc.a(lib_a-locale.o)
 .debug_loc     0x00007627      0x11c c:/altera/13.0/nios2eds/bin/gnu/h-i686-mingw32/bin/../lib/gcc/nios2-elf/4.1.2/../../../../nios2-elf/lib/mno-hw-mul\libc.a(lib_a-makebuf.o)
 .debug_loc     0x00007743      0xaeb c:/altera/13.0/nios2eds/bin/gnu/h-i686-mingw32/bin/../lib/gcc/nios2-elf/4.1.2/../../../../nios2-elf/lib/mno-hw-mul\libc.a(lib_a-mallocr.o)
 .debug_loc     0x0000822e      0x106 c:/altera/13.0/nios2eds/bin/gnu/h-i686-mingw32/bin/../lib/gcc/nios2-elf/4.1.2/../../../../nios2-elf/lib/mno-hw-mul\libc.a(lib_a-memchr.o)
 .debug_loc     0x00008334     0x1547 c:/altera/13.0/nios2eds/bin/gnu/h-i686-mingw32/bin/../lib/gcc/nios2-elf/4.1.2/../../../../nios2-elf/lib/mno-hw-mul\libc.a(lib_a-mprec.o)
 .debug_loc     0x0000987b      0x8c0 c:/altera/13.0/nios2eds/bin/gnu/h-i686-mingw32/bin/../lib/gcc/nios2-elf/4.1.2/../../../../nios2-elf/lib/mno-hw-mul\libc.a(lib_a-reallocr.o)
 .debug_loc     0x0000a13b       0xd1 c:/altera/13.0/nios2eds/bin/gnu/h-i686-mingw32/bin/../lib/gcc/nios2-elf/4.1.2/../../../../nios2-elf/lib/mno-hw-mul\libc.a(lib_a-refill.o)
 .debug_loc     0x0000a20c       0x36 c:/altera/13.0/nios2eds/bin/gnu/h-i686-mingw32/bin/../lib/gcc/nios2-elf/4.1.2/../../../../nios2-elf/lib/mno-hw-mul\libc.a(lib_a-s_isinfd.o)
 .debug_loc     0x0000a242       0x18 c:/altera/13.0/nios2eds/bin/gnu/h-i686-mingw32/bin/../lib/gcc/nios2-elf/4.1.2/../../../../nios2-elf/lib/mno-hw-mul\libc.a(lib_a-s_isnand.o)
 .debug_loc     0x0000a25a       0x5b c:/altera/13.0/nios2eds/bin/gnu/h-i686-mingw32/bin/../lib/gcc/nios2-elf/4.1.2/../../../../nios2-elf/lib/mno-hw-mul\libc.a(lib_a-sbrkr.o)
 .debug_loc     0x0000a2b5      0x21f c:/altera/13.0/nios2eds/bin/gnu/h-i686-mingw32/bin/../lib/gcc/nios2-elf/4.1.2/../../../../nios2-elf/lib/mno-hw-mul\libc.a(lib_a-stdio.o)
 .debug_loc     0x0000a4d4       0x65 c:/altera/13.0/nios2eds/bin/gnu/h-i686-mingw32/bin/../lib/gcc/nios2-elf/4.1.2/../../../../nios2-elf/lib/mno-hw-mul\libc.a(lib_a-strcmp.o)
 .debug_loc     0x0000a539       0x97 c:/altera/13.0/nios2eds/bin/gnu/h-i686-mingw32/bin/../lib/gcc/nios2-elf/4.1.2/../../../../nios2-elf/lib/mno-hw-mul\libc.a(lib_a-writer.o)
 .debug_loc     0x0000a5d0       0xff c:/altera/13.0/nios2eds/bin/gnu/h-i686-mingw32/bin/../lib/gcc/nios2-elf/4.1.2/../../../../nios2-elf/lib/mno-hw-mul\libc.a(lib_a-callocr.o)
 .debug_loc     0x0000a6cf       0x5b c:/altera/13.0/nios2eds/bin/gnu/h-i686-mingw32/bin/../lib/gcc/nios2-elf/4.1.2/../../../../nios2-elf/lib/mno-hw-mul\libc.a(lib_a-closer.o)
 .debug_loc     0x0000a72a       0xe4 c:/altera/13.0/nios2eds/bin/gnu/h-i686-mingw32/bin/../lib/gcc/nios2-elf/4.1.2/../../../../nios2-elf/lib/mno-hw-mul\libc.a(lib_a-fclose.o)
 .debug_loc     0x0000a80e       0x79 c:/altera/13.0/nios2eds/bin/gnu/h-i686-mingw32/bin/../lib/gcc/nios2-elf/4.1.2/../../../../nios2-elf/lib/mno-hw-mul\libc.a(lib_a-fstatr.o)
 .debug_loc     0x0000a887       0x5b c:/altera/13.0/nios2eds/bin/gnu/h-i686-mingw32/bin/../lib/gcc/nios2-elf/4.1.2/../../../../nios2-elf/lib/mno-hw-mul\libc.a(lib_a-isattyr.o)
 .debug_loc     0x0000a8e2       0x97 c:/altera/13.0/nios2eds/bin/gnu/h-i686-mingw32/bin/../lib/gcc/nios2-elf/4.1.2/../../../../nios2-elf/lib/mno-hw-mul\libc.a(lib_a-lseekr.o)
 .debug_loc     0x0000a979       0x97 c:/altera/13.0/nios2eds/bin/gnu/h-i686-mingw32/bin/../lib/gcc/nios2-elf/4.1.2/../../../../nios2-elf/lib/mno-hw-mul\libc.a(lib_a-readr.o)
 .debug_loc     0x0000aa10      0xc12 c:/altera/13.0/nios2eds/bin/gnu/h-i686-mingw32/bin/../lib/gcc/nios2-elf/4.1.2/mno-hw-mul\libgcc.a(_udivdi3.o)
 .debug_loc     0x0000b622      0xbcc c:/altera/13.0/nios2eds/bin/gnu/h-i686-mingw32/bin/../lib/gcc/nios2-elf/4.1.2/mno-hw-mul\libgcc.a(_umoddi3.o)
 .debug_loc     0x0000c1ee      0x1df c:/altera/13.0/nios2eds/bin/gnu/h-i686-mingw32/bin/../lib/gcc/nios2-elf/4.1.2/mno-hw-mul\libgcc.a(_div_df.o)
 .debug_loc     0x0000c3cd       0x70 c:/altera/13.0/nios2eds/bin/gnu/h-i686-mingw32/bin/../lib/gcc/nios2-elf/4.1.2/mno-hw-mul\libgcc.a(_eq_df.o)
 .debug_loc     0x0000c43d       0x70 c:/altera/13.0/nios2eds/bin/gnu/h-i686-mingw32/bin/../lib/gcc/nios2-elf/4.1.2/mno-hw-mul\libgcc.a(_ne_df.o)
 .debug_loc     0x0000c4ad       0x70 c:/altera/13.0/nios2eds/bin/gnu/h-i686-mingw32/bin/../lib/gcc/nios2-elf/4.1.2/mno-hw-mul\libgcc.a(_gt_df.o)
 .debug_loc     0x0000c51d       0x70 c:/altera/13.0/nios2eds/bin/gnu/h-i686-mingw32/bin/../lib/gcc/nios2-elf/4.1.2/mno-hw-mul\libgcc.a(_lt_df.o)
 .debug_loc     0x0000c58d       0x9a c:/altera/13.0/nios2eds/bin/gnu/h-i686-mingw32/bin/../lib/gcc/nios2-elf/4.1.2/mno-hw-mul\libgcc.a(_si_to_df.o)
 .debug_loc     0x0000c627      0x1d2 c:/altera/13.0/nios2eds/bin/gnu/h-i686-mingw32/bin/../lib/gcc/nios2-elf/4.1.2/mno-hw-mul\libgcc.a(lib2-divmod.o)
 .debug_loc     0x0000c7f9       0x56 ../cool_bsp/\libucosii_bsp.a(alt_exit.o)
 .debug_loc     0x0000c84f       0x56 ../cool_bsp/\libucosii_bsp.a(alt_flash_dev.o)
 .debug_loc     0x0000c8a5       0x56 ../cool_bsp/\libucosii_bsp.a(alt_fstat.o)
 .debug_loc     0x0000c8fb       0x2c ../cool_bsp/\libucosii_bsp.a(alt_irq_register.o)
 .debug_loc     0x0000c927       0x57 ../cool_bsp/\libucosii_bsp.a(alt_isatty.o)
 .debug_loc     0x0000c97e       0x56 ../cool_bsp/\libucosii_bsp.a(alt_lseek.o)
 .debug_loc     0x0000c9d4       0x2b ../cool_bsp/\libucosii_bsp.a(alt_main.o)
 .debug_loc     0x0000c9ff       0x2b ../cool_bsp/\libucosii_bsp.a(alt_sbrk.o)
 .debug_loc     0x0000ca2a       0x2b ../cool_bsp/\libucosii_bsp.a(alt_usleep.o)
 .debug_loc     0x0000ca55       0x57 ../cool_bsp/\libucosii_bsp.a(alt_env_lock.o)
 .debug_loc     0x0000caac       0x57 ../cool_bsp/\libucosii_bsp.a(alt_malloc_lock.o)
 .debug_loc     0x0000cb03      0x5e2 ../cool_bsp/\libucosii_bsp.a(os_core.o)
 .debug_loc     0x0000d0e5       0x2b ../cool_bsp/\libucosii_bsp.a(os_dbg.o)
 .debug_loc     0x0000d110      0x232 ../cool_bsp/\libucosii_bsp.a(os_flag.o)
 .debug_loc     0x0000d342      0x12d ../cool_bsp/\libucosii_bsp.a(os_mem.o)
 .debug_loc     0x0000d46f      0x1da ../cool_bsp/\libucosii_bsp.a(os_q.o)
 .debug_loc     0x0000d649      0x158 ../cool_bsp/\libucosii_bsp.a(os_sem.o)
 .debug_loc     0x0000d7a1      0x207 ../cool_bsp/\libucosii_bsp.a(os_task.o)
 .debug_loc     0x0000d9a8       0xd7 ../cool_bsp/\libucosii_bsp.a(os_time.o)
 .debug_loc     0x0000da7f       0x81 ../cool_bsp/\libucosii_bsp.a(alt_sys_init.o)
 .debug_loc     0x0000db00      0x12e ../cool_bsp/\libucosii_bsp.a(altera_avalon_cfi_flash.o)
 .debug_loc     0x0000dc2e      0x306 ../cool_bsp/\libucosii_bsp.a(altera_avalon_cfi_flash_table.o)
 .debug_loc     0x0000df34      0x1af ../cool_bsp/\libucosii_bsp.a(altera_avalon_epcs_flash_controller.o)
 .debug_loc     0x0000e0e3       0xac ../cool_bsp/\libucosii_bsp.a(altera_avalon_jtag_uart_fd.o)
 .debug_loc     0x0000e18f       0xac ../cool_bsp/\libucosii_bsp.a(altera_avalon_jtag_uart_init.o)
 .debug_loc     0x0000e23b       0x2b ../cool_bsp/\libucosii_bsp.a(altera_avalon_jtag_uart_ioctl.o)
 .debug_loc     0x0000e266       0x2c ../cool_bsp/\libucosii_bsp.a(altera_avalon_jtag_uart_read.o)
 .debug_loc     0x0000e292       0x2c ../cool_bsp/\libucosii_bsp.a(altera_avalon_jtag_uart_write.o)
 .debug_loc     0x0000e2be       0x56 ../cool_bsp/\libucosii_bsp.a(altera_avalon_timer_sc.o)
 .debug_loc     0x0000e314      0x204 ../cool_bsp/\libucosii_bsp.a(epcs_commands.o)
 .debug_loc     0x0000e518       0x2b ../cool_bsp/\libucosii_bsp.a(alt_iniche_close.o)
 .debug_loc     0x0000e543       0x2b ../cool_bsp/\libucosii_bsp.a(alt_iniche_dev.o)
 .debug_loc     0x0000e56e       0x2b ../cool_bsp/\libucosii_bsp.a(alt_iniche_read.o)
 .debug_loc     0x0000e599       0x2b ../cool_bsp/\libucosii_bsp.a(alt_iniche_write.o)
 .debug_loc     0x0000e5c4      0x102 ../cool_bsp/\libucosii_bsp.a(ipnet.o)
 .debug_loc     0x0000e6c6       0xac ../cool_bsp/\libucosii_bsp.a(ipstart.o)
 .debug_loc     0x0000e772      0x159 ../cool_bsp/\libucosii_bsp.a(igmp_cmn.o)
 .debug_loc     0x0000e8cb      0x1af ../cool_bsp/\libucosii_bsp.a(bsdsock.o)
 .debug_loc     0x0000ea7a       0x56 ../cool_bsp/\libucosii_bsp.a(cksum.o)
 .debug_loc     0x0000ead0      0x204 ../cool_bsp/\libucosii_bsp.a(in_utils.o)
 .debug_loc     0x0000ecd4       0x81 ../cool_bsp/\libucosii_bsp.a(netmain.o)
 .debug_loc     0x0000ed55      0x183 ../cool_bsp/\libucosii_bsp.a(parseip.o)
 .debug_loc     0x0000eed8      0x12f ../cool_bsp/\libucosii_bsp.a(tk_crnos.o)
 .debug_loc     0x0000f007      0x35e ../cool_bsp/\libucosii_bsp.a(dhcpclnt.o)
 .debug_loc     0x0000f365       0x2b ../cool_bsp/\libucosii_bsp.a(dhcputil.o)
 .debug_loc     0x0000f390      0x102 ../cool_bsp/\libucosii_bsp.a(pktalloc.o)
 .debug_loc     0x0000f492       0x81 ../cool_bsp/\libucosii_bsp.a(q.o)
 .debug_loc     0x0000f513       0x56 ../cool_bsp/\libucosii_bsp.a(udp_open.o)
 .debug_loc     0x0000f569      0x158 ../cool_bsp/\libucosii_bsp.a(brdutils.o)
 .debug_loc     0x0000f6c1       0xd8 ../cool_bsp/\libucosii_bsp.a(osportco.o)
 .debug_loc     0x0000f799      0x183 ../cool_bsp/\libucosii_bsp.a(targnios.o)
 .debug_loc     0x0000f91c      0x306 ../cool_bsp/\libucosii_bsp.a(nptcp.o)
 .debug_loc     0x0000fc22       0x82 ../cool_bsp/\libucosii_bsp.a(rawsock.o)
 .debug_loc     0x0000fca4      0x332 ../cool_bsp/\libucosii_bsp.a(sockcall.o)
 .debug_loc     0x0000ffd6      0x2b1 ../cool_bsp/\libucosii_bsp.a(socket.o)
 .debug_loc     0x00010287      0x3dd ../cool_bsp/\libucosii_bsp.a(socket2.o)
 .debug_loc     0x00010664      0x184 ../cool_bsp/\libucosii_bsp.a(soselect.o)
 .debug_loc     0x000107e8      0x12e ../cool_bsp/\libucosii_bsp.a(tcp_in.o)
 .debug_loc     0x00010916       0x82 ../cool_bsp/\libucosii_bsp.a(tcp_out.o)
 .debug_loc     0x00010998      0x183 ../cool_bsp/\libucosii_bsp.a(tcp_subr.o)
 .debug_loc     0x00010b1b       0x81 ../cool_bsp/\libucosii_bsp.a(tcp_timr.o)
 .debug_loc     0x00010b9c       0xac ../cool_bsp/\libucosii_bsp.a(tcp_usr.o)
 .debug_loc     0x00010c48       0x2b ../cool_bsp/\libucosii_bsp.a(tcpport.o)
 .debug_loc     0x00010c73      0x102 ../cool_bsp/\libucosii_bsp.a(udpsock.o)
 .debug_loc     0x00010d75       0x2b ../cool_bsp/\libucosii_bsp.a(alt_alarm_start.o)
 .debug_loc     0x00010da0       0x2b ../cool_bsp/\libucosii_bsp.a(alt_busy_sleep.o)
 .debug_loc     0x00010dcb       0x56 ../cool_bsp/\libucosii_bsp.a(alt_close.o)
 .debug_loc     0x00010e21       0x2b ../cool_bsp/\libucosii_bsp.a(alt_dcache_flush.o)
 .debug_loc     0x00010e4c       0x2b ../cool_bsp/\libucosii_bsp.a(alt_dev.o)
 .debug_loc     0x00010e77       0x56 ../cool_bsp/\libucosii_bsp.a(alt_dev_llist_insert.o)
 .debug_loc     0x00010ecd       0x2b ../cool_bsp/\libucosii_bsp.a(alt_do_ctors.o)
 .debug_loc     0x00010ef8       0x2b ../cool_bsp/\libucosii_bsp.a(alt_do_dtors.o)
 .debug_loc     0x00010f23       0x2b ../cool_bsp/\libucosii_bsp.a(alt_find_dev.o)
 .debug_loc     0x00010f4e       0xac ../cool_bsp/\libucosii_bsp.a(alt_iic.o)
 .debug_loc     0x00010ffa       0x2b ../cool_bsp/\libucosii_bsp.a(alt_iic_isr_register.o)
 .debug_loc     0x00011025       0x56 ../cool_bsp/\libucosii_bsp.a(alt_io_redirect.o)
 .debug_loc     0x0001107b       0x2b ../cool_bsp/\libucosii_bsp.a(alt_irq_handler.o)
 .debug_loc     0x000110a6       0x81 ../cool_bsp/\libucosii_bsp.a(alt_open.o)
 .debug_loc     0x00011127       0x56 ../cool_bsp/\libucosii_bsp.a(alt_read.o)
 .debug_loc     0x0001117d       0x2b ../cool_bsp/\libucosii_bsp.a(alt_release_fd.o)
 .debug_loc     0x000111a8       0x2b ../cool_bsp/\libucosii_bsp.a(alt_remap_cached.o)
 .debug_loc     0x000111d3       0x2b ../cool_bsp/\libucosii_bsp.a(alt_remap_uncached.o)
 .debug_loc     0x000111fe       0x56 ../cool_bsp/\libucosii_bsp.a(alt_tick.o)
 .debug_loc     0x00011254       0x56 ../cool_bsp/\libucosii_bsp.a(alt_write.o)
 .debug_loc     0x000112aa       0x2b ../cool_bsp/\libucosii_bsp.a(altera_nios2_qsys_irq.o)
 .debug_loc     0x000112d5      0x1ae ../cool_bsp/\libucosii_bsp.a(os_cpu_c.o)
 .debug_loc     0x00011483       0xac ../cool_bsp/\libucosii_bsp.a(altera_avalon_cfi_flash_amd.o)
 .debug_loc     0x0001152f       0xac ../cool_bsp/\libucosii_bsp.a(altera_avalon_cfi_flash_intel.o)
 .debug_loc     0x000115db       0x2b ../cool_bsp/\libucosii_bsp.a(altera_avalon_spi.o)
 .debug_loc     0x00011606      0x12d ../cool_bsp/\libucosii_bsp.a(allports.o)
 .debug_loc     0x00011733       0xac ../cool_bsp/\libucosii_bsp.a(timeouts.o)
 .debug_loc     0x000117df       0x56 ../cool_bsp/\libucosii_bsp.a(tk_misc.o)
 .debug_loc     0x00011835       0x2b ../cool_bsp/\libucosii_bsp.a(alt_iniche_fcntl.o)
 .debug_loc     0x00011860      0x204 ../cool_bsp/\libucosii_bsp.a(et_arp.o)
 .debug_loc     0x00011a64       0xac ../cool_bsp/\libucosii_bsp.a(iface.o)
 .debug_loc     0x00011b10      0x207 ../cool_bsp/\libucosii_bsp.a(ip.o)
 .debug_loc     0x00011d17      0x2b2 ../cool_bsp/\libucosii_bsp.a(ip_reasm.o)
 .debug_loc     0x00011fc9       0x81 ../cool_bsp/\libucosii_bsp.a(ipdemux.o)
 .debug_loc     0x0001204a       0x81 ../cool_bsp/\libucosii_bsp.a(ipmc.o)
 .debug_loc     0x000120cb       0x81 ../cool_bsp/\libucosii_bsp.a(ipport.o)
 .debug_loc     0x0001214c      0x102 ../cool_bsp/\libucosii_bsp.a(ipraw.o)
 .debug_loc     0x0001224e       0x81 ../cool_bsp/\libucosii_bsp.a(iproute.o)
 .debug_loc     0x000122cf      0x12f ../cool_bsp/\libucosii_bsp.a(udp.o)
 .debug_loc     0x000123fe       0x2b ../cool_bsp/\libucosii_bsp.a(igmp.o)
 .debug_loc     0x00012429       0xd7 ../cool_bsp/\libucosii_bsp.a(igmp2.o)
 .debug_loc     0x00012500       0xac ../cool_bsp/\libucosii_bsp.a(ipopt.o)
 .debug_loc     0x000125ac       0x57 ../cool_bsp/\libucosii_bsp.a(u_mctest.o)
 .debug_loc     0x00012603       0x56 ../cool_bsp/\libucosii_bsp.a(dhcsetup.o)
 .debug_loc     0x00012659      0x183 ../cool_bsp/\libucosii_bsp.a(memdev.o)
 .debug_loc     0x000127dc       0x2b ../cool_bsp/\libucosii_bsp.a(tcpcksum.o)
 .debug_loc     0x00012807      0x158 ../cool_bsp/\libucosii_bsp.a(in_pcb.o)
 .debug_loc     0x0001295f      0x4b4 ../cool_bsp/\libucosii_bsp.a(vfsfiles.o)
 .debug_loc     0x00012e13       0x2b ../cool_bsp/\libucosii_bsp.a(vfsport.o)
 .debug_loc     0x00012e3e       0x56 ../cool_bsp/\libucosii_bsp.a(alt_fcntl.o)
 .debug_loc     0x00012e94       0x2b ../cool_bsp/\libucosii_bsp.a(alt_find_file.o)
 .debug_loc     0x00012ebf       0x2b ../cool_bsp/\libucosii_bsp.a(alt_get_fd.o)
 .debug_loc     0x00012eea       0xad ../cool_bsp/\libucosii_bsp.a(icmp.o)
 .debug_loc     0x00012f97       0x1e c:/altera/13.0/nios2eds/bin/gnu/h-i686-mingw32/bin/../lib/gcc/nios2-elf/4.1.2/../../../../nios2-elf/lib/mno-hw-mul\libc.a(lib_a-atexit.o)
 .debug_loc     0x00012fb5       0x39 c:/altera/13.0/nios2eds/bin/gnu/h-i686-mingw32/bin/../lib/gcc/nios2-elf/4.1.2/../../../../nios2-elf/lib/mno-hw-mul\libc.a(lib_a-atoi.o)
 .debug_loc     0x00012fee       0x3c c:/altera/13.0/nios2eds/bin/gnu/h-i686-mingw32/bin/../lib/gcc/nios2-elf/4.1.2/../../../../nios2-elf/lib/mno-hw-mul\libc.a(lib_a-calloc.o)
 .debug_loc     0x0001302a       0x3c c:/altera/13.0/nios2eds/bin/gnu/h-i686-mingw32/bin/../lib/gcc/nios2-elf/4.1.2/../../../../nios2-elf/lib/mno-hw-mul\libc.a(lib_a-malloc.o)
 .debug_loc     0x00013066      0x114 c:/altera/13.0/nios2eds/bin/gnu/h-i686-mingw32/bin/../lib/gcc/nios2-elf/4.1.2/../../../../nios2-elf/lib/mno-hw-mul\libc.a(lib_a-memcmp.o)
 .debug_loc     0x0001317a       0xc0 c:/altera/13.0/nios2eds/bin/gnu/h-i686-mingw32/bin/../lib/gcc/nios2-elf/4.1.2/../../../../nios2-elf/lib/mno-hw-mul\libc.a(lib_a-sprintf.o)
 .debug_loc     0x0001323a       0x8b c:/altera/13.0/nios2eds/bin/gnu/h-i686-mingw32/bin/../lib/gcc/nios2-elf/4.1.2/../../../../nios2-elf/lib/mno-hw-mul\libc.a(lib_a-strcpy.o)
 .debug_loc     0x000132c5       0x78 c:/altera/13.0/nios2eds/bin/gnu/h-i686-mingw32/bin/../lib/gcc/nios2-elf/4.1.2/../../../../nios2-elf/lib/mno-hw-mul\libc.a(lib_a-strncmp.o)
 .debug_loc     0x0001333d       0xeb c:/altera/13.0/nios2eds/bin/gnu/h-i686-mingw32/bin/../lib/gcc/nios2-elf/4.1.2/../../../../nios2-elf/lib/mno-hw-mul\libc.a(lib_a-strncpy.o)
 .debug_loc     0x00013428      0x327 c:/altera/13.0/nios2eds/bin/gnu/h-i686-mingw32/bin/../lib/gcc/nios2-elf/4.1.2/../../../../nios2-elf/lib/mno-hw-mul\libc.a(lib_a-strtol.o)
 .debug_loc     0x0001374f       0x8b c:/altera/13.0/nios2eds/bin/gnu/h-i686-mingw32/bin/../lib/gcc/nios2-elf/4.1.2/../../../../nios2-elf/lib/mno-hw-mul\libc.a(lib_a-vprintf.o)
 .debug_loc     0x000137da       0xd1 c:/altera/13.0/nios2eds/bin/gnu/h-i686-mingw32/bin/../lib/gcc/nios2-elf/4.1.2/../../../../nios2-elf/lib/mno-hw-mul\libc.a(lib_a-vsprintf.o)
 .debug_loc     0x000138ab      0x120 c:/altera/13.0/nios2eds/bin/gnu/h-i686-mingw32/bin/../lib/gcc/nios2-elf/4.1.2/../../../../nios2-elf/lib/mno-hw-mul\libc.a(lib_a-__atexit.o)

.debug_macinfo
 *(.debug_macinfo)

.debug_weaknames
 *(.debug_weaknames)

.debug_funcnames
 *(.debug_funcnames)

.debug_typenames
 *(.debug_typenames)

.debug_varnames
 *(.debug_varnames)

.debug_alt_sim_info
                0x00000000       0x40
 *(.debug_alt_sim_info)
 .debug_alt_sim_info
                0x00000000       0x10 ../cool_bsp//obj/HAL/src/crt0.o
 .debug_alt_sim_info
                0x00000010       0x30 ../cool_bsp/\libucosii_bsp.a(alt_busy_sleep.o)
                0x01000000                __alt_data_end = 0x1000000
                0x01000000                PROVIDE (__alt_stack_pointer, __alt_data_end)
                0x00856320                PROVIDE (__alt_stack_limit, __alt_stack_base)
                0x00856320                PROVIDE (__alt_heap_start, end)
                0x01000000                PROVIDE (__alt_heap_limit, 0x1000000)
OUTPUT(cool.elf elf32-littlenios2)

.debug_ranges   0x00000000      0x9d8
 .debug_ranges  0x00000000       0x30 c:/altera/13.0/nios2eds/bin/gnu/h-i686-mingw32/bin/../lib/gcc/nios2-elf/4.1.2/mno-hw-mul\libgcc.a(_addsub_df.o)
 .debug_ranges  0x00000030       0x88 c:/altera/13.0/nios2eds/bin/gnu/h-i686-mingw32/bin/../lib/gcc/nios2-elf/4.1.2/mno-hw-mul\libgcc.a(_mul_df.o)
 .debug_ranges  0x000000b8       0x18 c:/altera/13.0/nios2eds/bin/gnu/h-i686-mingw32/bin/../lib/gcc/nios2-elf/4.1.2/mno-hw-mul\libgcc.a(_usi_to_df.o)
 .debug_ranges  0x000000d0       0x88 c:/altera/13.0/nios2eds/bin/gnu/h-i686-mingw32/bin/../lib/gcc/nios2-elf/4.1.2/mno-hw-mul\libgcc.a(_muldi3.o)
 .debug_ranges  0x00000158       0x28 c:/altera/13.0/nios2eds/bin/gnu/h-i686-mingw32/bin/../lib/gcc/nios2-elf/4.1.2/mno-hw-mul\libgcc.a(_clzsi2.o)
 .debug_ranges  0x00000180       0x28 c:/altera/13.0/nios2eds/bin/gnu/h-i686-mingw32/bin/../lib/gcc/nios2-elf/4.1.2/mno-hw-mul\libgcc.a(_pack_df.o)
 .debug_ranges  0x000001a8      0x168 c:/altera/13.0/nios2eds/bin/gnu/h-i686-mingw32/bin/../lib/gcc/nios2-elf/4.1.2/../../../../nios2-elf/lib/mno-hw-mul\libc.a(lib_a-vfprintf.o)
 .debug_ranges  0x00000310       0x18 c:/altera/13.0/nios2eds/bin/gnu/h-i686-mingw32/bin/../lib/gcc/nios2-elf/4.1.2/../../../../nios2-elf/lib/mno-hw-mul\libc.a(lib_a-__call_atexit.o)
 .debug_ranges  0x00000328       0x20 c:/altera/13.0/nios2eds/bin/gnu/h-i686-mingw32/bin/../lib/gcc/nios2-elf/4.1.2/../../../../nios2-elf/lib/mno-hw-mul\libc.a(lib_a-fflush.o)
 .debug_ranges  0x00000348       0x28 c:/altera/13.0/nios2eds/bin/gnu/h-i686-mingw32/bin/../lib/gcc/nios2-elf/4.1.2/../../../../nios2-elf/lib/mno-hw-mul\libc.a(lib_a-fvwrite.o)
 .debug_ranges  0x00000370       0xa0 c:/altera/13.0/nios2eds/bin/gnu/h-i686-mingw32/bin/../lib/gcc/nios2-elf/4.1.2/../../../../nios2-elf/lib/mno-hw-mul\libc.a(lib_a-fwalk.o)
 .debug_ranges  0x00000410       0x70 c:/altera/13.0/nios2eds/bin/gnu/h-i686-mingw32/bin/../lib/gcc/nios2-elf/4.1.2/../../../../nios2-elf/lib/mno-hw-mul\libc.a(lib_a-mallocr.o)
 .debug_ranges  0x00000480      0x110 c:/altera/13.0/nios2eds/bin/gnu/h-i686-mingw32/bin/../lib/gcc/nios2-elf/4.1.2/../../../../nios2-elf/lib/mno-hw-mul\libc.a(lib_a-reallocr.o)
 .debug_ranges  0x00000590       0x38 c:/altera/13.0/nios2eds/bin/gnu/h-i686-mingw32/bin/../lib/gcc/nios2-elf/4.1.2/../../../../nios2-elf/lib/mno-hw-mul\libc.a(lib_a-callocr.o)
 .debug_ranges  0x000005c8      0x190 c:/altera/13.0/nios2eds/bin/gnu/h-i686-mingw32/bin/../lib/gcc/nios2-elf/4.1.2/mno-hw-mul\libgcc.a(_udivdi3.o)
 .debug_ranges  0x00000758      0x1c0 c:/altera/13.0/nios2eds/bin/gnu/h-i686-mingw32/bin/../lib/gcc/nios2-elf/4.1.2/mno-hw-mul\libgcc.a(_umoddi3.o)
 .debug_ranges  0x00000918       0x50 c:/altera/13.0/nios2eds/bin/gnu/h-i686-mingw32/bin/../lib/gcc/nios2-elf/4.1.2/mno-hw-mul\libgcc.a(_div_df.o)
 .debug_ranges  0x00000968       0x18 ../cool_bsp/\libucosii_bsp.a(altera_avalon_jtag_uart_init.o)
 .debug_ranges  0x00000980       0x28 ../cool_bsp/\libucosii_bsp.a(alt_irq_entry.o)
 .debug_ranges  0x000009a8       0x30 ../cool_bsp/\libucosii_bsp.a(alt_exception_entry.o)
