Archive member included because of file (symbol)

c:/altera/13.0/nios2eds/bin/gnu/h-i686-mingw32/bin/../lib/gcc/nios2-elf/4.1.2\libgcc.a(_fixunsdfsi.o)
                              obj/default/dm9000a.o (__fixunsdfsi)
c:/altera/13.0/nios2eds/bin/gnu/h-i686-mingw32/bin/../lib/gcc/nios2-elf/4.1.2\libgcc.a(_addsub_df.o)
                              c:/altera/13.0/nios2eds/bin/gnu/h-i686-mingw32/bin/../lib/gcc/nios2-elf/4.1.2\libgcc.a(_fixunsdfsi.o) (__subdf3)
c:/altera/13.0/nios2eds/bin/gnu/h-i686-mingw32/bin/../lib/gcc/nios2-elf/4.1.2\libgcc.a(_mul_df.o)
                              obj/default/dm9000a.o (__muldf3)
c:/altera/13.0/nios2eds/bin/gnu/h-i686-mingw32/bin/../lib/gcc/nios2-elf/4.1.2\libgcc.a(_ge_df.o)
                              c:/altera/13.0/nios2eds/bin/gnu/h-i686-mingw32/bin/../lib/gcc/nios2-elf/4.1.2\libgcc.a(_fixunsdfsi.o) (__gedf2)
c:/altera/13.0/nios2eds/bin/gnu/h-i686-mingw32/bin/../lib/gcc/nios2-elf/4.1.2\libgcc.a(_df_to_si.o)
                              c:/altera/13.0/nios2eds/bin/gnu/h-i686-mingw32/bin/../lib/gcc/nios2-elf/4.1.2\libgcc.a(_fixunsdfsi.o) (__fixdfsi)
c:/altera/13.0/nios2eds/bin/gnu/h-i686-mingw32/bin/../lib/gcc/nios2-elf/4.1.2\libgcc.a(_thenan_df.o)
                              c:/altera/13.0/nios2eds/bin/gnu/h-i686-mingw32/bin/../lib/gcc/nios2-elf/4.1.2\libgcc.a(_addsub_df.o) (__thenan_df)
c:/altera/13.0/nios2eds/bin/gnu/h-i686-mingw32/bin/../lib/gcc/nios2-elf/4.1.2\libgcc.a(_usi_to_df.o)
                              obj/default/dm9000a.o (__floatunsidf)
c:/altera/13.0/nios2eds/bin/gnu/h-i686-mingw32/bin/../lib/gcc/nios2-elf/4.1.2\libgcc.a(_muldi3.o)
                              c:/altera/13.0/nios2eds/bin/gnu/h-i686-mingw32/bin/../lib/gcc/nios2-elf/4.1.2\libgcc.a(_mul_df.o) (__muldi3)
c:/altera/13.0/nios2eds/bin/gnu/h-i686-mingw32/bin/../lib/gcc/nios2-elf/4.1.2\libgcc.a(_clzsi2.o)
                              c:/altera/13.0/nios2eds/bin/gnu/h-i686-mingw32/bin/../lib/gcc/nios2-elf/4.1.2\libgcc.a(_usi_to_df.o) (__clzsi2)
c:/altera/13.0/nios2eds/bin/gnu/h-i686-mingw32/bin/../lib/gcc/nios2-elf/4.1.2\libgcc.a(_pack_df.o)
                              c:/altera/13.0/nios2eds/bin/gnu/h-i686-mingw32/bin/../lib/gcc/nios2-elf/4.1.2\libgcc.a(_addsub_df.o) (__pack_d)
c:/altera/13.0/nios2eds/bin/gnu/h-i686-mingw32/bin/../lib/gcc/nios2-elf/4.1.2\libgcc.a(_unpack_df.o)
                              c:/altera/13.0/nios2eds/bin/gnu/h-i686-mingw32/bin/../lib/gcc/nios2-elf/4.1.2\libgcc.a(_addsub_df.o) (__unpack_d)
c:/altera/13.0/nios2eds/bin/gnu/h-i686-mingw32/bin/../lib/gcc/nios2-elf/4.1.2\libgcc.a(_fpcmp_parts_df.o)
                              c:/altera/13.0/nios2eds/bin/gnu/h-i686-mingw32/bin/../lib/gcc/nios2-elf/4.1.2\libgcc.a(_ge_df.o) (__fpcmp_parts_d)
c:/altera/13.0/nios2eds/bin/gnu/h-i686-mingw32/bin/../lib/gcc/nios2-elf/4.1.2\libgcc.a(_clz.o)
                              c:/altera/13.0/nios2eds/bin/gnu/h-i686-mingw32/bin/../lib/gcc/nios2-elf/4.1.2\libgcc.a(_clzsi2.o) (__clz_tab)
c:/altera/13.0/nios2eds/bin/gnu/h-i686-mingw32/bin/../lib/gcc/nios2-elf/4.1.2/../../../../nios2-elf/lib\libc.a(lib_a-ctype_.o)
                              obj/default/network_utilities.o (__ctype_ptr)
c:/altera/13.0/nios2eds/bin/gnu/h-i686-mingw32/bin/../lib/gcc/nios2-elf/4.1.2/../../../../nios2-elf/lib\libc.a(lib_a-exit.o)
                              obj/default/simple_socket_server.o (exit)
c:/altera/13.0/nios2eds/bin/gnu/h-i686-mingw32/bin/../lib/gcc/nios2-elf/4.1.2/../../../../nios2-elf/lib\libc.a(lib_a-fprintf.o)
                              obj/default/alt_error_handler.o (fprintf)
c:/altera/13.0/nios2eds/bin/gnu/h-i686-mingw32/bin/../lib/gcc/nios2-elf/4.1.2/../../../../nios2-elf/lib\libc.a(lib_a-fwrite.o)
                              obj/default/alt_error_handler.o (fwrite)
c:/altera/13.0/nios2eds/bin/gnu/h-i686-mingw32/bin/../lib/gcc/nios2-elf/4.1.2/../../../../nios2-elf/lib\libc.a(lib_a-getc.o)
                              obj/default/network_utilities.o (getc)
c:/altera/13.0/nios2eds/bin/gnu/h-i686-mingw32/bin/../lib/gcc/nios2-elf/4.1.2/../../../../nios2-elf/lib\libc.a(lib_a-impure.o)
                              obj/default/alt_error_handler.o (_impure_ptr)
c:/altera/13.0/nios2eds/bin/gnu/h-i686-mingw32/bin/../lib/gcc/nios2-elf/4.1.2/../../../../nios2-elf/lib\libc.a(lib_a-memcpy.o)
                              obj/default/simple_socket_server.o (memcpy)
c:/altera/13.0/nios2eds/bin/gnu/h-i686-mingw32/bin/../lib/gcc/nios2-elf/4.1.2/../../../../nios2-elf/lib\libc.a(lib_a-memmove.o)
                              obj/default/simple_socket_server.o (memmove)
c:/altera/13.0/nios2eds/bin/gnu/h-i686-mingw32/bin/../lib/gcc/nios2-elf/4.1.2/../../../../nios2-elf/lib\libc.a(lib_a-memset.o)
                              obj/default/simple_socket_server.o (memset)
c:/altera/13.0/nios2eds/bin/gnu/h-i686-mingw32/bin/../lib/gcc/nios2-elf/4.1.2/../../../../nios2-elf/lib\libc.a(lib_a-perror.o)
                              obj/default/alt_error_handler.o (perror)
c:/altera/13.0/nios2eds/bin/gnu/h-i686-mingw32/bin/../lib/gcc/nios2-elf/4.1.2/../../../../nios2-elf/lib\libc.a(lib_a-printf.o)
                              obj/default/SSS_DE2_115.o (printf)
c:/altera/13.0/nios2eds/bin/gnu/h-i686-mingw32/bin/../lib/gcc/nios2-elf/4.1.2/../../../../nios2-elf/lib\libc.a(lib_a-putc.o)
                              obj/default/network_utilities.o (putc)
c:/altera/13.0/nios2eds/bin/gnu/h-i686-mingw32/bin/../lib/gcc/nios2-elf/4.1.2/../../../../nios2-elf/lib\libc.a(lib_a-putchar.o)
                              obj/default/network_utilities.o (putchar)
c:/altera/13.0/nios2eds/bin/gnu/h-i686-mingw32/bin/../lib/gcc/nios2-elf/4.1.2/../../../../nios2-elf/lib\libc.a(lib_a-puts.o)
                              obj/default/SSS_DE2_115.o (puts)
c:/altera/13.0/nios2eds/bin/gnu/h-i686-mingw32/bin/../lib/gcc/nios2-elf/4.1.2/../../../../nios2-elf/lib\libc.a(lib_a-rget.o)
                              c:/altera/13.0/nios2eds/bin/gnu/h-i686-mingw32/bin/../lib/gcc/nios2-elf/4.1.2/../../../../nios2-elf/lib\libc.a(lib_a-getc.o) (__srget_r)
c:/altera/13.0/nios2eds/bin/gnu/h-i686-mingw32/bin/../lib/gcc/nios2-elf/4.1.2/../../../../nios2-elf/lib\libc.a(lib_a-strchr.o)
                              obj/default/simple_socket_server.o (strchr)
c:/altera/13.0/nios2eds/bin/gnu/h-i686-mingw32/bin/../lib/gcc/nios2-elf/4.1.2/../../../../nios2-elf/lib\libc.a(lib_a-strerror.o)
                              c:/altera/13.0/nios2eds/bin/gnu/h-i686-mingw32/bin/../lib/gcc/nios2-elf/4.1.2/../../../../nios2-elf/lib\libc.a(lib_a-perror.o) (strerror)
c:/altera/13.0/nios2eds/bin/gnu/h-i686-mingw32/bin/../lib/gcc/nios2-elf/4.1.2/../../../../nios2-elf/lib\libc.a(lib_a-strlen.o)
                              obj/default/LCD.o (strlen)
c:/altera/13.0/nios2eds/bin/gnu/h-i686-mingw32/bin/../lib/gcc/nios2-elf/4.1.2/../../../../nios2-elf/lib\libc.a(lib_a-u_strerr.o)
                              c:/altera/13.0/nios2eds/bin/gnu/h-i686-mingw32/bin/../lib/gcc/nios2-elf/4.1.2/../../../../nios2-elf/lib\libc.a(lib_a-strerror.o) (_user_strerror)
c:/altera/13.0/nios2eds/bin/gnu/h-i686-mingw32/bin/../lib/gcc/nios2-elf/4.1.2/../../../../nios2-elf/lib\libc.a(lib_a-vfprintf.o)
                              c:/altera/13.0/nios2eds/bin/gnu/h-i686-mingw32/bin/../lib/gcc/nios2-elf/4.1.2/../../../../nios2-elf/lib\libc.a(lib_a-printf.o) (___vfprintf_internal_r)
c:/altera/13.0/nios2eds/bin/gnu/h-i686-mingw32/bin/../lib/gcc/nios2-elf/4.1.2/../../../../nios2-elf/lib\libc.a(lib_a-wbuf.o)
                              c:/altera/13.0/nios2eds/bin/gnu/h-i686-mingw32/bin/../lib/gcc/nios2-elf/4.1.2/../../../../nios2-elf/lib\libc.a(lib_a-putc.o) (__swbuf_r)
c:/altera/13.0/nios2eds/bin/gnu/h-i686-mingw32/bin/../lib/gcc/nios2-elf/4.1.2/../../../../nios2-elf/lib\libc.a(lib_a-wsetup.o)
                              c:/altera/13.0/nios2eds/bin/gnu/h-i686-mingw32/bin/../lib/gcc/nios2-elf/4.1.2/../../../../nios2-elf/lib\libc.a(lib_a-vfprintf.o) (__swsetup_r)
c:/altera/13.0/nios2eds/bin/gnu/h-i686-mingw32/bin/../lib/gcc/nios2-elf/4.1.2/../../../../nios2-elf/lib\libc.a(lib_a-__call_atexit.o)
                              c:/altera/13.0/nios2eds/bin/gnu/h-i686-mingw32/bin/../lib/gcc/nios2-elf/4.1.2/../../../../nios2-elf/lib\libc.a(lib_a-exit.o) (__call_exitprocs)
c:/altera/13.0/nios2eds/bin/gnu/h-i686-mingw32/bin/../lib/gcc/nios2-elf/4.1.2/../../../../nios2-elf/lib\libc.a(lib_a-dtoa.o)
                              c:/altera/13.0/nios2eds/bin/gnu/h-i686-mingw32/bin/../lib/gcc/nios2-elf/4.1.2/../../../../nios2-elf/lib\libc.a(lib_a-vfprintf.o) (_dtoa_r)
c:/altera/13.0/nios2eds/bin/gnu/h-i686-mingw32/bin/../lib/gcc/nios2-elf/4.1.2/../../../../nios2-elf/lib\libc.a(lib_a-fflush.o)
                              c:/altera/13.0/nios2eds/bin/gnu/h-i686-mingw32/bin/../lib/gcc/nios2-elf/4.1.2/../../../../nios2-elf/lib\libc.a(lib_a-vfprintf.o) (_fflush_r)
c:/altera/13.0/nios2eds/bin/gnu/h-i686-mingw32/bin/../lib/gcc/nios2-elf/4.1.2/../../../../nios2-elf/lib\libc.a(lib_a-findfp.o)
                              c:/altera/13.0/nios2eds/bin/gnu/h-i686-mingw32/bin/../lib/gcc/nios2-elf/4.1.2/../../../../nios2-elf/lib\libc.a(lib_a-fwrite.o) (__sinit)
c:/altera/13.0/nios2eds/bin/gnu/h-i686-mingw32/bin/../lib/gcc/nios2-elf/4.1.2/../../../../nios2-elf/lib\libc.a(lib_a-fputc.o)
                              c:/altera/13.0/nios2eds/bin/gnu/h-i686-mingw32/bin/../lib/gcc/nios2-elf/4.1.2/../../../../nios2-elf/lib\libc.a(lib_a-perror.o) (fputc)
c:/altera/13.0/nios2eds/bin/gnu/h-i686-mingw32/bin/../lib/gcc/nios2-elf/4.1.2/../../../../nios2-elf/lib\libc.a(lib_a-fputs.o)
                              c:/altera/13.0/nios2eds/bin/gnu/h-i686-mingw32/bin/../lib/gcc/nios2-elf/4.1.2/../../../../nios2-elf/lib\libc.a(lib_a-perror.o) (fputs)
c:/altera/13.0/nios2eds/bin/gnu/h-i686-mingw32/bin/../lib/gcc/nios2-elf/4.1.2/../../../../nios2-elf/lib\libc.a(lib_a-freer.o)
                              c:/altera/13.0/nios2eds/bin/gnu/h-i686-mingw32/bin/../lib/gcc/nios2-elf/4.1.2/../../../../nios2-elf/lib\libc.a(lib_a-wsetup.o) (_free_r)
c:/altera/13.0/nios2eds/bin/gnu/h-i686-mingw32/bin/../lib/gcc/nios2-elf/4.1.2/../../../../nios2-elf/lib\libc.a(lib_a-fvwrite.o)
                              c:/altera/13.0/nios2eds/bin/gnu/h-i686-mingw32/bin/../lib/gcc/nios2-elf/4.1.2/../../../../nios2-elf/lib\libc.a(lib_a-fwrite.o) (__sfvwrite_r)
c:/altera/13.0/nios2eds/bin/gnu/h-i686-mingw32/bin/../lib/gcc/nios2-elf/4.1.2/../../../../nios2-elf/lib\libc.a(lib_a-fwalk.o)
                              c:/altera/13.0/nios2eds/bin/gnu/h-i686-mingw32/bin/../lib/gcc/nios2-elf/4.1.2/../../../../nios2-elf/lib\libc.a(lib_a-fflush.o) (_fwalk_reent)
c:/altera/13.0/nios2eds/bin/gnu/h-i686-mingw32/bin/../lib/gcc/nios2-elf/4.1.2/../../../../nios2-elf/lib\libc.a(lib_a-locale.o)
                              c:/altera/13.0/nios2eds/bin/gnu/h-i686-mingw32/bin/../lib/gcc/nios2-elf/4.1.2/../../../../nios2-elf/lib\libc.a(lib_a-vfprintf.o) (_localeconv_r)
c:/altera/13.0/nios2eds/bin/gnu/h-i686-mingw32/bin/../lib/gcc/nios2-elf/4.1.2/../../../../nios2-elf/lib\libc.a(lib_a-makebuf.o)
                              c:/altera/13.0/nios2eds/bin/gnu/h-i686-mingw32/bin/../lib/gcc/nios2-elf/4.1.2/../../../../nios2-elf/lib\libc.a(lib_a-wsetup.o) (__smakebuf_r)
c:/altera/13.0/nios2eds/bin/gnu/h-i686-mingw32/bin/../lib/gcc/nios2-elf/4.1.2/../../../../nios2-elf/lib\libc.a(lib_a-mallocr.o)
                              c:/altera/13.0/nios2eds/bin/gnu/h-i686-mingw32/bin/../lib/gcc/nios2-elf/4.1.2/../../../../nios2-elf/lib\libc.a(lib_a-findfp.o) (_malloc_r)
c:/altera/13.0/nios2eds/bin/gnu/h-i686-mingw32/bin/../lib/gcc/nios2-elf/4.1.2/../../../../nios2-elf/lib\libc.a(lib_a-memchr.o)
                              c:/altera/13.0/nios2eds/bin/gnu/h-i686-mingw32/bin/../lib/gcc/nios2-elf/4.1.2/../../../../nios2-elf/lib\libc.a(lib_a-vfprintf.o) (memchr)
c:/altera/13.0/nios2eds/bin/gnu/h-i686-mingw32/bin/../lib/gcc/nios2-elf/4.1.2/../../../../nios2-elf/lib\libc.a(lib_a-mprec.o)
                              c:/altera/13.0/nios2eds/bin/gnu/h-i686-mingw32/bin/../lib/gcc/nios2-elf/4.1.2/../../../../nios2-elf/lib\libc.a(lib_a-dtoa.o) (_Bfree)
c:/altera/13.0/nios2eds/bin/gnu/h-i686-mingw32/bin/../lib/gcc/nios2-elf/4.1.2/../../../../nios2-elf/lib\libc.a(lib_a-reallocr.o)
                              c:/altera/13.0/nios2eds/bin/gnu/h-i686-mingw32/bin/../lib/gcc/nios2-elf/4.1.2/../../../../nios2-elf/lib\libc.a(lib_a-fvwrite.o) (_realloc_r)
c:/altera/13.0/nios2eds/bin/gnu/h-i686-mingw32/bin/../lib/gcc/nios2-elf/4.1.2/../../../../nios2-elf/lib\libc.a(lib_a-refill.o)
                              c:/altera/13.0/nios2eds/bin/gnu/h-i686-mingw32/bin/../lib/gcc/nios2-elf/4.1.2/../../../../nios2-elf/lib\libc.a(lib_a-rget.o) (__srefill_r)
c:/altera/13.0/nios2eds/bin/gnu/h-i686-mingw32/bin/../lib/gcc/nios2-elf/4.1.2/../../../../nios2-elf/lib\libc.a(lib_a-s_isinfd.o)
                              c:/altera/13.0/nios2eds/bin/gnu/h-i686-mingw32/bin/../lib/gcc/nios2-elf/4.1.2/../../../../nios2-elf/lib\libc.a(lib_a-vfprintf.o) (__isinfd)
c:/altera/13.0/nios2eds/bin/gnu/h-i686-mingw32/bin/../lib/gcc/nios2-elf/4.1.2/../../../../nios2-elf/lib\libc.a(lib_a-s_isnand.o)
                              c:/altera/13.0/nios2eds/bin/gnu/h-i686-mingw32/bin/../lib/gcc/nios2-elf/4.1.2/../../../../nios2-elf/lib\libc.a(lib_a-vfprintf.o) (__isnand)
c:/altera/13.0/nios2eds/bin/gnu/h-i686-mingw32/bin/../lib/gcc/nios2-elf/4.1.2/../../../../nios2-elf/lib\libc.a(lib_a-sbrkr.o)
                              c:/altera/13.0/nios2eds/bin/gnu/h-i686-mingw32/bin/../lib/gcc/nios2-elf/4.1.2/../../../../nios2-elf/lib\libc.a(lib_a-freer.o) (_sbrk_r)
c:/altera/13.0/nios2eds/bin/gnu/h-i686-mingw32/bin/../lib/gcc/nios2-elf/4.1.2/../../../../nios2-elf/lib\libc.a(lib_a-stdio.o)
                              c:/altera/13.0/nios2eds/bin/gnu/h-i686-mingw32/bin/../lib/gcc/nios2-elf/4.1.2/../../../../nios2-elf/lib\libc.a(lib_a-findfp.o) (__sclose)
c:/altera/13.0/nios2eds/bin/gnu/h-i686-mingw32/bin/../lib/gcc/nios2-elf/4.1.2/../../../../nios2-elf/lib\libc.a(lib_a-strcmp.o)
                              c:/altera/13.0/nios2eds/bin/gnu/h-i686-mingw32/bin/../lib/gcc/nios2-elf/4.1.2/../../../../nios2-elf/lib\libc.a(lib_a-locale.o) (strcmp)
c:/altera/13.0/nios2eds/bin/gnu/h-i686-mingw32/bin/../lib/gcc/nios2-elf/4.1.2/../../../../nios2-elf/lib\libc.a(lib_a-writer.o)
                              c:/altera/13.0/nios2eds/bin/gnu/h-i686-mingw32/bin/../lib/gcc/nios2-elf/4.1.2/../../../../nios2-elf/lib\libc.a(lib_a-stdio.o) (_write_r)
c:/altera/13.0/nios2eds/bin/gnu/h-i686-mingw32/bin/../lib/gcc/nios2-elf/4.1.2/../../../../nios2-elf/lib\libc.a(lib_a-callocr.o)
                              c:/altera/13.0/nios2eds/bin/gnu/h-i686-mingw32/bin/../lib/gcc/nios2-elf/4.1.2/../../../../nios2-elf/lib\libc.a(lib_a-mprec.o) (_calloc_r)
c:/altera/13.0/nios2eds/bin/gnu/h-i686-mingw32/bin/../lib/gcc/nios2-elf/4.1.2/../../../../nios2-elf/lib\libc.a(lib_a-closer.o)
                              c:/altera/13.0/nios2eds/bin/gnu/h-i686-mingw32/bin/../lib/gcc/nios2-elf/4.1.2/../../../../nios2-elf/lib\libc.a(lib_a-stdio.o) (_close_r)
c:/altera/13.0/nios2eds/bin/gnu/h-i686-mingw32/bin/../lib/gcc/nios2-elf/4.1.2/../../../../nios2-elf/lib\libc.a(lib_a-fclose.o)
                              c:/altera/13.0/nios2eds/bin/gnu/h-i686-mingw32/bin/../lib/gcc/nios2-elf/4.1.2/../../../../nios2-elf/lib\libc.a(lib_a-findfp.o) (fclose)
c:/altera/13.0/nios2eds/bin/gnu/h-i686-mingw32/bin/../lib/gcc/nios2-elf/4.1.2/../../../../nios2-elf/lib\libc.a(lib_a-fstatr.o)
                              c:/altera/13.0/nios2eds/bin/gnu/h-i686-mingw32/bin/../lib/gcc/nios2-elf/4.1.2/../../../../nios2-elf/lib\libc.a(lib_a-makebuf.o) (_fstat_r)
c:/altera/13.0/nios2eds/bin/gnu/h-i686-mingw32/bin/../lib/gcc/nios2-elf/4.1.2/../../../../nios2-elf/lib\libc.a(lib_a-int_errno.o)
                              c:/altera/13.0/nios2eds/bin/gnu/h-i686-mingw32/bin/../lib/gcc/nios2-elf/4.1.2/../../../../nios2-elf/lib\libc.a(lib_a-sbrkr.o) (errno)
c:/altera/13.0/nios2eds/bin/gnu/h-i686-mingw32/bin/../lib/gcc/nios2-elf/4.1.2/../../../../nios2-elf/lib\libc.a(lib_a-isattyr.o)
                              c:/altera/13.0/nios2eds/bin/gnu/h-i686-mingw32/bin/../lib/gcc/nios2-elf/4.1.2/../../../../nios2-elf/lib\libc.a(lib_a-makebuf.o) (_isatty_r)
c:/altera/13.0/nios2eds/bin/gnu/h-i686-mingw32/bin/../lib/gcc/nios2-elf/4.1.2/../../../../nios2-elf/lib\libc.a(lib_a-lseekr.o)
                              c:/altera/13.0/nios2eds/bin/gnu/h-i686-mingw32/bin/../lib/gcc/nios2-elf/4.1.2/../../../../nios2-elf/lib\libc.a(lib_a-stdio.o) (_lseek_r)
c:/altera/13.0/nios2eds/bin/gnu/h-i686-mingw32/bin/../lib/gcc/nios2-elf/4.1.2/../../../../nios2-elf/lib\libc.a(lib_a-readr.o)
                              c:/altera/13.0/nios2eds/bin/gnu/h-i686-mingw32/bin/../lib/gcc/nios2-elf/4.1.2/../../../../nios2-elf/lib\libc.a(lib_a-stdio.o) (_read_r)
c:/altera/13.0/nios2eds/bin/gnu/h-i686-mingw32/bin/../lib/gcc/nios2-elf/4.1.2\libgcc.a(_udivdi3.o)
                              c:/altera/13.0/nios2eds/bin/gnu/h-i686-mingw32/bin/../lib/gcc/nios2-elf/4.1.2/../../../../nios2-elf/lib\libc.a(lib_a-vfprintf.o) (__udivdi3)
c:/altera/13.0/nios2eds/bin/gnu/h-i686-mingw32/bin/../lib/gcc/nios2-elf/4.1.2\libgcc.a(_umoddi3.o)
                              c:/altera/13.0/nios2eds/bin/gnu/h-i686-mingw32/bin/../lib/gcc/nios2-elf/4.1.2/../../../../nios2-elf/lib\libc.a(lib_a-vfprintf.o) (__umoddi3)
c:/altera/13.0/nios2eds/bin/gnu/h-i686-mingw32/bin/../lib/gcc/nios2-elf/4.1.2\libgcc.a(_div_df.o)
                              c:/altera/13.0/nios2eds/bin/gnu/h-i686-mingw32/bin/../lib/gcc/nios2-elf/4.1.2/../../../../nios2-elf/lib\libc.a(lib_a-dtoa.o) (__divdf3)
c:/altera/13.0/nios2eds/bin/gnu/h-i686-mingw32/bin/../lib/gcc/nios2-elf/4.1.2\libgcc.a(_eq_df.o)
                              c:/altera/13.0/nios2eds/bin/gnu/h-i686-mingw32/bin/../lib/gcc/nios2-elf/4.1.2/../../../../nios2-elf/lib\libc.a(lib_a-vfprintf.o) (__eqdf2)
c:/altera/13.0/nios2eds/bin/gnu/h-i686-mingw32/bin/../lib/gcc/nios2-elf/4.1.2\libgcc.a(_ne_df.o)
                              c:/altera/13.0/nios2eds/bin/gnu/h-i686-mingw32/bin/../lib/gcc/nios2-elf/4.1.2/../../../../nios2-elf/lib\libc.a(lib_a-vfprintf.o) (__nedf2)
c:/altera/13.0/nios2eds/bin/gnu/h-i686-mingw32/bin/../lib/gcc/nios2-elf/4.1.2\libgcc.a(_gt_df.o)
                              c:/altera/13.0/nios2eds/bin/gnu/h-i686-mingw32/bin/../lib/gcc/nios2-elf/4.1.2/../../../../nios2-elf/lib\libc.a(lib_a-dtoa.o) (__gtdf2)
c:/altera/13.0/nios2eds/bin/gnu/h-i686-mingw32/bin/../lib/gcc/nios2-elf/4.1.2\libgcc.a(_lt_df.o)
                              c:/altera/13.0/nios2eds/bin/gnu/h-i686-mingw32/bin/../lib/gcc/nios2-elf/4.1.2/../../../../nios2-elf/lib\libc.a(lib_a-vfprintf.o) (__ltdf2)
c:/altera/13.0/nios2eds/bin/gnu/h-i686-mingw32/bin/../lib/gcc/nios2-elf/4.1.2\libgcc.a(_si_to_df.o)
                              c:/altera/13.0/nios2eds/bin/gnu/h-i686-mingw32/bin/../lib/gcc/nios2-elf/4.1.2/../../../../nios2-elf/lib\libc.a(lib_a-dtoa.o) (__floatsidf)
c:/altera/13.0/nios2eds/bin/gnu/h-i686-mingw32/bin/../lib/gcc/nios2-elf/4.1.2\libgcc.a(lib2-divmod.o)
                              c:/altera/13.0/nios2eds/bin/gnu/h-i686-mingw32/bin/../lib/gcc/nios2-elf/4.1.2/../../../../nios2-elf/lib\libc.a(lib_a-vfprintf.o) (__divsi3)
../socket_simples_bsp/\libucosii_bsp.a(alt_exit.o)
                              c:/altera/13.0/nios2eds/bin/gnu/h-i686-mingw32/bin/../lib/gcc/nios2-elf/4.1.2/../../../../nios2-elf/lib\libc.a(lib_a-exit.o) (_exit)
../socket_simples_bsp/\libucosii_bsp.a(alt_flash_dev.o)
                              obj/default/SSS_DE2_115.o (alt_flash_open_dev)
../socket_simples_bsp/\libucosii_bsp.a(alt_fstat.o)
                              c:/altera/13.0/nios2eds/bin/gnu/h-i686-mingw32/bin/../lib/gcc/nios2-elf/4.1.2/../../../../nios2-elf/lib\libc.a(lib_a-fstatr.o) (fstat)
../socket_simples_bsp/\libucosii_bsp.a(alt_irq_register.o)
                              obj/default/dm9000a.o (alt_irq_register)
../socket_simples_bsp/\libucosii_bsp.a(alt_irq_vars.o)
                              ../socket_simples_bsp/\libucosii_bsp.a(alt_irq_register.o) (alt_irq_active)
../socket_simples_bsp/\libucosii_bsp.a(alt_isatty.o)
                              c:/altera/13.0/nios2eds/bin/gnu/h-i686-mingw32/bin/../lib/gcc/nios2-elf/4.1.2/../../../../nios2-elf/lib\libc.a(lib_a-isattyr.o) (isatty)
../socket_simples_bsp/\libucosii_bsp.a(alt_lseek.o)
                              c:/altera/13.0/nios2eds/bin/gnu/h-i686-mingw32/bin/../lib/gcc/nios2-elf/4.1.2/../../../../nios2-elf/lib\libc.a(lib_a-lseekr.o) (lseek)
../socket_simples_bsp/\libucosii_bsp.a(alt_main.o)
                              ../socket_simples_bsp//obj/HAL/src/crt0.o (alt_main)
../socket_simples_bsp/\libucosii_bsp.a(alt_sbrk.o)
                              c:/altera/13.0/nios2eds/bin/gnu/h-i686-mingw32/bin/../lib/gcc/nios2-elf/4.1.2/../../../../nios2-elf/lib\libc.a(lib_a-sbrkr.o) (sbrk)
../socket_simples_bsp/\libucosii_bsp.a(alt_usleep.o)
                              obj/default/LCD.o (usleep)
../socket_simples_bsp/\libucosii_bsp.a(alt_env_lock.o)
                              ../socket_simples_bsp/\libucosii_bsp.a(alt_main.o) (alt_envsem)
../socket_simples_bsp/\libucosii_bsp.a(alt_malloc_lock.o)
                              c:/altera/13.0/nios2eds/bin/gnu/h-i686-mingw32/bin/../lib/gcc/nios2-elf/4.1.2/../../../../nios2-elf/lib\libc.a(lib_a-freer.o) (__malloc_lock)
../socket_simples_bsp/\libucosii_bsp.a(os_core.o)
                              ../socket_simples_bsp/\libucosii_bsp.a(alt_main.o) (OSInit)
../socket_simples_bsp/\libucosii_bsp.a(os_dbg.o)
                              ../socket_simples_bsp/\libucosii_bsp.a(os_core.o) (OSDebugInit)
../socket_simples_bsp/\libucosii_bsp.a(os_flag.o)
                              obj/default/simple_socket_server.o (OSFlagCreate)
../socket_simples_bsp/\libucosii_bsp.a(os_mem.o)
                              ../socket_simples_bsp/\libucosii_bsp.a(os_core.o) (OS_MemInit)
../socket_simples_bsp/\libucosii_bsp.a(os_q.o)
                              obj/default/simple_socket_server.o (OSQCreate)
../socket_simples_bsp/\libucosii_bsp.a(os_sem.o)
                              obj/default/simple_socket_server.o (OSSemCreate)
../socket_simples_bsp/\libucosii_bsp.a(os_task.o)
                              obj/default/iniche_init.o (OSTaskCreateExt)
../socket_simples_bsp/\libucosii_bsp.a(os_time.o)
                              obj/default/iniche_init.o (OSTimeDly)
../socket_simples_bsp/\libucosii_bsp.a(alt_sys_init.o)
                              ../socket_simples_bsp/\libucosii_bsp.a(alt_main.o) (alt_irq_init)
../socket_simples_bsp/\libucosii_bsp.a(altera_avalon_cfi_flash.o)
                              ../socket_simples_bsp/\libucosii_bsp.a(alt_sys_init.o) (alt_flash_cfi_init)
../socket_simples_bsp/\libucosii_bsp.a(altera_avalon_cfi_flash_table.o)
                              ../socket_simples_bsp/\libucosii_bsp.a(altera_avalon_cfi_flash.o) (alt_set_flash_width_func)
../socket_simples_bsp/\libucosii_bsp.a(altera_avalon_epcs_flash_controller.o)
                              ../socket_simples_bsp/\libucosii_bsp.a(alt_sys_init.o) (alt_epcs_flash_init)
../socket_simples_bsp/\libucosii_bsp.a(altera_avalon_jtag_uart_fd.o)
                              ../socket_simples_bsp/\libucosii_bsp.a(alt_sys_init.o) (altera_avalon_jtag_uart_read_fd)
../socket_simples_bsp/\libucosii_bsp.a(altera_avalon_jtag_uart_init.o)
                              ../socket_simples_bsp/\libucosii_bsp.a(alt_sys_init.o) (altera_avalon_jtag_uart_init)
../socket_simples_bsp/\libucosii_bsp.a(altera_avalon_jtag_uart_ioctl.o)
                              ../socket_simples_bsp/\libucosii_bsp.a(altera_avalon_jtag_uart_fd.o) (altera_avalon_jtag_uart_ioctl)
../socket_simples_bsp/\libucosii_bsp.a(altera_avalon_jtag_uart_read.o)
                              ../socket_simples_bsp/\libucosii_bsp.a(altera_avalon_jtag_uart_fd.o) (altera_avalon_jtag_uart_read)
../socket_simples_bsp/\libucosii_bsp.a(altera_avalon_jtag_uart_write.o)
                              ../socket_simples_bsp/\libucosii_bsp.a(altera_avalon_jtag_uart_fd.o) (altera_avalon_jtag_uart_write)
../socket_simples_bsp/\libucosii_bsp.a(altera_avalon_lcd_16207.o)
                              ../socket_simples_bsp/\libucosii_bsp.a(alt_sys_init.o) (altera_avalon_lcd_16207_init)
../socket_simples_bsp/\libucosii_bsp.a(altera_avalon_lcd_16207_fd.o)
                              ../socket_simples_bsp/\libucosii_bsp.a(alt_sys_init.o) (altera_avalon_lcd_16207_write_fd)
../socket_simples_bsp/\libucosii_bsp.a(altera_avalon_timer_sc.o)
                              ../socket_simples_bsp/\libucosii_bsp.a(alt_sys_init.o) (alt_avalon_timer_sc_init)
../socket_simples_bsp/\libucosii_bsp.a(altera_avalon_uart_fd.o)
                              ../socket_simples_bsp/\libucosii_bsp.a(alt_sys_init.o) (altera_avalon_uart_read_fd)
../socket_simples_bsp/\libucosii_bsp.a(altera_avalon_uart_init.o)
                              ../socket_simples_bsp/\libucosii_bsp.a(alt_sys_init.o) (altera_avalon_uart_init)
../socket_simples_bsp/\libucosii_bsp.a(altera_avalon_uart_read.o)
                              ../socket_simples_bsp/\libucosii_bsp.a(altera_avalon_uart_fd.o) (altera_avalon_uart_read)
../socket_simples_bsp/\libucosii_bsp.a(altera_avalon_uart_write.o)
                              ../socket_simples_bsp/\libucosii_bsp.a(altera_avalon_uart_fd.o) (altera_avalon_uart_write)
../socket_simples_bsp/\libucosii_bsp.a(epcs_commands.o)
                              ../socket_simples_bsp/\libucosii_bsp.a(altera_avalon_epcs_flash_controller.o) (epcs_sector_erase)
../socket_simples_bsp/\libucosii_bsp.a(alt_iniche_close.o)
                              obj/default/simple_socket_server.o (close)
../socket_simples_bsp/\libucosii_bsp.a(alt_iniche_dev.o)
                              obj/default/iniche_init.o (alt_iniche_dev_list)
../socket_simples_bsp/\libucosii_bsp.a(alt_iniche_read.o)
                              c:/altera/13.0/nios2eds/bin/gnu/h-i686-mingw32/bin/../lib/gcc/nios2-elf/4.1.2/../../../../nios2-elf/lib\libc.a(lib_a-readr.o) (read)
../socket_simples_bsp/\libucosii_bsp.a(alt_iniche_write.o)
                              c:/altera/13.0/nios2eds/bin/gnu/h-i686-mingw32/bin/../lib/gcc/nios2-elf/4.1.2/../../../../nios2-elf/lib\libc.a(lib_a-writer.o) (write)
../socket_simples_bsp/\libucosii_bsp.a(ipnet.o)
                              obj/default/dm9000a.o (rcvdq)
../socket_simples_bsp/\libucosii_bsp.a(ipstart.o)
                              ../socket_simples_bsp/\libucosii_bsp.a(ipnet.o) (ifNumber)
../socket_simples_bsp/\libucosii_bsp.a(igmp_cmn.o)
                              ../socket_simples_bsp/\libucosii_bsp.a(ipstart.o) (igmp_init)
../socket_simples_bsp/\libucosii_bsp.a(bsdsock.o)
                              obj/default/simple_socket_server.o (bsd_accept)
../socket_simples_bsp/\libucosii_bsp.a(cksum.o)
                              ../socket_simples_bsp/\libucosii_bsp.a(igmp_cmn.o) (cksum)
../socket_simples_bsp/\libucosii_bsp.a(in_utils.o)
                              ../socket_simples_bsp/\libucosii_bsp.a(igmp_cmn.o) (ns_printf)
../socket_simples_bsp/\libucosii_bsp.a(netmain.o)
                              obj/default/iniche_init.o (iniche_net_ready)
../socket_simples_bsp/\libucosii_bsp.a(parseip.o)
                              obj/default/simple_socket_server.o (inet_pton)
../socket_simples_bsp/\libucosii_bsp.a(tk_crnos.o)
                              ../socket_simples_bsp/\libucosii_bsp.a(ipnet.o) (tk_yield)
../socket_simples_bsp/\libucosii_bsp.a(dhcpclnt.o)
                              ../socket_simples_bsp/\libucosii_bsp.a(netmain.o) (dhc_second)
../socket_simples_bsp/\libucosii_bsp.a(dhcputil.o)
                              ../socket_simples_bsp/\libucosii_bsp.a(dhcpclnt.o) (find_opt)
../socket_simples_bsp/\libucosii_bsp.a(pktalloc.o)
                              ../socket_simples_bsp/\libucosii_bsp.a(ipnet.o) (pk_init)
../socket_simples_bsp/\libucosii_bsp.a(q.o)
                              ../socket_simples_bsp/\libucosii_bsp.a(ipnet.o) (getq)
../socket_simples_bsp/\libucosii_bsp.a(udp_open.o)
                              ../socket_simples_bsp/\libucosii_bsp.a(dhcpclnt.o) (udp_open)
../socket_simples_bsp/\libucosii_bsp.a(asm_cksum.o)
                              ../socket_simples_bsp/\libucosii_bsp.a(cksum.o) (asm_cksum)
../socket_simples_bsp/\libucosii_bsp.a(brdutils.o)
                              ../socket_simples_bsp/\libucosii_bsp.a(ipnet.o) (dtrap)
../socket_simples_bsp/\libucosii_bsp.a(osportco.o)
                              ../socket_simples_bsp/\libucosii_bsp.a(tk_crnos.o) (tcp_sleep_count)
../socket_simples_bsp/\libucosii_bsp.a(targnios.o)
                              obj/default/iniche_init.o (alt_iniche_init)
../socket_simples_bsp/\libucosii_bsp.a(nptcp.o)
                              ../socket_simples_bsp/\libucosii_bsp.a(bsdsock.o) (soq)
../socket_simples_bsp/\libucosii_bsp.a(rawsock.o)
                              ../socket_simples_bsp/\libucosii_bsp.a(nptcp.o) (rawip_usrreq)
../socket_simples_bsp/\libucosii_bsp.a(sockcall.o)
                              obj/default/iniche_init.o (t_socket)
../socket_simples_bsp/\libucosii_bsp.a(socket.o)
                              ../socket_simples_bsp/\libucosii_bsp.a(sockcall.o) (socreate)
../socket_simples_bsp/\libucosii_bsp.a(socket2.o)
                              ../socket_simples_bsp/\libucosii_bsp.a(sockcall.o) (soqremque)
../socket_simples_bsp/\libucosii_bsp.a(soselect.o)
                              ../socket_simples_bsp/\libucosii_bsp.a(bsdsock.o) (t_select)
../socket_simples_bsp/\libucosii_bsp.a(tcp_in.o)
                              ../socket_simples_bsp/\libucosii_bsp.a(nptcp.o) (tcp_input)
../socket_simples_bsp/\libucosii_bsp.a(tcp_out.o)
                              ../socket_simples_bsp/\libucosii_bsp.a(tcp_in.o) (tcp_output)
../socket_simples_bsp/\libucosii_bsp.a(tcp_subr.o)
                              ../socket_simples_bsp/\libucosii_bsp.a(nptcp.o) (tcp_init)
../socket_simples_bsp/\libucosii_bsp.a(tcp_timr.o)
                              ../socket_simples_bsp/\libucosii_bsp.a(tcp_in.o) (tcp_keepidle)
../socket_simples_bsp/\libucosii_bsp.a(tcp_usr.o)
                              ../socket_simples_bsp/\libucosii_bsp.a(nptcp.o) (tcp_usrreq)
../socket_simples_bsp/\libucosii_bsp.a(tcpport.o)
                              ../socket_simples_bsp/\libucosii_bsp.a(ipstart.o) (tcpinit)
../socket_simples_bsp/\libucosii_bsp.a(udpsock.o)
                              ../socket_simples_bsp/\libucosii_bsp.a(nptcp.o) (udp_usrreq)
../socket_simples_bsp/\libucosii_bsp.a(alt_alarm_start.o)
                              ../socket_simples_bsp/\libucosii_bsp.a(altera_avalon_jtag_uart_init.o) (alt_alarm_start)
../socket_simples_bsp/\libucosii_bsp.a(alt_busy_sleep.o)
                              ../socket_simples_bsp/\libucosii_bsp.a(alt_usleep.o) (alt_busy_sleep)
../socket_simples_bsp/\libucosii_bsp.a(alt_close.o)
                              ../socket_simples_bsp/\libucosii_bsp.a(alt_iniche_close.o) (alt_close)
../socket_simples_bsp/\libucosii_bsp.a(alt_dcache_flush.o)
                              ../socket_simples_bsp/\libucosii_bsp.a(altera_avalon_cfi_flash.o) (alt_dcache_flush)
../socket_simples_bsp/\libucosii_bsp.a(alt_dev.o)
                              ../socket_simples_bsp/\libucosii_bsp.a(alt_sys_init.o) (alt_dev_list)
../socket_simples_bsp/\libucosii_bsp.a(alt_dev_llist_insert.o)
                              ../socket_simples_bsp/\libucosii_bsp.a(alt_sys_init.o) (alt_dev_llist_insert)
../socket_simples_bsp/\libucosii_bsp.a(alt_do_ctors.o)
                              ../socket_simples_bsp/\libucosii_bsp.a(alt_main.o) (_do_ctors)
../socket_simples_bsp/\libucosii_bsp.a(alt_do_dtors.o)
                              ../socket_simples_bsp/\libucosii_bsp.a(alt_main.o) (_do_dtors)
../socket_simples_bsp/\libucosii_bsp.a(alt_errno.o)
                              ../socket_simples_bsp/\libucosii_bsp.a(alt_fstat.o) (alt_errno)
../socket_simples_bsp/\libucosii_bsp.a(alt_find_dev.o)
                              ../socket_simples_bsp/\libucosii_bsp.a(alt_flash_dev.o) (alt_find_dev)
../socket_simples_bsp/\libucosii_bsp.a(alt_iic.o)
                              ../socket_simples_bsp/\libucosii_bsp.a(altera_avalon_jtag_uart_init.o) (alt_ic_isr_register)
../socket_simples_bsp/\libucosii_bsp.a(alt_iic_isr_register.o)
                              ../socket_simples_bsp/\libucosii_bsp.a(alt_iic.o) (alt_iic_isr_register)
../socket_simples_bsp/\libucosii_bsp.a(alt_io_redirect.o)
                              ../socket_simples_bsp/\libucosii_bsp.a(alt_main.o) (alt_io_redirect)
../socket_simples_bsp/\libucosii_bsp.a(alt_irq_entry.o)
                              ../socket_simples_bsp/\libucosii_bsp.a(alt_irq_register.o) (alt_irq_entry)
../socket_simples_bsp/\libucosii_bsp.a(alt_irq_handler.o)
                              ../socket_simples_bsp/\libucosii_bsp.a(alt_irq_register.o) (alt_irq_handler)
../socket_simples_bsp/\libucosii_bsp.a(alt_open.o)
                              ../socket_simples_bsp/\libucosii_bsp.a(alt_io_redirect.o) (open)
../socket_simples_bsp/\libucosii_bsp.a(alt_read.o)
                              ../socket_simples_bsp/\libucosii_bsp.a(alt_iniche_read.o) (alt_read)
../socket_simples_bsp/\libucosii_bsp.a(alt_release_fd.o)
                              ../socket_simples_bsp/\libucosii_bsp.a(alt_close.o) (alt_release_fd)
../socket_simples_bsp/\libucosii_bsp.a(alt_remap_cached.o)
                              ../socket_simples_bsp/\libucosii_bsp.a(targnios.o) (alt_remap_cached)
../socket_simples_bsp/\libucosii_bsp.a(alt_remap_uncached.o)
                              ../socket_simples_bsp/\libucosii_bsp.a(targnios.o) (alt_remap_uncached)
../socket_simples_bsp/\libucosii_bsp.a(alt_tick.o)
                              ../socket_simples_bsp/\libucosii_bsp.a(alt_usleep.o) (_alt_tick_rate)
../socket_simples_bsp/\libucosii_bsp.a(alt_write.o)
                              ../socket_simples_bsp/\libucosii_bsp.a(alt_iniche_write.o) (alt_write)
../socket_simples_bsp/\libucosii_bsp.a(altera_nios2_qsys_irq.o)
                              ../socket_simples_bsp/\libucosii_bsp.a(alt_sys_init.o) (altera_nios2_qsys_irq_init)
../socket_simples_bsp/\libucosii_bsp.a(os_cpu_a.o)
                              ../socket_simples_bsp/\libucosii_bsp.a(os_core.o) (OSIntCtxSw)
../socket_simples_bsp/\libucosii_bsp.a(os_cpu_c.o)
                              ../socket_simples_bsp/\libucosii_bsp.a(os_task.o) (OSTaskStkInit)
../socket_simples_bsp/\libucosii_bsp.a(altera_avalon_cfi_flash_amd.o)
                              ../socket_simples_bsp/\libucosii_bsp.a(altera_avalon_cfi_flash_table.o) (alt_program_amd)
../socket_simples_bsp/\libucosii_bsp.a(altera_avalon_cfi_flash_intel.o)
                              ../socket_simples_bsp/\libucosii_bsp.a(altera_avalon_cfi_flash_table.o) (alt_program_intel)
../socket_simples_bsp/\libucosii_bsp.a(altera_avalon_spi.o)
                              ../socket_simples_bsp/\libucosii_bsp.a(epcs_commands.o) (alt_avalon_spi_command)
../socket_simples_bsp/\libucosii_bsp.a(allports.o)
                              ../socket_simples_bsp/\libucosii_bsp.a(dhcpclnt.o) (name)
../socket_simples_bsp/\libucosii_bsp.a(timeouts.o)
                              ../socket_simples_bsp/\libucosii_bsp.a(netmain.o) (inet_timer)
../socket_simples_bsp/\libucosii_bsp.a(tk_misc.o)
                              ../socket_simples_bsp/\libucosii_bsp.a(netmain.o) (create_apptasks)
../socket_simples_bsp/\libucosii_bsp.a(alt_iniche_fcntl.o)
                              ../socket_simples_bsp/\libucosii_bsp.a(brdutils.o) (fcntl)
../socket_simples_bsp/\libucosii_bsp.a(et_arp.o)
                              ../socket_simples_bsp/\libucosii_bsp.a(ipstart.o) (etainit)
../socket_simples_bsp/\libucosii_bsp.a(iface.o)
                              ../socket_simples_bsp/\libucosii_bsp.a(ipnet.o) (netlist)
../socket_simples_bsp/\libucosii_bsp.a(ip.o)
                              ../socket_simples_bsp/\libucosii_bsp.a(ipstart.o) (ip_init)
../socket_simples_bsp/\libucosii_bsp.a(ip_reasm.o)
                              ../socket_simples_bsp/\libucosii_bsp.a(timeouts.o) (ire_cticks)
../socket_simples_bsp/\libucosii_bsp.a(ipdemux.o)
                              ../socket_simples_bsp/\libucosii_bsp.a(ipnet.o) (ip_rcv)
../socket_simples_bsp/\libucosii_bsp.a(ipmc.o)
                              ../socket_simples_bsp/\libucosii_bsp.a(ipstart.o) (in_addmulti)
../socket_simples_bsp/\libucosii_bsp.a(ipport.o)
                              ../socket_simples_bsp/\libucosii_bsp.a(targnios.o) (port_prep)
../socket_simples_bsp/\libucosii_bsp.a(ipraw.o)
                              ../socket_simples_bsp/\libucosii_bsp.a(rawsock.o) (ipraw_eps)
../socket_simples_bsp/\libucosii_bsp.a(iproute.o)
                              ../socket_simples_bsp/\libucosii_bsp.a(ip.o) (cachedRoute)
../socket_simples_bsp/\libucosii_bsp.a(udp.o)
                              ../socket_simples_bsp/\libucosii_bsp.a(ipdemux.o) (udpdemux)
../socket_simples_bsp/\libucosii_bsp.a(igmp.o)
                              ../socket_simples_bsp/\libucosii_bsp.a(igmp_cmn.o) (igmpv1_input)
../socket_simples_bsp/\libucosii_bsp.a(igmp2.o)
                              ../socket_simples_bsp/\libucosii_bsp.a(igmp_cmn.o) (igmpv2_input)
../socket_simples_bsp/\libucosii_bsp.a(ipopt.o)
                              ../socket_simples_bsp/\libucosii_bsp.a(socket.o) (ip_setmoptions)
../socket_simples_bsp/\libucosii_bsp.a(u_mctest.o)
                              ../socket_simples_bsp/\libucosii_bsp.a(allports.o) (u_mctest_init)
../socket_simples_bsp/\libucosii_bsp.a(dhcsetup.o)
                              ../socket_simples_bsp/\libucosii_bsp.a(allports.o) (dhc_setup)
../socket_simples_bsp/\libucosii_bsp.a(memdev.o)
                              ../socket_simples_bsp/\libucosii_bsp.a(allports.o) (init_memdev)
../socket_simples_bsp/\libucosii_bsp.a(tcpcksum.o)
                              ../socket_simples_bsp/\libucosii_bsp.a(nptcp.o) (tcp_cksum)
../socket_simples_bsp/\libucosii_bsp.a(in_pcb.o)
                              ../socket_simples_bsp/\libucosii_bsp.a(tcp_usr.o) (in_pcballoc)
../socket_simples_bsp/\libucosii_bsp.a(vfsfiles.o)
                              ../socket_simples_bsp/\libucosii_bsp.a(memdev.o) (vfsystems)
../socket_simples_bsp/\libucosii_bsp.a(vfsport.o)
                              ../socket_simples_bsp/\libucosii_bsp.a(allports.o) (prep_vfs)
../socket_simples_bsp/\libucosii_bsp.a(alt_exception_entry.o)
                              ../socket_simples_bsp/\libucosii_bsp.a(alt_irq_entry.o) (alt_exception)
../socket_simples_bsp/\libucosii_bsp.a(alt_fcntl.o)
                              ../socket_simples_bsp/\libucosii_bsp.a(alt_iniche_fcntl.o) (alt_fcntl)
../socket_simples_bsp/\libucosii_bsp.a(alt_find_file.o)
                              ../socket_simples_bsp/\libucosii_bsp.a(alt_open.o) (alt_find_file)
../socket_simples_bsp/\libucosii_bsp.a(alt_get_fd.o)
                              ../socket_simples_bsp/\libucosii_bsp.a(alt_open.o) (alt_get_fd)
../socket_simples_bsp/\libucosii_bsp.a(icmp.o)
                              ../socket_simples_bsp/\libucosii_bsp.a(ipdemux.o) (icmprcv)
c:/altera/13.0/nios2eds/bin/gnu/h-i686-mingw32/bin/../lib/gcc/nios2-elf/4.1.2/../../../../nios2-elf/lib\libc.a(lib_a-atexit.o)
                              ../socket_simples_bsp/\libucosii_bsp.a(alt_main.o) (atexit)
c:/altera/13.0/nios2eds/bin/gnu/h-i686-mingw32/bin/../lib/gcc/nios2-elf/4.1.2/../../../../nios2-elf/lib\libc.a(lib_a-atoi.o)
                              ../socket_simples_bsp/\libucosii_bsp.a(parseip.o) (atoi)
c:/altera/13.0/nios2eds/bin/gnu/h-i686-mingw32/bin/../lib/gcc/nios2-elf/4.1.2/../../../../nios2-elf/lib\libc.a(lib_a-calloc.o)
                              ../socket_simples_bsp/\libucosii_bsp.a(targnios.o) (calloc)
c:/altera/13.0/nios2eds/bin/gnu/h-i686-mingw32/bin/../lib/gcc/nios2-elf/4.1.2/../../../../nios2-elf/lib\libc.a(lib_a-malloc.o)
                              ../socket_simples_bsp/\libucosii_bsp.a(targnios.o) (free)
c:/altera/13.0/nios2eds/bin/gnu/h-i686-mingw32/bin/../lib/gcc/nios2-elf/4.1.2/../../../../nios2-elf/lib\libc.a(lib_a-memcmp.o)
                              ../socket_simples_bsp/\libucosii_bsp.a(altera_avalon_cfi_flash.o) (memcmp)
c:/altera/13.0/nios2eds/bin/gnu/h-i686-mingw32/bin/../lib/gcc/nios2-elf/4.1.2/../../../../nios2-elf/lib\libc.a(lib_a-sprintf.o)
                              ../socket_simples_bsp/\libucosii_bsp.a(in_utils.o) (sprintf)
c:/altera/13.0/nios2eds/bin/gnu/h-i686-mingw32/bin/../lib/gcc/nios2-elf/4.1.2/../../../../nios2-elf/lib\libc.a(lib_a-strcpy.o)
                              ../socket_simples_bsp/\libucosii_bsp.a(parseip.o) (strcpy)
c:/altera/13.0/nios2eds/bin/gnu/h-i686-mingw32/bin/../lib/gcc/nios2-elf/4.1.2/../../../../nios2-elf/lib\libc.a(lib_a-strncmp.o)
                              ../socket_simples_bsp/\libucosii_bsp.a(vfsfiles.o) (strncmp)
c:/altera/13.0/nios2eds/bin/gnu/h-i686-mingw32/bin/../lib/gcc/nios2-elf/4.1.2/../../../../nios2-elf/lib\libc.a(lib_a-strncpy.o)
                              ../socket_simples_bsp/\libucosii_bsp.a(dhcpclnt.o) (strncpy)
c:/altera/13.0/nios2eds/bin/gnu/h-i686-mingw32/bin/../lib/gcc/nios2-elf/4.1.2/../../../../nios2-elf/lib\libc.a(lib_a-strtol.o)
                              c:/altera/13.0/nios2eds/bin/gnu/h-i686-mingw32/bin/../lib/gcc/nios2-elf/4.1.2/../../../../nios2-elf/lib\libc.a(lib_a-atoi.o) (_strtol_r)
c:/altera/13.0/nios2eds/bin/gnu/h-i686-mingw32/bin/../lib/gcc/nios2-elf/4.1.2/../../../../nios2-elf/lib\libc.a(lib_a-vprintf.o)
                              ../socket_simples_bsp/\libucosii_bsp.a(in_utils.o) (vprintf)
c:/altera/13.0/nios2eds/bin/gnu/h-i686-mingw32/bin/../lib/gcc/nios2-elf/4.1.2/../../../../nios2-elf/lib\libc.a(lib_a-vsprintf.o)
                              ../socket_simples_bsp/\libucosii_bsp.a(in_utils.o) (vsprintf)
c:/altera/13.0/nios2eds/bin/gnu/h-i686-mingw32/bin/../lib/gcc/nios2-elf/4.1.2/../../../../nios2-elf/lib\libc.a(lib_a-__atexit.o)
                              c:/altera/13.0/nios2eds/bin/gnu/h-i686-mingw32/bin/../lib/gcc/nios2-elf/4.1.2/../../../../nios2-elf/lib\libc.a(lib_a-atexit.o) (__register_exitproc)

Allocating common symbols
Common symbol       size              file

soq                 0x14              ../socket_simples_bsp/\libucosii_bsp.a(nptcp.o)
alt_irq             0x100             ../socket_simples_bsp/\libucosii_bsp.a(alt_irq_handler.o)
tcp_optionbuf       0x4               ../socket_simples_bsp/\libucosii_bsp.a(tcp_out.o)
last_flash_sector_offset
                    0x4               obj/default/SSS_DE2_115.o
rt_mib              0x4               ../socket_simples_bsp/\libucosii_bsp.a(ip.o)
so_evtmap_create    0x4               ../socket_simples_bsp/\libucosii_bsp.a(ipport.o)
SSSLEDCommandQ      0x4               obj/default/simple_socket_server.o
OSLockNesting       0x1               ../socket_simples_bsp/\libucosii_bsp.a(os_core.o)
tcb                 0x2c              ../socket_simples_bsp/\libucosii_bsp.a(tcp_subr.o)
OSRunning           0x1               ../socket_simples_bsp/\libucosii_bsp.a(os_core.o)
dhc_states          0xf0              ../socket_simples_bsp/\libucosii_bsp.a(dhcpclnt.o)
tcpstat             0xe0              ../socket_simples_bsp/\libucosii_bsp.a(tcp_subr.o)
OSIdleCtr           0x4               ../socket_simples_bsp/\libucosii_bsp.a(os_core.o)
SSSLEDLightshowSem  0x4               obj/default/simple_socket_server.o
udp_mib             0x10              ../socket_simples_bsp/\libucosii_bsp.a(udp.o)
to_netmain          0x1               ../socket_simples_bsp/\libucosii_bsp.a(netmain.o)
OSPrioHighRdy       0x1               ../socket_simples_bsp/\libucosii_bsp.a(os_core.o)
errno               0x4               c:/altera/13.0/nios2eds/bin/gnu/h-i686-mingw32/bin/../lib/gcc/nios2-elf/4.1.2/../../../../nios2-elf/lib\libc.a(lib_a-int_errno.o)
lilfreeq            0x14              ../socket_simples_bsp/\libucosii_bsp.a(pktalloc.o)
icmp_mib            0x68              ../socket_simples_bsp/\libucosii_bsp.a(icmp.o)
resid_semaphore     0x40              ../socket_simples_bsp/\libucosii_bsp.a(targnios.o)
alt_heapsem         0x4               ../socket_simples_bsp/\libucosii_bsp.a(alt_malloc_lock.o)
OSFlagTbl           0x370             ../socket_simples_bsp/\libucosii_bsp.a(os_core.o)
mbstat              0x8               ../socket_simples_bsp/\libucosii_bsp.a(nptcp.o)
netq_intmask        0x4               ../socket_simples_bsp/\libucosii_bsp.a(osportco.o)
select_wait         0x2               ../socket_simples_bsp/\libucosii_bsp.a(nptcp.o)
tcpmib              0x3c              ../socket_simples_bsp/\libucosii_bsp.a(nptcp.o)
OSPrioCur           0x1               ../socket_simples_bsp/\libucosii_bsp.a(os_core.o)
mheap_sem_ptr       0x4               ../socket_simples_bsp/\libucosii_bsp.a(targnios.o)
netlist             0x14              ../socket_simples_bsp/\libucosii_bsp.a(iface.o)
mbufq               0x14              ../socket_simples_bsp/\libucosii_bsp.a(nptcp.o)
OSTCBList           0x4               ../socket_simples_bsp/\libucosii_bsp.a(os_core.o)
alt_fd_list_lock    0x4               ../socket_simples_bsp/\libucosii_bsp.a(alt_dev.o)
OSMemTbl            0xc30             ../socket_simples_bsp/\libucosii_bsp.a(os_core.o)
OSTickStepState     0x1               ../socket_simples_bsp/\libucosii_bsp.a(os_core.o)
OSTaskStatStk       0x800             ../socket_simples_bsp/\libucosii_bsp.a(os_core.o)
OSCtxSwCtr          0x4               ../socket_simples_bsp/\libucosii_bsp.a(os_core.o)
igmpstats           0x64              ../socket_simples_bsp/\libucosii_bsp.a(igmp_cmn.o)
ire_stats           0x18              ../socket_simples_bsp/\libucosii_bsp.a(ip_reasm.o)
old_mode            0x4               ../socket_simples_bsp/\libucosii_bsp.a(osportco.o)
vfs_dir_stale       0x4               ../socket_simples_bsp/\libucosii_bsp.a(vfsfiles.o)
cticks_factor       0x4               ../socket_simples_bsp/\libucosii_bsp.a(brdutils.o)
g_dm9ka             0x44              obj/default/dm9000a.o
OSIdleCtrMax        0x4               ../socket_simples_bsp/\libucosii_bsp.a(os_core.o)
memestats           0x10              ../socket_simples_bsp/\libucosii_bsp.a(pktalloc.o)
intimers            0x64              ../socket_simples_bsp/\libucosii_bsp.a(timeouts.o)
OSTCBFreeList       0x4               ../socket_simples_bsp/\libucosii_bsp.a(os_core.o)
global_TCPwakeup_setIndx
                    0x4               ../socket_simples_bsp/\libucosii_bsp.a(osportco.o)
SSSInitialTaskStk   0x2000            obj/default/iniche_init.o
rcvdq               0x14              ../socket_simples_bsp/\libucosii_bsp.a(ipnet.o)
global_tcb_ext      0xfc              ../socket_simples_bsp/\libucosii_bsp.a(osportco.o)
netstatic           0x300             ../socket_simples_bsp/\libucosii_bsp.a(ipstart.o)
tcp_maxidle         0x4               ../socket_simples_bsp/\libucosii_bsp.a(tcp_timr.o)
LED7SegLightshowTaskStk
                    0x2000            obj/default/simple_socket_server.o
OSCPUUsage          0x1               ../socket_simples_bsp/\libucosii_bsp.a(os_core.o)
nets                0x10              ../socket_simples_bsp/\libucosii_bsp.a(ipstart.o)
pktlog              0xf0              ../socket_simples_bsp/\libucosii_bsp.a(pktalloc.o)
OSTaskCtr           0x1               ../socket_simples_bsp/\libucosii_bsp.a(os_core.o)
SSSLEDEventFlag     0x4               obj/default/simple_socket_server.o
OSMemFreeList       0x4               ../socket_simples_bsp/\libucosii_bsp.a(os_core.o)
vfs_open_files      0x4               ../socket_simples_bsp/\libucosii_bsp.a(vfsfiles.o)
cticks              0x4               ../socket_simples_bsp/\libucosii_bsp.a(osportco.o)
to_nettick          0x1               ../socket_simples_bsp/\libucosii_bsp.a(netmain.o)
last_flash_sector   0x4               obj/default/SSS_DE2_115.o
OSQTbl              0x1e0             ../socket_simples_bsp/\libucosii_bsp.a(os_core.o)
OSTCBHighRdy        0x4               ../socket_simples_bsp/\libucosii_bsp.a(os_core.o)
OSQFreeList         0x4               ../socket_simples_bsp/\libucosii_bsp.a(os_core.o)
OSRdyGrp            0x1               ../socket_simples_bsp/\libucosii_bsp.a(os_core.o)
ip_mib              0x50              ../socket_simples_bsp/\libucosii_bsp.a(ip.o)
SSSLEDCommandQTbl   0x78              obj/default/simple_socket_server.o
OS_TPS              0x4               ../socket_simples_bsp/\libucosii_bsp.a(brdutils.o)
_atexit0            0x190             c:/altera/13.0/nios2eds/bin/gnu/h-i686-mingw32/bin/../lib/gcc/nios2-elf/4.1.2/../../../../nios2-elf/lib\libc.a(lib_a-atexit.o)
OSRdyTbl            0x3               ../socket_simples_bsp/\libucosii_bsp.a(os_core.o)
igmp_all_hosts_group
                    0x4               ../socket_simples_bsp/\libucosii_bsp.a(igmp_cmn.o)
eth_prt_buf         0x12              ../socket_simples_bsp/\libucosii_bsp.a(in_utils.o)
app_semaphore       0x18              ../socket_simples_bsp/\libucosii_bsp.a(targnios.o)
LEDManagementTaskStk
                    0x2000            obj/default/simple_socket_server.o
rcvdq_sem_ptr       0x4               ../socket_simples_bsp/\libucosii_bsp.a(targnios.o)
OSEventFreeList     0x4               ../socket_simples_bsp/\libucosii_bsp.a(os_core.o)
mfreeq              0x14              ../socket_simples_bsp/\libucosii_bsp.a(nptcp.o)
to_ssstask          0x1               obj/default/iniche_init.o
global_TCPwakeup_set
                    0xf0              ../socket_simples_bsp/\libucosii_bsp.a(osportco.o)
bigfreeq            0x14              ../socket_simples_bsp/\libucosii_bsp.a(pktalloc.o)
so_evtmap_delete    0x4               ../socket_simples_bsp/\libucosii_bsp.a(ipport.o)
tcp_saveti          0x28              ../socket_simples_bsp/\libucosii_bsp.a(tcp_in.o)
OSIntNesting        0x1               ../socket_simples_bsp/\libucosii_bsp.a(os_core.o)
so_evtmap           0x1               ../socket_simples_bsp/\libucosii_bsp.a(ipport.o)
OSTCBCur            0x4               ../socket_simples_bsp/\libucosii_bsp.a(os_core.o)
arp_table           0x100             ../socket_simples_bsp/\libucosii_bsp.a(et_arp.o)
tcp_iss             0x4               ../socket_simples_bsp/\libucosii_bsp.a(tcp_timr.o)
vfs_total_rw_space  0x4               ../socket_simples_bsp/\libucosii_bsp.a(vfsfiles.o)
OSTime              0x4               ../socket_simples_bsp/\libucosii_bsp.a(os_core.o)
OSTaskIdleStk       0x800             ../socket_simples_bsp/\libucosii_bsp.a(os_core.o)
OSEventTbl          0xb40             ../socket_simples_bsp/\libucosii_bsp.a(os_core.o)
vfs_total_dyna_files
                    0x4               ../socket_simples_bsp/\libucosii_bsp.a(vfsfiles.o)
OSTCBTbl            0x510             ../socket_simples_bsp/\libucosii_bsp.a(os_core.o)
ipreturn            0x12              ../socket_simples_bsp/\libucosii_bsp.a(in_utils.o)
OSFlagFreeList      0x4               ../socket_simples_bsp/\libucosii_bsp.a(os_core.o)
dropline            0x4               ../socket_simples_bsp/\libucosii_bsp.a(tcp_in.o)
OSStatRdy           0x1               ../socket_simples_bsp/\libucosii_bsp.a(os_core.o)
OSTCBPrioTbl        0x54              ../socket_simples_bsp/\libucosii_bsp.a(os_core.o)
igmp_all_rtrs_group
                    0x4               ../socket_simples_bsp/\libucosii_bsp.a(igmp_cmn.o)
alt_envsem          0x4               ../socket_simples_bsp/\libucosii_bsp.a(alt_env_lock.o)
OSIdleCtrRun        0x4               ../socket_simples_bsp/\libucosii_bsp.a(os_core.o)

Memory Configuration

Name             Origin             Length             Attributes
sdram_0_BEFORE_EXCEPTION 0x00800000         0x00000020
sdram_0          0x00800020         0x007fffe0
reset            0x01400000         0x00000020
cfi_flash_0      0x01400020         0x003fffe0
sram_0           0x01a00000         0x00080000
epcs_controller  0x01a81800         0x00000800
*default*        0x00000000         0xffffffff

Linker script and memory map

LOAD ../socket_simples_bsp//obj/HAL/src/crt0.o
LOAD obj/default/LCD.o
LOAD obj/default/SSS_DE2_115.o
LOAD obj/default/alt_error_handler.o
LOAD obj/default/dm9000a.o
LOAD obj/default/iniche_init.o
LOAD obj/default/led.o
LOAD obj/default/network_utilities.o
LOAD obj/default/simple_socket_server.o
LOAD obj/default/tse_my_system.o
LOAD c:/altera/13.0/nios2eds/bin/gnu/h-i686-mingw32/bin/../lib/gcc/nios2-elf/4.1.2/../../../../nios2-elf/lib\libstdc++.a
LOAD c:/altera/13.0/nios2eds/bin/gnu/h-i686-mingw32/bin/../lib/gcc/nios2-elf/4.1.2/../../../../nios2-elf/lib\libm.a
LOAD c:/altera/13.0/nios2eds/bin/gnu/h-i686-mingw32/bin/../lib/gcc/nios2-elf/4.1.2\libgcc.a
START GROUP
LOAD c:/altera/13.0/nios2eds/bin/gnu/h-i686-mingw32/bin/../lib/gcc/nios2-elf/4.1.2/../../../../nios2-elf/lib\libc.a
LOAD c:/altera/13.0/nios2eds/bin/gnu/h-i686-mingw32/bin/../lib/gcc/nios2-elf/4.1.2\libgcc.a
LOAD ../socket_simples_bsp/\libucosii_bsp.a
END GROUP
LOAD c:/altera/13.0/nios2eds/bin/gnu/h-i686-mingw32/bin/../lib/gcc/nios2-elf/4.1.2\libgcc.a
                0x00800000                __alt_mem_sdram_0 = 0x800000
                0x01400000                __alt_mem_cfi_flash_0 = 0x1400000
                0x01a00000                __alt_mem_sram_0 = 0x1a00000
                0x01a81800                __alt_mem_epcs_controller = 0x1a81800

.entry          0x01400000        0x0
 *(.entry)
 .entry         0x01400000        0x0 ../socket_simples_bsp//obj/HAL/src/crt0.o
                0x01400000                __reset

.exceptions     0x00800020      0x19c
                0x00800020                PROVIDE (__ram_exceptions_start, ABSOLUTE (.))
                0x00800020                . = ALIGN (0x20)
 *(.irq)
 *(.exceptions.entry.label)
 .exceptions.entry.label
                0x00800020        0x0 ../socket_simples_bsp/\libucosii_bsp.a(alt_irq_entry.o)
                0x00800020                alt_irq_entry
 .exceptions.entry.label
                0x00800020        0x0 ../socket_simples_bsp/\libucosii_bsp.a(alt_exception_entry.o)
                0x00800020                alt_exception
 *(.exceptions.entry.user)
 *(.exceptions.entry)
 .exceptions.entry
                0x00800020       0x54 ../socket_simples_bsp/\libucosii_bsp.a(alt_exception_entry.o)
 *(.exceptions.irqtest.user)
 *(.exceptions.irqtest)
 .exceptions.irqtest
                0x00800074       0x10 ../socket_simples_bsp/\libucosii_bsp.a(alt_irq_entry.o)
 *(.exceptions.irqhandler.user)
 *(.exceptions.irqhandler)
 .exceptions.irqhandler
                0x00800084        0x4 ../socket_simples_bsp/\libucosii_bsp.a(alt_irq_entry.o)
 *(.exceptions.irqreturn.user)
 *(.exceptions.irqreturn)
 .exceptions.irqreturn
                0x00800088        0x4 ../socket_simples_bsp/\libucosii_bsp.a(alt_irq_entry.o)
 *(.exceptions.notirq.label)
 .exceptions.notirq.label
                0x0080008c        0x0 ../socket_simples_bsp/\libucosii_bsp.a(alt_irq_entry.o)
 *(.exceptions.notirq.user)
 *(.exceptions.notirq)
 .exceptions.notirq
                0x0080008c        0x8 ../socket_simples_bsp/\libucosii_bsp.a(alt_exception_entry.o)
 *(.exceptions.soft.user)
 *(.exceptions.soft)
 *(.exceptions.unknown.user)
 *(.exceptions.unknown)
 .exceptions.unknown
                0x00800094        0x4 ../socket_simples_bsp/\libucosii_bsp.a(alt_exception_entry.o)
 *(.exceptions.exit.label)
 .exceptions.exit.label
                0x00800098        0x0 ../socket_simples_bsp/\libucosii_bsp.a(alt_irq_entry.o)
 .exceptions.exit.label
                0x00800098        0x0 ../socket_simples_bsp/\libucosii_bsp.a(alt_exception_entry.o)
 *(.exceptions.exit.user)
 *(.exceptions.exit)
 .exceptions.exit
                0x00800098       0x54 ../socket_simples_bsp/\libucosii_bsp.a(alt_exception_entry.o)
 *(.exceptions)
 .exceptions    0x008000ec       0xd0 ../socket_simples_bsp/\libucosii_bsp.a(alt_irq_handler.o)
                0x008000ec                alt_irq_handler
                0x008001bc                PROVIDE (__ram_exceptions_end, ABSOLUTE (.))
                0x00800020                PROVIDE (__flash_exceptions_start, LOADADDR (.exceptions))

.text           0x008001bc    0x46d4c
                0x008001bc                PROVIDE (stext, ABSOLUTE (.))
 *(.interp)
 *(.hash)
 *(.dynsym)
 *(.dynstr)
 *(.gnu.version)
 *(.gnu.version_d)
 *(.gnu.version_r)
 *(.rel.init)
 *(.rela.init)
 *(.rel.text .rel.text.* .rel.gnu.linkonce.t.*)
 *(.rela.text .rela.text.* .rela.gnu.linkonce.t.*)
 *(.rel.fini)
 *(.rela.fini)
 *(.rel.rodata .rel.rodata.* .rel.gnu.linkonce.r.*)
 *(.rela.rodata .rela.rodata.* .rela.gnu.linkonce.r.*)
 *(.rel.data .rel.data.* .rel.gnu.linkonce.d.*)
 *(.rela.data .rela.data.* .rela.gnu.linkonce.d.*)
 *(.rel.tdata .rel.tdata.* .rel.gnu.linkonce.td.*)
 *(.rela.tdata .rela.tdata.* .rela.gnu.linkonce.td.*)
 *(.rel.tbss .rel.tbss.* .rel.gnu.linkonce.tb.*)
 *(.rela.tbss .rela.tbss.* .rela.gnu.linkonce.tb.*)
 *(.rel.ctors)
 *(.rela.ctors)
 *(.rel.dtors)
 *(.rela.dtors)
 *(.rel.got)
 *(.rela.got)
 *(.rel.sdata .rel.sdata.* .rel.gnu.linkonce.s.*)
 *(.rela.sdata .rela.sdata.* .rela.gnu.linkonce.s.*)
 *(.rel.sbss .rel.sbss.* .rel.gnu.linkonce.sb.*)
 *(.rela.sbss .rela.sbss.* .rela.gnu.linkonce.sb.*)
 *(.rel.sdata2 .rel.sdata2.* .rel.gnu.linkonce.s2.*)
 *(.rela.sdata2 .rela.sdata2.* .rela.gnu.linkonce.s2.*)
 *(.rel.sbss2 .rel.sbss2.* .rel.gnu.linkonce.sb2.*)
 *(.rela.sbss2 .rela.sbss2.* .rela.gnu.linkonce.sb2.*)
 *(.rel.bss .rel.bss.* .rel.gnu.linkonce.b.*)
 *(.rela.bss .rela.bss.* .rela.gnu.linkonce.b.*)
 *(.rel.plt)
 *(.rela.plt)
 *(.rel.dyn)
 *(.init)
 *(.plt)
 *(.text .stub .text.* .gnu.linkonce.t.*)
 .text          0x008001bc       0x48 ../socket_simples_bsp//obj/HAL/src/crt0.o
                0x008001bc                _start
 .text          0x00800204      0x2dc obj/default/LCD.o
                0x00800204                LCD_Init
                0x008002a0                LCD_Show_Text
                0x00800328                LCD_Line2
                0x00800364                LCD_Line1
                0x008003a0                LCD_Clear
                0x008003dc                LCD_Test
 .text          0x008004e0      0x2ec obj/default/SSS_DE2_115.o
                0x008004e0                get_DE2_115_mac_addr
                0x00800688                FindLastFlashSectorOffset
 .text          0x008007cc      0xba8 obj/default/alt_error_handler.o
                0x008007cc                alt_uCOSIIErrorHandler
                0x00800df0                alt_NetworkErrorHandler
                0x00801088                alt_SSSErrorHandler
 .text          0x00801374      0xe48 obj/default/dm9000a.o
                0x00801374                dm9000a_iow
                0x008013c8                dm9000a_ior
                0x00801414                phy_write
                0x008014b0                dm9000a_reset
                0x00801674                TransmitPacket
                0x00801790                prep_dm9000a
                0x008019ac                dm9000a_init
                0x00801dfc                dm9Ka_isr_wrap
                0x00801e3c                dm9ka_init
                0x00801f34                dm9ka_close
                0x00802044                dm9ka_stats
                0x008020a0                dm9ka_pkt_send
 .text          0x008021bc      0x49c obj/default/iniche_init.o
                0x008021bc                SSSInitialTask
                0x0080241c                main
                0x00802518                delay
                0x00802564                toInt
 .text          0x00802658      0x324 obj/default/led.o
                0x00802658                led_bit_toggle
                0x00802724                LED7SegLightshowTask
                0x00802798                LEDManagementTask
 .text          0x0080297c      0x73c obj/default/network_utilities.o
                0x0080297c                get_mac_addr
                0x008029d4                get_ip_addr
                0x00802a40                get_serial_number
                0x00802c1c                generate_and_store_mac_addr
                0x00802de8                generate_mac_addr
                0x00802f24                get_board_mac_addr
 .text          0x008030b8      0x9f8 obj/default/simple_socket_server.o
                0x008030b8                SSSCreateOSDataStructs
                0x00803160                SSSCreateTasks
                0x00803224                sss_reset_connection
                0x00803294                sss_send_menu
                0x00803424                sss_handle_accept
                0x008034e4                sss_exec_command
                0x00803658                sss_handle_receive
                0x00803844                SSSSimpleSocketServerTask
 .text          0x00803ab0        0x0 obj/default/tse_my_system.o
 .text          0x00803ab0       0xa4 c:/altera/13.0/nios2eds/bin/gnu/h-i686-mingw32/bin/../lib/gcc/nios2-elf/4.1.2\libgcc.a(_fixunsdfsi.o)
                0x00803ab0                __fixunsdfsi
 .text          0x00803b54      0x504 c:/altera/13.0/nios2eds/bin/gnu/h-i686-mingw32/bin/../lib/gcc/nios2-elf/4.1.2\libgcc.a(_addsub_df.o)
                0x00803f64                __subdf3
                0x00803fe4                __adddf3
 .text          0x00804058      0x3c4 c:/altera/13.0/nios2eds/bin/gnu/h-i686-mingw32/bin/../lib/gcc/nios2-elf/4.1.2\libgcc.a(_mul_df.o)
                0x00804058                __muldf3
 .text          0x0080441c       0x88 c:/altera/13.0/nios2eds/bin/gnu/h-i686-mingw32/bin/../lib/gcc/nios2-elf/4.1.2\libgcc.a(_ge_df.o)
                0x0080441c                __gedf2
 .text          0x008044a4       0xd8 c:/altera/13.0/nios2eds/bin/gnu/h-i686-mingw32/bin/../lib/gcc/nios2-elf/4.1.2\libgcc.a(_df_to_si.o)
                0x008044a4                __fixdfsi
 .text          0x0080457c        0x0 c:/altera/13.0/nios2eds/bin/gnu/h-i686-mingw32/bin/../lib/gcc/nios2-elf/4.1.2\libgcc.a(_thenan_df.o)
 .text          0x0080457c      0x194 c:/altera/13.0/nios2eds/bin/gnu/h-i686-mingw32/bin/../lib/gcc/nios2-elf/4.1.2\libgcc.a(_usi_to_df.o)
                0x0080457c                __floatunsidf
 .text          0x00804710       0x98 c:/altera/13.0/nios2eds/bin/gnu/h-i686-mingw32/bin/../lib/gcc/nios2-elf/4.1.2\libgcc.a(_muldi3.o)
                0x00804710                __muldi3
 .text          0x008047a8       0x80 c:/altera/13.0/nios2eds/bin/gnu/h-i686-mingw32/bin/../lib/gcc/nios2-elf/4.1.2\libgcc.a(_clzsi2.o)
                0x008047a8                __clzsi2
 .text          0x00804828      0x314 c:/altera/13.0/nios2eds/bin/gnu/h-i686-mingw32/bin/../lib/gcc/nios2-elf/4.1.2\libgcc.a(_pack_df.o)
                0x00804828                __pack_d
 .text          0x00804b3c      0x138 c:/altera/13.0/nios2eds/bin/gnu/h-i686-mingw32/bin/../lib/gcc/nios2-elf/4.1.2\libgcc.a(_unpack_df.o)
                0x00804b3c                __unpack_d
 .text          0x00804c74       0xc8 c:/altera/13.0/nios2eds/bin/gnu/h-i686-mingw32/bin/../lib/gcc/nios2-elf/4.1.2\libgcc.a(_fpcmp_parts_df.o)
                0x00804c74                __fpcmp_parts_d
 .text          0x00804d3c        0x0 c:/altera/13.0/nios2eds/bin/gnu/h-i686-mingw32/bin/../lib/gcc/nios2-elf/4.1.2\libgcc.a(_clz.o)
 .text          0x00804d3c        0x0 c:/altera/13.0/nios2eds/bin/gnu/h-i686-mingw32/bin/../lib/gcc/nios2-elf/4.1.2/../../../../nios2-elf/lib\libc.a(lib_a-ctype_.o)
 .text          0x00804d3c       0x38 c:/altera/13.0/nios2eds/bin/gnu/h-i686-mingw32/bin/../lib/gcc/nios2-elf/4.1.2/../../../../nios2-elf/lib\libc.a(lib_a-exit.o)
                0x00804d3c                exit
 .text          0x00804d74       0x60 c:/altera/13.0/nios2eds/bin/gnu/h-i686-mingw32/bin/../lib/gcc/nios2-elf/4.1.2/../../../../nios2-elf/lib\libc.a(lib_a-fprintf.o)
                0x00804d74                fprintf
                0x00804da0                _fprintf_r
 .text          0x00804dd4       0xdc c:/altera/13.0/nios2eds/bin/gnu/h-i686-mingw32/bin/../lib/gcc/nios2-elf/4.1.2/../../../../nios2-elf/lib\libc.a(lib_a-fwrite.o)
                0x00804dd4                _fwrite_r
                0x00804e70                fwrite
 .text          0x00804eb0      0x128 c:/altera/13.0/nios2eds/bin/gnu/h-i686-mingw32/bin/../lib/gcc/nios2-elf/4.1.2/../../../../nios2-elf/lib\libc.a(lib_a-getc.o)
                0x00804eb0                getc
                0x00804f48                _getc_r
 .text          0x00804fd8        0x0 c:/altera/13.0/nios2eds/bin/gnu/h-i686-mingw32/bin/../lib/gcc/nios2-elf/4.1.2/../../../../nios2-elf/lib\libc.a(lib_a-impure.o)
 .text          0x00804fd8       0xa0 c:/altera/13.0/nios2eds/bin/gnu/h-i686-mingw32/bin/../lib/gcc/nios2-elf/4.1.2/../../../../nios2-elf/lib\libc.a(lib_a-memcpy.o)
                0x00804fd8                memcpy
 .text          0x00805078       0xe0 c:/altera/13.0/nios2eds/bin/gnu/h-i686-mingw32/bin/../lib/gcc/nios2-elf/4.1.2/../../../../nios2-elf/lib\libc.a(lib_a-memmove.o)
                0x00805078                memmove
 .text          0x00805158       0x98 c:/altera/13.0/nios2eds/bin/gnu/h-i686-mingw32/bin/../lib/gcc/nios2-elf/4.1.2/../../../../nios2-elf/lib\libc.a(lib_a-memset.o)
                0x00805158                memset
 .text          0x008051f0       0x80 c:/altera/13.0/nios2eds/bin/gnu/h-i686-mingw32/bin/../lib/gcc/nios2-elf/4.1.2/../../../../nios2-elf/lib\libc.a(lib_a-perror.o)
                0x008051f0                _perror_r
                0x0080525c                perror
 .text          0x00805270       0x78 c:/altera/13.0/nios2eds/bin/gnu/h-i686-mingw32/bin/../lib/gcc/nios2-elf/4.1.2/../../../../nios2-elf/lib\libc.a(lib_a-printf.o)
                0x00805270                printf
                0x008052b4                _printf_r
 .text          0x008052e8      0x1ec c:/altera/13.0/nios2eds/bin/gnu/h-i686-mingw32/bin/../lib/gcc/nios2-elf/4.1.2/../../../../nios2-elf/lib\libc.a(lib_a-putc.o)
                0x008052e8                putc
                0x008053ec                _putc_r
 .text          0x008054d4       0x24 c:/altera/13.0/nios2eds/bin/gnu/h-i686-mingw32/bin/../lib/gcc/nios2-elf/4.1.2/../../../../nios2-elf/lib\libc.a(lib_a-putchar.o)
                0x008054d4                putchar
                0x008054f0                _putchar_r
 .text          0x008054f8       0xb4 c:/altera/13.0/nios2eds/bin/gnu/h-i686-mingw32/bin/../lib/gcc/nios2-elf/4.1.2/../../../../nios2-elf/lib\libc.a(lib_a-puts.o)
                0x008054f8                _puts_r
                0x00805598                puts
 .text          0x008055ac       0x60 c:/altera/13.0/nios2eds/bin/gnu/h-i686-mingw32/bin/../lib/gcc/nios2-elf/4.1.2/../../../../nios2-elf/lib\libc.a(lib_a-rget.o)
                0x008055ac                __srget_r
                0x008055f8                __srget
 .text          0x0080560c       0xe0 c:/altera/13.0/nios2eds/bin/gnu/h-i686-mingw32/bin/../lib/gcc/nios2-elf/4.1.2/../../../../nios2-elf/lib\libc.a(lib_a-strchr.o)
                0x0080560c                strchr
 .text          0x008056ec      0x674 c:/altera/13.0/nios2eds/bin/gnu/h-i686-mingw32/bin/../lib/gcc/nios2-elf/4.1.2/../../../../nios2-elf/lib\libc.a(lib_a-strerror.o)
                0x008056ec                strerror
 .text          0x00805d60       0x74 c:/altera/13.0/nios2eds/bin/gnu/h-i686-mingw32/bin/../lib/gcc/nios2-elf/4.1.2/../../../../nios2-elf/lib\libc.a(lib_a-strlen.o)
                0x00805d60                strlen
 .text          0x00805dd4        0x8 c:/altera/13.0/nios2eds/bin/gnu/h-i686-mingw32/bin/../lib/gcc/nios2-elf/4.1.2/../../../../nios2-elf/lib\libc.a(lib_a-u_strerr.o)
                0x00805dd4                _user_strerror
 .text          0x00805ddc     0x1f28 c:/altera/13.0/nios2eds/bin/gnu/h-i686-mingw32/bin/../lib/gcc/nios2-elf/4.1.2/../../../../nios2-elf/lib\libc.a(lib_a-vfprintf.o)
                0x00805e34                ___vfprintf_internal_r
                0x00807ce0                __vfprintf_internal
 .text          0x00807d04      0x14c c:/altera/13.0/nios2eds/bin/gnu/h-i686-mingw32/bin/../lib/gcc/nios2-elf/4.1.2/../../../../nios2-elf/lib\libc.a(lib_a-wbuf.o)
                0x00807d04                __swbuf_r
                0x00807e34                __swbuf
 .text          0x00807e50      0x13c c:/altera/13.0/nios2eds/bin/gnu/h-i686-mingw32/bin/../lib/gcc/nios2-elf/4.1.2/../../../../nios2-elf/lib\libc.a(lib_a-wsetup.o)
                0x00807e50                __swsetup_r
 .text          0x00807f8c      0x1b4 c:/altera/13.0/nios2eds/bin/gnu/h-i686-mingw32/bin/../lib/gcc/nios2-elf/4.1.2/../../../../nios2-elf/lib\libc.a(lib_a-__call_atexit.o)
                0x00807f90                __call_exitprocs
 .text          0x00808140     0x17cc c:/altera/13.0/nios2eds/bin/gnu/h-i686-mingw32/bin/../lib/gcc/nios2-elf/4.1.2/../../../../nios2-elf/lib\libc.a(lib_a-dtoa.o)
                0x00808358                _dtoa_r
 .text          0x0080990c      0x230 c:/altera/13.0/nios2eds/bin/gnu/h-i686-mingw32/bin/../lib/gcc/nios2-elf/4.1.2/../../../../nios2-elf/lib\libc.a(lib_a-fflush.o)
                0x0080990c                _fflush_r
                0x00809b08                fflush
 .text          0x00809b3c      0x2c0 c:/altera/13.0/nios2eds/bin/gnu/h-i686-mingw32/bin/../lib/gcc/nios2-elf/4.1.2/../../../../nios2-elf/lib\libc.a(lib_a-findfp.o)
                0x00809b94                __sfp_lock_acquire
                0x00809b98                __sfp_lock_release
                0x00809b9c                __sinit_lock_acquire
                0x00809ba0                __sinit_lock_release
                0x00809ba4                __sinit
                0x00809c58                __fp_unlock_all
                0x00809c70                __fp_lock_all
                0x00809c88                _cleanup_r
                0x00809c94                _cleanup
                0x00809ca4                __sfmoreglue
                0x00809d0c                __sfp
 .text          0x00809dfc       0xbc c:/altera/13.0/nios2eds/bin/gnu/h-i686-mingw32/bin/../lib/gcc/nios2-elf/4.1.2/../../../../nios2-elf/lib\libc.a(lib_a-fputc.o)
                0x00809dfc                fputc
                0x00809e60                _fputc_r
 .text          0x00809eb8       0x90 c:/altera/13.0/nios2eds/bin/gnu/h-i686-mingw32/bin/../lib/gcc/nios2-elf/4.1.2/../../../../nios2-elf/lib\libc.a(lib_a-fputs.o)
                0x00809eb8                _fputs_r
                0x00809f2c                fputs
 .text          0x00809f48      0x440 c:/altera/13.0/nios2eds/bin/gnu/h-i686-mingw32/bin/../lib/gcc/nios2-elf/4.1.2/../../../../nios2-elf/lib\libc.a(lib_a-freer.o)
                0x00809f48                _malloc_trim_r
                0x0080a074                _free_r
 .text          0x0080a388      0x49c c:/altera/13.0/nios2eds/bin/gnu/h-i686-mingw32/bin/../lib/gcc/nios2-elf/4.1.2/../../../../nios2-elf/lib\libc.a(lib_a-fvwrite.o)
                0x0080a388                __sfvwrite_r
 .text          0x0080a824      0x180 c:/altera/13.0/nios2eds/bin/gnu/h-i686-mingw32/bin/../lib/gcc/nios2-elf/4.1.2/../../../../nios2-elf/lib\libc.a(lib_a-fwalk.o)
                0x0080a824                _fwalk_reent
                0x0080a8ec                _fwalk
 .text          0x0080a9a4       0xc4 c:/altera/13.0/nios2eds/bin/gnu/h-i686-mingw32/bin/../lib/gcc/nios2-elf/4.1.2/../../../../nios2-elf/lib\libc.a(lib_a-locale.o)
                0x0080a9a4                __locale_charset
                0x0080a9ac                _localeconv_r
                0x0080a9b8                localeconv
                0x0080a9c8                _setlocale_r
                0x0080aa4c                setlocale
 .text          0x0080aa68      0x194 c:/altera/13.0/nios2eds/bin/gnu/h-i686-mingw32/bin/../lib/gcc/nios2-elf/4.1.2/../../../../nios2-elf/lib\libc.a(lib_a-makebuf.o)
                0x0080aa68                __smakebuf_r
 .text          0x0080abfc      0x740 c:/altera/13.0/nios2eds/bin/gnu/h-i686-mingw32/bin/../lib/gcc/nios2-elf/4.1.2/../../../../nios2-elf/lib\libc.a(lib_a-mallocr.o)
                0x0080abfc                _malloc_r
 .text          0x0080b33c       0xe4 c:/altera/13.0/nios2eds/bin/gnu/h-i686-mingw32/bin/../lib/gcc/nios2-elf/4.1.2/../../../../nios2-elf/lib\libc.a(lib_a-memchr.o)
                0x0080b33c                memchr
 .text          0x0080b420      0xff4 c:/altera/13.0/nios2eds/bin/gnu/h-i686-mingw32/bin/../lib/gcc/nios2-elf/4.1.2/../../../../nios2-elf/lib\libc.a(lib_a-mprec.o)
                0x0080b420                _Bfree
                0x0080b448                __hi0bits
                0x0080b4b8                __lo0bits
                0x0080b57c                __mcmp
                0x0080b5dc                __ulp
                0x0080b65c                __b2d
                0x0080b77c                __ratio
                0x0080b82c                _mprec_log10
                0x0080b8c0                __copybits
                0x0080b918                __any_on
                0x0080b9a0                _Balloc
                0x0080ba5c                __d2b
                0x0080bbd8                __mdiff
                0x0080bd64                __lshift
                0x0080beb0                __multiply
                0x0080c098                __i2b
                0x0080c0d4                __multadd
                0x0080c1d4                __pow5mult
                0x0080c2f4                __s2b
 .text          0x0080c414      0x5f4 c:/altera/13.0/nios2eds/bin/gnu/h-i686-mingw32/bin/../lib/gcc/nios2-elf/4.1.2/../../../../nios2-elf/lib\libc.a(lib_a-reallocr.o)
                0x0080c414                _realloc_r
 .text          0x0080ca08      0x1e0 c:/altera/13.0/nios2eds/bin/gnu/h-i686-mingw32/bin/../lib/gcc/nios2-elf/4.1.2/../../../../nios2-elf/lib\libc.a(lib_a-refill.o)
                0x0080ca08                __srefill_r
 .text          0x0080cbe8       0x40 c:/altera/13.0/nios2eds/bin/gnu/h-i686-mingw32/bin/../lib/gcc/nios2-elf/4.1.2/../../../../nios2-elf/lib\libc.a(lib_a-s_isinfd.o)
                0x0080cbe8                __isinfd
 .text          0x0080cc28       0x30 c:/altera/13.0/nios2eds/bin/gnu/h-i686-mingw32/bin/../lib/gcc/nios2-elf/4.1.2/../../../../nios2-elf/lib\libc.a(lib_a-s_isnand.o)
                0x0080cc28                __isnand
 .text          0x0080cc58       0x70 c:/altera/13.0/nios2eds/bin/gnu/h-i686-mingw32/bin/../lib/gcc/nios2-elf/4.1.2/../../../../nios2-elf/lib\libc.a(lib_a-sbrkr.o)
                0x0080cc58                _sbrk_r
 .text          0x0080ccc8      0x14c c:/altera/13.0/nios2eds/bin/gnu/h-i686-mingw32/bin/../lib/gcc/nios2-elf/4.1.2/../../../../nios2-elf/lib\libc.a(lib_a-stdio.o)
                0x0080ccc8                __sclose
                0x0080ccd0                __sseek
                0x0080cd38                __swrite
                0x0080cdb4                __sread
 .text          0x0080ce14       0xbc c:/altera/13.0/nios2eds/bin/gnu/h-i686-mingw32/bin/../lib/gcc/nios2-elf/4.1.2/../../../../nios2-elf/lib\libc.a(lib_a-strcmp.o)
                0x0080ce14                strcmp
 .text          0x0080ced0       0x78 c:/altera/13.0/nios2eds/bin/gnu/h-i686-mingw32/bin/../lib/gcc/nios2-elf/4.1.2/../../../../nios2-elf/lib\libc.a(lib_a-writer.o)
                0x0080ced0                _write_r
 .text          0x0080cf48       0xb4 c:/altera/13.0/nios2eds/bin/gnu/h-i686-mingw32/bin/../lib/gcc/nios2-elf/4.1.2/../../../../nios2-elf/lib\libc.a(lib_a-callocr.o)
                0x0080cf48                _calloc_r
 .text          0x0080cffc       0x70 c:/altera/13.0/nios2eds/bin/gnu/h-i686-mingw32/bin/../lib/gcc/nios2-elf/4.1.2/../../../../nios2-elf/lib\libc.a(lib_a-closer.o)
                0x0080cffc                _close_r
 .text          0x0080d06c      0x124 c:/altera/13.0/nios2eds/bin/gnu/h-i686-mingw32/bin/../lib/gcc/nios2-elf/4.1.2/../../../../nios2-elf/lib\libc.a(lib_a-fclose.o)
                0x0080d06c                _fclose_r
                0x0080d17c                fclose
 .text          0x0080d190       0x74 c:/altera/13.0/nios2eds/bin/gnu/h-i686-mingw32/bin/../lib/gcc/nios2-elf/4.1.2/../../../../nios2-elf/lib\libc.a(lib_a-fstatr.o)
                0x0080d190                _fstat_r
 .text          0x0080d204        0x0 c:/altera/13.0/nios2eds/bin/gnu/h-i686-mingw32/bin/../lib/gcc/nios2-elf/4.1.2/../../../../nios2-elf/lib\libc.a(lib_a-int_errno.o)
 .text          0x0080d204       0x70 c:/altera/13.0/nios2eds/bin/gnu/h-i686-mingw32/bin/../lib/gcc/nios2-elf/4.1.2/../../../../nios2-elf/lib\libc.a(lib_a-isattyr.o)
                0x0080d204                _isatty_r
 .text          0x0080d274       0x78 c:/altera/13.0/nios2eds/bin/gnu/h-i686-mingw32/bin/../lib/gcc/nios2-elf/4.1.2/../../../../nios2-elf/lib\libc.a(lib_a-lseekr.o)
                0x0080d274                _lseek_r
 .text          0x0080d2ec       0x78 c:/altera/13.0/nios2eds/bin/gnu/h-i686-mingw32/bin/../lib/gcc/nios2-elf/4.1.2/../../../../nios2-elf/lib\libc.a(lib_a-readr.o)
                0x0080d2ec                _read_r
 .text          0x0080d364      0x5dc c:/altera/13.0/nios2eds/bin/gnu/h-i686-mingw32/bin/../lib/gcc/nios2-elf/4.1.2\libgcc.a(_udivdi3.o)
                0x0080d364                __udivdi3
 .text          0x0080d940      0x5b0 c:/altera/13.0/nios2eds/bin/gnu/h-i686-mingw32/bin/../lib/gcc/nios2-elf/4.1.2\libgcc.a(_umoddi3.o)
                0x0080d940                __umoddi3
 .text          0x0080def0      0x258 c:/altera/13.0/nios2eds/bin/gnu/h-i686-mingw32/bin/../lib/gcc/nios2-elf/4.1.2\libgcc.a(_div_df.o)
                0x0080def0                __divdf3
 .text          0x0080e148       0x88 c:/altera/13.0/nios2eds/bin/gnu/h-i686-mingw32/bin/../lib/gcc/nios2-elf/4.1.2\libgcc.a(_eq_df.o)
                0x0080e148                __eqdf2
 .text          0x0080e1d0       0x88 c:/altera/13.0/nios2eds/bin/gnu/h-i686-mingw32/bin/../lib/gcc/nios2-elf/4.1.2\libgcc.a(_ne_df.o)
                0x0080e1d0                __nedf2
 .text          0x0080e258       0x88 c:/altera/13.0/nios2eds/bin/gnu/h-i686-mingw32/bin/../lib/gcc/nios2-elf/4.1.2\libgcc.a(_gt_df.o)
                0x0080e258                __gtdf2
 .text          0x0080e2e0       0x88 c:/altera/13.0/nios2eds/bin/gnu/h-i686-mingw32/bin/../lib/gcc/nios2-elf/4.1.2\libgcc.a(_lt_df.o)
                0x0080e2e0                __ltdf2
 .text          0x0080e368       0xf8 c:/altera/13.0/nios2eds/bin/gnu/h-i686-mingw32/bin/../lib/gcc/nios2-elf/4.1.2\libgcc.a(_si_to_df.o)
                0x0080e368                __floatsidf
 .text          0x0080e460      0x14c c:/altera/13.0/nios2eds/bin/gnu/h-i686-mingw32/bin/../lib/gcc/nios2-elf/4.1.2\libgcc.a(lib2-divmod.o)
                0x0080e4dc                __divsi3
                0x0080e53c                __modsi3
                0x0080e59c                __udivsi3
                0x0080e5a4                __umodsi3
 .text          0x0080e5ac       0x6c ../socket_simples_bsp/\libucosii_bsp.a(alt_exit.o)
                0x0080e5ec                _exit
 .text          0x0080e618       0xd0 ../socket_simples_bsp/\libucosii_bsp.a(alt_flash_dev.o)
                0x0080e618                alt_flash_open_dev
                0x0080e694                alt_flash_close_dev
 .text          0x0080e6e8      0x134 ../socket_simples_bsp/\libucosii_bsp.a(alt_fstat.o)
                0x0080e6e8                fstat
 .text          0x0080e81c      0x1c0 ../socket_simples_bsp/\libucosii_bsp.a(alt_irq_register.o)
                0x0080e81c                alt_irq_register
 .text          0x0080e9dc        0x0 ../socket_simples_bsp/\libucosii_bsp.a(alt_irq_vars.o)
 .text          0x0080e9dc      0x120 ../socket_simples_bsp/\libucosii_bsp.a(alt_isatty.o)
                0x0080e9dc                isatty
 .text          0x0080eafc      0x150 ../socket_simples_bsp/\libucosii_bsp.a(alt_lseek.o)
                0x0080eafc                lseek
 .text          0x0080ec4c       0xc8 ../socket_simples_bsp/\libucosii_bsp.a(alt_main.o)
                0x0080ec4c                alt_main
 .text          0x0080ed14       0xbc ../socket_simples_bsp/\libucosii_bsp.a(alt_sbrk.o)
                0x0080ed14                sbrk
 .text          0x0080edd0      0x118 ../socket_simples_bsp/\libucosii_bsp.a(alt_usleep.o)
                0x0080edd0                usleep
 .text          0x0080eee8      0x108 ../socket_simples_bsp/\libucosii_bsp.a(alt_env_lock.o)
                0x0080eee8                __env_lock
                0x0080ef94                __env_unlock
 .text          0x0080eff0      0x1d8 ../socket_simples_bsp/\libucosii_bsp.a(alt_malloc_lock.o)
                0x0080eff0                __malloc_lock
                0x0080f0f8                __malloc_unlock
 .text          0x0080f1c8     0x2128 ../socket_simples_bsp/\libucosii_bsp.a(os_core.o)
                0x0080f1c8                OSEventNameGet
                0x0080f2f8                OSEventNameSet
                0x0080f43c                OSEventPendMulti
                0x0080faf0                OSInit
                0x0080fb44                OSIntEnter
                0x0080fbc0                OSIntExit
                0x0080fcc0                OSSchedLock
                0x0080fd4c                OSSchedUnlock
                0x0080fe30                OSStart
                0x0080fea0                OSStatInit
                0x0080ff4c                OSTimeTick
                0x0081018c                OSVersion
                0x008101ac                OS_Dummy
                0x008101c8                OS_EventTaskRdy
                0x0081035c                OS_EventTaskWait
                0x0081046c                OS_EventTaskWaitMulti
                0x008105c0                OS_EventTaskRemove
                0x00810678                OS_EventTaskRemoveMulti
                0x0081077c                OS_EventWaitListInit
                0x00810b48                OS_MemClr
                0x00810b9c                OS_MemCopy
                0x00810c08                OS_Sched
                0x00810d4c                OS_StrCopy
                0x00810dcc                OS_StrLen
                0x00810e24                OS_TaskIdle
                0x00810e80                OS_TaskStat
                0x00810f48                OS_TaskStatStkChk
                0x00811010                OS_TCBInit
 .text          0x008112f0      0x18c ../socket_simples_bsp/\libucosii_bsp.a(os_dbg.o)
                0x008112f0                OSDebugInit
 .text          0x0081147c     0x193c ../socket_simples_bsp/\libucosii_bsp.a(os_flag.o)
                0x0081147c                OSFlagAccept
                0x008117b0                OSFlagCreate
                0x008118ec                OSFlagDel
                0x00811b94                OSFlagNameGet
                0x00811cd8                OSFlagNameSet
                0x00811e2c                OSFlagPend
                0x00812470                OSFlagPendGetFlagsRdy
                0x008124d8                OSFlagPost
                0x00812880                OSFlagQuery
                0x00812b18                OS_FlagInit
                0x00812d0c                OS_FlagUnlink
 .text          0x00812db8      0x808 ../socket_simples_bsp/\libucosii_bsp.a(os_mem.o)
                0x00812db8                OSMemCreate
                0x00812fd4                OSMemGet
                0x008130d8                OSMemNameGet
                0x008131e4                OSMemNameSet
                0x00813304                OSMemPut
                0x008133f4                OSMemQuery
                0x008134f0                OS_MemInit
 .text          0x008135c0     0x1334 ../socket_simples_bsp/\libucosii_bsp.a(os_q.o)
                0x008135c0                OSQAccept
                0x00813714                OSQCreate
                0x00813928                OSQDel
                0x00813c28                OSQFlush
                0x00813cf0                OSQPend
                0x00814010                OSQPendAbort
                0x0081418c                OSQPost
                0x0081430c                OSQPostFront
                0x00814494                OSQPostOpt
                0x008146c8                OSQQuery
                0x00814848                OS_QInit
 .text          0x008148f4      0xbc8 ../socket_simples_bsp/\libucosii_bsp.a(os_sem.o)
                0x008148f4                OSSemAccept
                0x008149b4                OSSemCreate
                0x00814ac8                OSSemDel
                0x00814d68                OSSemPend
                0x00814fe4                OSSemPendAbort
                0x00815160                OSSemPost
                0x00815288                OSSemQuery
                0x008153b8                OSSemSet
 .text          0x008154bc     0x1a40 ../socket_simples_bsp/\libucosii_bsp.a(os_task.o)
                0x008154bc                OSTaskChangePrio
                0x00815a30                OSTaskCreate
                0x00815c04                OSTaskCreateExt
                0x00815e04                OSTaskDel
                0x00816210                OSTaskDelReq
                0x00816380                OSTaskNameGet
                0x00816538                OSTaskNameSet
                0x008166fc                OSTaskResume
                0x00816914                OSTaskStkChk
                0x00816b10                OSTaskSuspend
                0x00816d3c                OSTaskQuery
                0x00816e80                OS_TaskStkClr
 .text          0x00816efc      0x670 ../socket_simples_bsp/\libucosii_bsp.a(os_time.o)
                0x00816efc                OSTimeDly
                0x00817048                OSTimeDlyHMSM
                0x00817294                OSTimeDlyResume
                0x008174a4                OSTimeGet
                0x00817508                OSTimeSet
 .text          0x0081756c      0x118 ../socket_simples_bsp/\libucosii_bsp.a(alt_sys_init.o)
                0x0081756c                alt_irq_init
                0x008175a0                alt_sys_init
 .text          0x00817684      0x8c8 ../socket_simples_bsp/\libucosii_bsp.a(altera_avalon_cfi_flash.o)
                0x00817684                alt_flash_cfi_init
                0x00817758                alt_flash_cfi_write
                0x00817a18                alt_flash_cfi_get_info
                0x00817aa8                alt_flash_cfi_read
                0x00817b10                alt_write_value_to_flash
                0x00817c74                alt_flash_program_block
 .text          0x00817f4c     0x14a8 ../socket_simples_bsp/\libucosii_bsp.a(altera_avalon_cfi_flash_table.o)
                0x00817f4c                alt_read_query_entry_8bit
                0x00817f8c                alt_read_query_entry_16bit
                0x00817fd0                alt_read_query_entry_32bit
                0x00818018                alt_write_flash_command_8bit_device_8bit_mode
                0x00818054                alt_write_flash_command_16bit_device_8bit_mode
                0x008180d0                alt_write_flash_command_32bit_device_8bit_mode
                0x00818118                alt_write_flash_command_16bit_device_16bit_mode
                0x0081815c                alt_write_flash_command_32bit_device_16bit_mode
                0x008181a4                alt_write_flash_command_32bit_device_32bit_mode
                0x008181ec                alt_write_native_8bit
                0x00818220                alt_write_native_16bit
                0x00818254                alt_write_native_32bit
                0x00818284                alt_set_flash_width_func
                0x00818464                alt_set_flash_algorithm_func
                0x0081858c                alt_read_cfi_table
                0x00818b6c                alt_read_cfi_width
                0x00819318                alt_check_primary_table
 .text          0x008193f4      0x9e4 ../socket_simples_bsp/\libucosii_bsp.a(altera_avalon_epcs_flash_controller.o)
                0x008193f4                alt_epcs_flash_init
                0x00819810                alt_epcs_flash_write
                0x00819a90                alt_epcs_flash_get_info
                0x00819b20                alt_epcs_flash_erase_block
                0x00819c24                alt_epcs_flash_write_block
                0x00819d40                alt_epcs_flash_read
 .text          0x00819dd8      0x148 ../socket_simples_bsp/\libucosii_bsp.a(altera_avalon_jtag_uart_fd.o)
                0x00819dd8                altera_avalon_jtag_uart_read_fd
                0x00819e30                altera_avalon_jtag_uart_write_fd
                0x00819e88                altera_avalon_jtag_uart_close_fd
                0x00819ed0                altera_avalon_jtag_uart_ioctl_fd
 .text          0x00819f20      0x584 ../socket_simples_bsp/\libucosii_bsp.a(altera_avalon_jtag_uart_init.o)
                0x00819f20                altera_avalon_jtag_uart_init
                0x0081a430                altera_avalon_jtag_uart_close
 .text          0x0081a4a4       0xf4 ../socket_simples_bsp/\libucosii_bsp.a(altera_avalon_jtag_uart_ioctl.o)
                0x0081a4a4                altera_avalon_jtag_uart_ioctl
 .text          0x0081a598      0x2c0 ../socket_simples_bsp/\libucosii_bsp.a(altera_avalon_jtag_uart_read.o)
                0x0081a598                altera_avalon_jtag_uart_read
 .text          0x0081a858      0x2dc ../socket_simples_bsp/\libucosii_bsp.a(altera_avalon_jtag_uart_write.o)
                0x0081a858                altera_avalon_jtag_uart_write
 .text          0x0081ab34      0xf3c ../socket_simples_bsp/\libucosii_bsp.a(altera_avalon_lcd_16207.o)
                0x0081b308                altera_avalon_lcd_16207_write
                0x0081b90c                altera_avalon_lcd_16207_init
 .text          0x0081ba70       0x58 ../socket_simples_bsp/\libucosii_bsp.a(altera_avalon_lcd_16207_fd.o)
                0x0081ba70                altera_avalon_lcd_16207_write_fd
 .text          0x0081bac8      0x100 ../socket_simples_bsp/\libucosii_bsp.a(altera_avalon_timer_sc.o)
                0x0081bb38                alt_avalon_timer_sc_init
 .text          0x0081bbc8       0xf8 ../socket_simples_bsp/\libucosii_bsp.a(altera_avalon_uart_fd.o)
                0x0081bbc8                altera_avalon_uart_read_fd
                0x0081bc20                altera_avalon_uart_write_fd
                0x0081bc78                altera_avalon_uart_close_fd
 .text          0x0081bcc0      0x57c ../socket_simples_bsp/\libucosii_bsp.a(altera_avalon_uart_init.o)
                0x0081bcc0                altera_avalon_uart_init
                0x0081c1dc                altera_avalon_uart_close
 .text          0x0081c23c      0x310 ../socket_simples_bsp/\libucosii_bsp.a(altera_avalon_uart_read.o)
                0x0081c23c                altera_avalon_uart_read
 .text          0x0081c54c      0x2a8 ../socket_simples_bsp/\libucosii_bsp.a(altera_avalon_uart_write.o)
                0x0081c54c                altera_avalon_uart_write
 .text          0x0081c7f4      0x6d4 ../socket_simples_bsp/\libucosii_bsp.a(epcs_commands.o)
                0x0081c7f4                epcs_read_status_register
                0x0081c854                epcs_sector_erase
                0x0081c9bc                epcs_read_buffer
                0x0081cb08                epcs_write_enable
                0x0081cb58                epcs_write_status_register
                0x0081cbbc                epcs_write_buffer
                0x0081cd2c                epcs_read_electronic_signature
                0x0081cd98                epcs_read_device_id
                0x0081ce18                epcs_enter_4_bytes_mode
                0x0081ce70                epcs_exit_4_bytes_mode
 .text          0x0081cec8       0x54 ../socket_simples_bsp/\libucosii_bsp.a(alt_iniche_close.o)
                0x0081cec8                close
 .text          0x0081cf1c      0x144 ../socket_simples_bsp/\libucosii_bsp.a(alt_iniche_dev.o)
                0x0081cf1c                iniche_devices_init
 .text          0x0081d060       0x78 ../socket_simples_bsp/\libucosii_bsp.a(alt_iniche_read.o)
                0x0081d060                read
 .text          0x0081d0d8       0x70 ../socket_simples_bsp/\libucosii_bsp.a(alt_iniche_write.o)
                0x0081d0d8                write
 .text          0x0081d148      0xedc ../socket_simples_bsp/\libucosii_bsp.a(ipnet.o)
                0x0081d148                Netinit
                0x0081d794                fixup_subnet_mask
                0x0081d8f4                netclose
                0x0081d9dc                pktdemux
                0x0081ddb0                c_older
                0x0081de80                ip2mac
 .text          0x0081e024      0x4b0 ../socket_simples_bsp/\libucosii_bsp.a(ipstart.o)
                0x0081e024                ip_startup
                0x0081e308                exit_hook
                0x0081e374                ip_exit
                0x0081e444                if_netnumber
 .text          0x0081e4d4     0x10e8 ../socket_simples_bsp/\libucosii_bsp.a(igmp_cmn.o)
                0x0081e4d4                igmp_init
                0x0081e5c4                igmp_input
                0x0081e6bc                igmp_fasttimo
                0x0081e8f0                igmp_send
                0x0081eb98                igmp_joingroup
                0x0081ee04                igmp_leavegroup
                0x0081ee80                igmp_validate
                0x0081f1dc                igmp_print_stats
 .text          0x0081f5bc      0xbc8 ../socket_simples_bsp/\libucosii_bsp.a(bsdsock.o)
                0x0081f5bc                bsd_accept
                0x0081f6f4                bsd_getpeername
                0x0081f820                bsd_getsockname
                0x0081f94c                bsd_i_sockoptlen
                0x0081fb04                bsd_getsockopt
                0x0081fc24                bsd_ioctl
                0x0081fd28                bsd_inet_ntoa
                0x0081fd58                bsd_recvfrom
                0x0081feb8                bsd_select
                0x00820098                bsd_setsockopt
 .text          0x00820184      0x118 ../socket_simples_bsp/\libucosii_bsp.a(cksum.o)
                0x00820184                ccksum
                0x00820234                cksum
 .text          0x0082029c      0xa9c ../socket_simples_bsp/\libucosii_bsp.a(in_utils.o)
                0x0082029c                do_trap
                0x008202c8                nextarg
                0x00820344                hexdump
                0x0082048c                print_ipad
                0x00820500                print_uptime
                0x0082062c                panic
                0x00820670                print_eth
                0x008207d4                uslash
                0x00820854                ns_printf
                0x008209d8                std_out
                0x00820a1c                con_page
                0x00820b0c                parse_args
 .text          0x00820d38      0x1c8 ../socket_simples_bsp/\libucosii_bsp.a(netmain.o)
                0x00820d38                netmain
                0x00820e2c                tk_netmain
                0x00820eb4                tk_nettick
 .text          0x00820f00      0x810 ../socket_simples_bsp/\libucosii_bsp.a(parseip.o)
                0x00820f00                parse_ipad
                0x0082121c                inet_addr
                0x00821284                hextoa
                0x008212f4                inet_pton
                0x008213a0                inet_ntop
                0x0082142c                print46_addr
                0x0082148c                inet46_addr
                0x00821550                inet_setport
                0x008215c4                convert_ip
 .text          0x00821710      0x5e8 ../socket_simples_bsp/\libucosii_bsp.a(tk_crnos.o)
                0x00821710                TK_OSTimeDly
                0x0082173c                TK_OSTaskResume
                0x008217ac                tcp_sleep
                0x0082194c                tcp_wakeup
                0x00821a50                TK_OSTaskQuery
                0x00821ac4                tk_yield
                0x00821af0                tk_stats
 .text          0x00821cf8     0x3294 ../socket_simples_bsp/\libucosii_bsp.a(dhcpclnt.o)
                0x00821cf8                dhc_get_srv_ipaddr
                0x00821d88                dhc_init
                0x00821e44                dhc_set_callback
                0x00821e88                dhc_upcall
                0x008226b8                dhc_buildheader
                0x008228d4                dhc_discover
                0x00822dec                dhc_rx_offer
                0x00822ef0                dhc_request
                0x00823a2c                dhc_setip
                0x00823cac                dhc_resetip
                0x00823d90                dhc_decline
                0x00823f74                dhc_extract_opts
                0x00824230                dhc_second
                0x00824b20                dhc_halt
                0x00824ba8                dhc_reclaim
                0x00824d78                dhc_state_init
                0x00824dd8                dhc_alldone
                0x00824e68                dhc_ifacedone
                0x00824edc                dhc_set_state
 .text          0x00824f8c       0xcc ../socket_simples_bsp/\libucosii_bsp.a(dhcputil.o)
                0x00824f8c                find_opt
 .text          0x00825058      0x79c ../socket_simples_bsp/\libucosii_bsp.a(pktalloc.o)
                0x00825058                pk_init
                0x008252e8                pk_alloc
                0x008253c4                pk_validate
                0x0082567c                pk_free
                0x00825728                pk_get_max_intrsafe_buf_len
                0x00825748                dump_buf_estats
 .text          0x008257f4      0x288 ../socket_simples_bsp/\libucosii_bsp.a(q.o)
                0x008257f4                getq
                0x008258bc                putq
                0x0082596c                qdel
 .text          0x00825a7c      0x31c ../socket_simples_bsp/\libucosii_bsp.a(udp_open.o)
                0x00825a7c                udp_open
                0x00825cb4                udp_close
 .text          0x00825d98      0x194 ../socket_simples_bsp/\libucosii_bsp.a(asm_cksum.o)
                0x00825d98                asm_cksum
 .text          0x00825f2c      0x2e4 ../socket_simples_bsp/\libucosii_bsp.a(brdutils.o)
                0x00825f2c                dtrap
                0x00825f5c                kbhit
                0x00826008                getch
                0x00826068                clock_init
                0x008260a4                clock_c
                0x008260c0                cticks_hook
                0x00826170                irq_Mask
                0x008261cc                irq_Unmask
 .text          0x00826210      0x488 ../socket_simples_bsp/\libucosii_bsp.a(osportco.o)
                0x00826210                LOCK_NET_RESOURCE
                0x008262d0                UNLOCK_NET_RESOURCE
                0x00826358                TK_NEWTASK
                0x0082656c                wait_app_sem
                0x00826620                post_app_sem
 .text          0x00826698      0x568 ../socket_simples_bsp/\libucosii_bsp.a(targnios.o)
                0x00826698                alt_iniche_init
                0x008268b4                pre_task_setup
                0x00826928                post_task_setup
                0x00826948                prep_armintcp
                0x00826980                calloc2
                0x008269b4                npalloc
                0x00826aa8                npfree
                0x00826b60                ncpalloc
                0x00826bb4                ncpfree
 .text          0x00826c00     0x19b8 ../socket_simples_bsp/\libucosii_bsp.a(nptcp.o)
                0x00826c00                pffindtype
                0x00826ca0                pffindproto
                0x00826d70                m_getnbuf
                0x00826f18                m_free
                0x0082704c                m_freem
                0x00827090                m_copy
                0x008273b4                m_adj
                0x00827584                mbuf_len
                0x008275dc                dtom
                0x00827684                remque
                0x008276f4                insque
                0x00827770                nptcp_init
                0x00827894                tcp_rcv
                0x00827a80                ip_output
                0x00828078                in_broadcast
                0x008280b8                np_stripoptions
                0x008281a0                so_icmpdu
                0x008284f8                tcp_tick
 .text          0x008285b8      0xa2c ../socket_simples_bsp/\libucosii_bsp.a(rawsock.o)
                0x008285b8                rawip_lookup
                0x00828628                rawip_soinput
                0x008287fc                rawip_usrreq
 .text          0x00828fe4     0x17fc ../socket_simples_bsp/\libucosii_bsp.a(sockcall.o)
                0x00828fe4                DOMAIN_CHECK
                0x00829030                t_socket
                0x008290c0                t_bind
                0x0082923c                t_listen
                0x00829320                t_accept
                0x008295b8                t_connect
                0x00829860                t_getpeername
                0x008298a4                t_getsockname
                0x00829ae4                t_setsockopt
                0x00829cc0                t_getsockopt
                0x00829e64                t_recv
                0x00829f54                t_recvfrom
                0x0082a0a4                t_sendto
                0x0082a2d0                t_send
                0x0082a4f8                t_shutdown
                0x0082a5dc                t_socketclose
                0x0082a744                t_errno
 .text          0x0082a7e0     0x23ec ../socket_simples_bsp/\libucosii_bsp.a(socket.o)
                0x0082a7e0                socreate
                0x0082a9ac                sobind
                0x0082aa08                solisten
                0x0082aaf8                sofree
                0x0082ac28                soclose
                0x0082af94                soabort
                0x0082afe4                soaccept
                0x0082b080                soconnect
                0x0082b154                sodisconnect
                0x0082b1f4                sosend
                0x0082b7fc                soreceive
                0x0082bfe0                soshutdown
                0x0082c088                sorflush
                0x0082c188                sosetopt
                0x0082c648                sogetopt
                0x0082cb88                sohasoutofband
 .text          0x0082cbcc     0x12f8 ../socket_simples_bsp/\libucosii_bsp.a(socket2.o)
                0x0082cbcc                soisconnecting
                0x0082cc38                soisconnected
                0x0082cd34                soisdisconnecting
                0x0082cdc0                soisdisconnected
                0x0082ce7c                sonewconn
                0x0082d098                soqinsque
                0x0082d144                soqremque
                0x0082d264                socantsendmore
                0x0082d2b4                socantrcvmore
                0x0082d304                sbselqueue
                0x0082d33c                sbwait
                0x0082d3a4                sbwakeup
                0x0082d440                soreserve
                0x0082d4c0                sbreserve
                0x0082d520                sbrelease
                0x0082d568                sbappend
                0x0082d610                sbappendrecord
                0x0082d6f0                sbappendaddr
                0x0082d8d8                sbcompress
                0x0082dac0                sbflush
                0x0082db50                sbdrop
                0x0082dd20                sbdropend
                0x0082de30                sbdroprecord
 .text          0x0082dec4      0x914 ../socket_simples_bsp/\libucosii_bsp.a(soselect.o)
                0x0082dec4                t_select
                0x0082e0e4                sock_selscan
                0x0082e23c                sock_select
                0x0082e450                in_pcbnotify
                0x0082e51c                tcp_notify
                0x0082e584                ifd_clr
                0x0082e674                ifd_set
                0x0082e6e8                ifd_isset
                0x0082e768                ifd_get
 .text          0x0082e7d8     0x3020 ../socket_simples_bsp/\libucosii_bsp.a(tcp_in.o)
                0x0082e7d8                tcp_reass
                0x0082ebe0                tcp_input
                0x00831134                tcp_dooptions
                0x008312c4                tcp_pulloutofband
                0x008313f0                tcp_xmit_timer
                0x00831694                ip4_tcpmss
                0x008316dc                tcp_mss
 .text          0x008317f8     0x1360 ../socket_simples_bsp/\libucosii_bsp.a(tcp_out.o)
                0x008317f8                tcp_output
                0x00832974                tcp_setpersist
 .text          0x00832b58      0x9e8 ../socket_simples_bsp/\libucosii_bsp.a(tcp_subr.o)
                0x00832b58                tcp_init
                0x00832bb0                tcp_template
                0x00832cc8                tcp_respond
                0x00833150                tcp_newtcpcb
                0x00833268                tcp_drop
                0x00833314                tcp_close
                0x008333fc                tcp_quench
                0x00833448                tcp_putseq
                0x008334c8                tcp_getseq
 .text          0x00833540      0x798 ../socket_simples_bsp/\libucosii_bsp.a(tcp_timr.o)
                0x00833540                tcp_slowtimo
                0x008337e0                tcp_canceltimers
                0x0083383c                tcp_timers
 .text          0x00833cd8      0x9ec ../socket_simples_bsp/\libucosii_bsp.a(tcp_usr.o)
                0x00833cd8                tcp_usrreq
                0x008343dc                tcp_attach
                0x00834510                tcp_disconnect
                0x008345e4                tcp_usrclosed
 .text          0x008346c4       0x4c ../socket_simples_bsp/\libucosii_bsp.a(tcpport.o)
                0x008346c4                tcpinit
 .text          0x00834710      0xd20 ../socket_simples_bsp/\libucosii_bsp.a(udpsock.o)
                0x00834710                udp_lookup
                0x00834780                udp_soinput
                0x00834938                udp_usrreq
                0x00834bbc                udp4_sockbind
                0x00834ef8                udp4_socksend
                0x008352d4                udp4_sockaddr
 .text          0x00835430      0x154 ../socket_simples_bsp/\libucosii_bsp.a(alt_alarm_start.o)
                0x00835430                alt_alarm_start
 .text          0x00835584      0x14c ../socket_simples_bsp/\libucosii_bsp.a(alt_busy_sleep.o)
                0x00835584                alt_busy_sleep
 .text          0x008356d0      0x15c ../socket_simples_bsp/\libucosii_bsp.a(alt_close.o)
                0x008356d0                alt_close
 .text          0x0083582c       0x78 ../socket_simples_bsp/\libucosii_bsp.a(alt_dcache_flush.o)
                0x0083582c                alt_dcache_flush
 .text          0x008358a4       0x2c ../socket_simples_bsp/\libucosii_bsp.a(alt_dev.o)
 .text          0x008358d0      0x114 ../socket_simples_bsp/\libucosii_bsp.a(alt_dev_llist_insert.o)
                0x008358d0                alt_dev_llist_insert
 .text          0x008359e4       0x64 ../socket_simples_bsp/\libucosii_bsp.a(alt_do_ctors.o)
                0x008359e4                _do_ctors
 .text          0x00835a48       0x64 ../socket_simples_bsp/\libucosii_bsp.a(alt_do_dtors.o)
                0x00835a48                _do_dtors
 .text          0x00835aac        0x0 ../socket_simples_bsp/\libucosii_bsp.a(alt_errno.o)
 .text          0x00835aac       0x94 ../socket_simples_bsp/\libucosii_bsp.a(alt_find_dev.o)
                0x00835aac                alt_find_dev
 .text          0x00835b40      0x1d4 ../socket_simples_bsp/\libucosii_bsp.a(alt_iic.o)
                0x00835b40                alt_ic_isr_register
                0x00835b90                alt_ic_irq_enable
                0x00835c2c                alt_ic_irq_disable
                0x00835ccc                alt_ic_irq_enabled
 .text          0x00835d14       0xf8 ../socket_simples_bsp/\libucosii_bsp.a(alt_iic_isr_register.o)
                0x00835d14                alt_iic_isr_register
 .text          0x00835e0c      0x13c ../socket_simples_bsp/\libucosii_bsp.a(alt_io_redirect.o)
                0x00835ed0                alt_io_redirect
 .text          0x00835f48        0x0 ../socket_simples_bsp/\libucosii_bsp.a(alt_irq_entry.o)
 .text          0x00835f48        0x0 ../socket_simples_bsp/\libucosii_bsp.a(alt_irq_handler.o)
 .text          0x00835f48      0x2c4 ../socket_simples_bsp/\libucosii_bsp.a(alt_open.o)
                0x00836024                open
 .text          0x0083620c      0x180 ../socket_simples_bsp/\libucosii_bsp.a(alt_read.o)
                0x0083620c                alt_read
 .text          0x0083638c       0x60 ../socket_simples_bsp/\libucosii_bsp.a(alt_release_fd.o)
                0x0083638c                alt_release_fd
 .text          0x008363ec       0x38 ../socket_simples_bsp/\libucosii_bsp.a(alt_remap_cached.o)
                0x008363ec                alt_remap_cached
 .text          0x00836424       0x40 ../socket_simples_bsp/\libucosii_bsp.a(alt_remap_uncached.o)
                0x00836424                alt_remap_uncached
 .text          0x00836464      0x1a8 ../socket_simples_bsp/\libucosii_bsp.a(alt_tick.o)
                0x00836464                alt_alarm_stop
                0x008364fc                alt_tick
 .text          0x0083660c      0x180 ../socket_simples_bsp/\libucosii_bsp.a(alt_write.o)
                0x0083660c                alt_write
 .text          0x0083678c       0x20 ../socket_simples_bsp/\libucosii_bsp.a(altera_nios2_qsys_irq.o)
                0x0083678c                altera_nios2_qsys_irq_init
 .text          0x008367ac       0xd0 ../socket_simples_bsp/\libucosii_bsp.a(os_cpu_a.o)
                0x008367ac                OSCtxSw
                0x008367ac                OSIntCtxSw
                0x00836838                OSStartHighRdy
                0x00836858                OSStartTsk
 .text          0x0083687c      0x424 ../socket_simples_bsp/\libucosii_bsp.a(os_cpu_c.o)
                0x0083687c                OSTaskStkInit
                0x00836b8c                OSTaskCreateHook
                0x00836bac                OSTaskDelHook
                0x00836bcc                OSTaskSwHook
                0x00836be8                OSTaskStatHook
                0x00836c04                OSTimeTickHook
                0x00836c2c                OSInitHookBegin
                0x00836c48                OSInitHookEnd
                0x00836c64                OSTaskIdleHook
                0x00836c80                OSTCBInitHook
 .text          0x00836ca0      0x460 ../socket_simples_bsp/\libucosii_bsp.a(altera_avalon_cfi_flash_amd.o)
                0x00836ca0                alt_program_amd
                0x00836d08                alt_erase_block_amd
 .text          0x00837100      0x460 ../socket_simples_bsp/\libucosii_bsp.a(altera_avalon_cfi_flash_intel.o)
                0x00837100                alt_program_intel
                0x00837184                alt_erase_block_intel
 .text          0x00837560      0x238 ../socket_simples_bsp/\libucosii_bsp.a(altera_avalon_spi.o)
                0x00837560                alt_avalon_spi_command
 .text          0x00837798      0x444 ../socket_simples_bsp/\libucosii_bsp.a(allports.o)
                0x00837798                netmain_init
                0x00837894                icmp_port_du
                0x0083791c                station_state
                0x00837a80                sysuptime
                0x00837b14                packet_check
                0x00837b60                mcastlist
                0x00837b84                prep_modules
 .text          0x00837bdc      0x580 ../socket_simples_bsp/\libucosii_bsp.a(timeouts.o)
                0x00837bdc                inet_timer
                0x00837edc                in_timerset
                0x008380b4                in_timerkill
 .text          0x0083815c       0xa4 ../socket_simples_bsp/\libucosii_bsp.a(tk_misc.o)
                0x0083815c                create_apptasks
                0x00838180                task_stats
 .text          0x00838200       0xb0 ../socket_simples_bsp/\libucosii_bsp.a(alt_iniche_fcntl.o)
                0x00838200                fcntl
 .text          0x008382b0     0x15b0 ../socket_simples_bsp/\libucosii_bsp.a(et_arp.o)
                0x008382b0                etainit
                0x00838304                et_send
                0x00838480                arp_free_pending
                0x00838508                arp_send_pending
                0x0083857c                send_arp
                0x00838a14                find_oldest_arp
                0x00838c10                make_arp_entry
                0x00838d24                arpReply
                0x00838fb8                arprcv
                0x00839218                send_via_arp
                0x008393e8                cb_arpent_tmo
                0x00839594                grat_arp
 .text          0x00839860      0x298 ../socket_simples_bsp/\libucosii_bsp.a(iface.o)
                0x00839860                if_getbynum
                0x008398e4                isbcast
                0x008399c4                reg_type
                0x00839a60                if_killsocks
 .text          0x00839af8     0x22a4 ../socket_simples_bsp/\libucosii_bsp.a(ip.o)
                0x00839af8                ip_init
                0x00839bf4                ip_bldhead
                0x00839d98                ip_write_internal
                0x0083a518                ip_write
                0x0083a760                ip_write2
                0x0083ab10                ip_raw_write
                0x0083abe8                ip_fragment_lc
                0x0083b070                ip_fragment
                0x0083b694                ip_mymach
                0x0083b740                ip_dump
                0x0083b9f8                iproute
                0x0083bc64                ip_copypkt
 .text          0x0083bd9c     0x1e08 ../socket_simples_bsp/\libucosii_bsp.a(ip_reasm.o)
                0x0083bd9c                ip_reasm_match_frag_with_ire
                0x0083be6c                ip_reasm_determine_type_of_frag
                0x0083bf58                ip_reasm_check_mem_useage
                0x0083bff0                ip_reasm_incr_mem_useage
                0x0083c098                ip_reasm_decr_mem_useage
                0x0083c138                ip_reasm_process_first_fragment
                0x0083c418                ip_reassm
                0x0083c4b8                ip_reasm_compute_overlap
                0x0083ca48                ip_reasm_process_subsequent_fragments
                0x0083cfdc                ip_reasm_find_ire
                0x0083d040                ip_reasm_copy_queued_fragments_into_reassy_buffer
                0x0083d39c                ip_reasm_process_timer_tick
                0x0083d4bc                ip_reasm_delete_ire
                0x0083d684                ip_reasm_mark_compact_rfq
                0x0083d7cc                ipr_stats
                0x0083db50                ip_reasm_send_icmp_timex
 .text          0x0083dba4      0xe3c ../socket_simples_bsp/\libucosii_bsp.a(ipdemux.o)
                0x0083dba4                ip_rcv
                0x0083dfa4                ip_rcv_phase2
                0x0083e5b0                ip_demux
 .text          0x0083e9e0      0x2f0 ../socket_simples_bsp/\libucosii_bsp.a(ipmc.o)
                0x0083e9e0                in_addmulti
                0x0083eb48                in_delmulti
                0x0083ec60                lookup_mcast
 .text          0x0083ecd0       0xe4 ../socket_simples_bsp/\libucosii_bsp.a(ipport.o)
                0x0083ecd0                prep_ifaces
                0x0083ed64                netexit
                0x0083ed8c                evtmap_setup
 .text          0x0083edb4      0x550 ../socket_simples_bsp/\libucosii_bsp.a(ipraw.o)
                0x0083edb4                ip_raw_open
                0x0083eea4                ip_raw_close
                0x0083ef64                ip_raw_input
                0x0083f19c                ip_raw_alloc
                0x0083f268                ip_raw_free
                0x0083f2a8                ip_raw_maxalloc
 .text          0x0083f304      0x6f0 ../socket_simples_bsp/\libucosii_bsp.a(iproute.o)
                0x0083f304                rt_lookup
                0x0083f488                add_route
                0x0083f8b0                del_route
 .text          0x0083f9f4      0xe3c ../socket_simples_bsp/\libucosii_bsp.a(udp.o)
                0x0083f9f4                udpdemux
                0x0084024c                udp_send
                0x00840504                udpswap
                0x00840634                udp_socket
                0x00840704                udp_alloc
                0x008407c4                udp_maxalloc
                0x008407f0                udp_free
 .text          0x00840830      0x2e8 ../socket_simples_bsp/\libucosii_bsp.a(igmp.o)
                0x00840830                igmpv1_input
 .text          0x00840b18      0x7c0 ../socket_simples_bsp/\libucosii_bsp.a(igmp2.o)
                0x00840b18                igmpv2_input
                0x00840c78                igmpv2_process_report
                0x00840dc4                igmpv2_process_query
                0x00841010                igmpv2_chk_set_timer
                0x00841168                igmpv2_chk4_rtr_alert_opt
 .text          0x008412d8      0x8fc ../socket_simples_bsp/\libucosii_bsp.a(ipopt.o)
                0x008412d8                IPADDR_TO_NETP
                0x00841420                ip_setmoptions
                0x00841a10                ip_getmoptions
                0x00841b50                ip_freemoptions
 .text          0x00841bd4      0x6e8 ../socket_simples_bsp/\libucosii_bsp.a(u_mctest.o)
                0x00841bd4                u_mctest_init
                0x00841c04                u_mctest_run
 .text          0x008422bc      0x3d0 ../socket_simples_bsp/\libucosii_bsp.a(dhcsetup.o)
                0x008422bc                dhc_setup
                0x00842588                dhc_main_ipset
 .text          0x0084268c      0x40c ../socket_simples_bsp/\libucosii_bsp.a(memdev.o)
                0x0084268c                init_memdev
                0x00842704                md_fopen
                0x0084272c                md_fclose
                0x0084274c                md_fread
                0x008428cc                md_fwrite
                0x0084294c                md_fseek
                0x00842978                md_ftell
                0x0084299c                md_fgetc
                0x00842a74                md_unlink
 .text          0x00842a98      0x1cc ../socket_simples_bsp/\libucosii_bsp.a(tcpcksum.o)
                0x00842a98                tcp_cksum
 .text          0x00842c64      0x900 ../socket_simples_bsp/\libucosii_bsp.a(in_pcb.o)
                0x00842c64                in_pcballoc
                0x00842cf8                in_pcbdetach
                0x00842d4c                in_pcbbind
                0x00842fa0                in_pcbconnect
                0x008431b0                in_pcbdisconnect
                0x00843210                in_setsockaddr
                0x0084328c                in_setpeeraddr
                0x00843308                in_pcblookup
 .text          0x00843564     0x1a74 ../socket_simples_bsp/\libucosii_bsp.a(vfsfiles.o)
                0x00843564                set_vfopen_error
                0x0084358c                get_vfopen_error
                0x008435ac                vf_alloc_and_link_vop
                0x00843628                vf_alloc_buffer
                0x00843700                vf_free_buffer
                0x00843750                vfopen_locked
                0x00843ab8                vfopen
                0x00843b08                vfclose_locked
                0x00843cb0                vfclose
                0x00843cf0                vfflush
                0x00843d38                vfgets
                0x00843e1c                vfeof
                0x00843e74                vunlink_flag_open_files
                0x00843ed0                vunlink
                0x008440f0                vfread
                0x0084429c                vfwrite_locked
                0x00844684                vfwrite
                0x008446e4                vfseek
                0x00844860                vftell
                0x00844994                vgetc_locked
                0x00844ab4                vgetc
                0x00844afc                vfslookup_locked
                0x00844c34                vfslookup
                0x00844c7c                strippath
                0x00844e64                isvfile_locked
                0x00844ec8                isvfile
                0x00844f10                vferror
                0x00844f7c                vclearerr
 .text          0x00844fd8       0x24 ../socket_simples_bsp/\libucosii_bsp.a(vfsport.o)
                0x00844fd8                prep_vfs
 .text          0x00844ffc        0x0 ../socket_simples_bsp/\libucosii_bsp.a(alt_exception_entry.o)
 .text          0x00844ffc      0x1b4 ../socket_simples_bsp/\libucosii_bsp.a(alt_fcntl.o)
                0x00844ffc                alt_fcntl
 .text          0x008451b0      0x120 ../socket_simples_bsp/\libucosii_bsp.a(alt_find_file.o)
                0x008451b0                alt_find_file
 .text          0x008452d0       0xf4 ../socket_simples_bsp/\libucosii_bsp.a(alt_get_fd.o)
                0x008452d0                alt_get_fd
 .text          0x008453c4     0x130c ../socket_simples_bsp/\libucosii_bsp.a(icmp.o)
                0x008453c4                icmprcv
                0x00845ff8                icmp_destun
                0x00846348                icmp_timex
                0x0084667c                icmp_du
 .text          0x008466d0       0x14 c:/altera/13.0/nios2eds/bin/gnu/h-i686-mingw32/bin/../lib/gcc/nios2-elf/4.1.2/../../../../nios2-elf/lib\libc.a(lib_a-atexit.o)
                0x008466d0                atexit
 .text          0x008466e4       0x18 c:/altera/13.0/nios2eds/bin/gnu/h-i686-mingw32/bin/../lib/gcc/nios2-elf/4.1.2/../../../../nios2-elf/lib\libc.a(lib_a-atoi.o)
                0x008466e4                _atoi_r
                0x008466f0                atoi
 .text          0x008466fc       0x1c c:/altera/13.0/nios2eds/bin/gnu/h-i686-mingw32/bin/../lib/gcc/nios2-elf/4.1.2/../../../../nios2-elf/lib\libc.a(lib_a-calloc.o)
                0x008466fc                calloc
 .text          0x00846718       0x28 c:/altera/13.0/nios2eds/bin/gnu/h-i686-mingw32/bin/../lib/gcc/nios2-elf/4.1.2/../../../../nios2-elf/lib\libc.a(lib_a-malloc.o)
                0x00846718                free
                0x0084672c                malloc
 .text          0x00846740       0x74 c:/altera/13.0/nios2eds/bin/gnu/h-i686-mingw32/bin/../lib/gcc/nios2-elf/4.1.2/../../../../nios2-elf/lib\libc.a(lib_a-memcmp.o)
                0x00846740                memcmp
 .text          0x008467b4       0xd4 c:/altera/13.0/nios2eds/bin/gnu/h-i686-mingw32/bin/../lib/gcc/nios2-elf/4.1.2/../../../../nios2-elf/lib\libc.a(lib_a-sprintf.o)
                0x008467b4                sprintf
                0x00846828                _sprintf_r
 .text          0x00846888       0x8c c:/altera/13.0/nios2eds/bin/gnu/h-i686-mingw32/bin/../lib/gcc/nios2-elf/4.1.2/../../../../nios2-elf/lib\libc.a(lib_a-strcpy.o)
                0x00846888                strcpy
 .text          0x00846914       0xf0 c:/altera/13.0/nios2eds/bin/gnu/h-i686-mingw32/bin/../lib/gcc/nios2-elf/4.1.2/../../../../nios2-elf/lib\libc.a(lib_a-strncmp.o)
                0x00846914                strncmp
 .text          0x00846a04       0xbc c:/altera/13.0/nios2eds/bin/gnu/h-i686-mingw32/bin/../lib/gcc/nios2-elf/4.1.2/../../../../nios2-elf/lib\libc.a(lib_a-strncpy.o)
                0x00846a04                strncpy
 .text          0x00846ac0      0x268 c:/altera/13.0/nios2eds/bin/gnu/h-i686-mingw32/bin/../lib/gcc/nios2-elf/4.1.2/../../../../nios2-elf/lib\libc.a(lib_a-strtol.o)
                0x00846ac0                _strtol_r
                0x00846d04                strtol
 .text          0x00846d28       0x34 c:/altera/13.0/nios2eds/bin/gnu/h-i686-mingw32/bin/../lib/gcc/nios2-elf/4.1.2/../../../../nios2-elf/lib\libc.a(lib_a-vprintf.o)
                0x00846d28                _vprintf_r
                0x00846d3c                vprintf
 .text          0x00846d5c       0x74 c:/altera/13.0/nios2eds/bin/gnu/h-i686-mingw32/bin/../lib/gcc/nios2-elf/4.1.2/../../../../nios2-elf/lib\libc.a(lib_a-vsprintf.o)
                0x00846d5c                _vsprintf_r
                0x00846dac                vsprintf
 .text          0x00846dd0      0x134 c:/altera/13.0/nios2eds/bin/gnu/h-i686-mingw32/bin/../lib/gcc/nios2-elf/4.1.2/../../../../nios2-elf/lib\libc.a(lib_a-__atexit.o)
                0x00846dd0                __register_exitproc
 *(.gnu.warning.*)
 *(.fini)
                0x00846f04                PROVIDE (__etext, ABSOLUTE (.))
                0x00846f04                PROVIDE (_etext, ABSOLUTE (.))
                0x00846f04                PROVIDE (etext, ABSOLUTE (.))
 *(.eh_frame_hdr)
                0x00846f04                . = ALIGN (0x4)
                0x00846f04                PROVIDE (__preinit_array_start, ABSOLUTE (.))
 *(.preinit_array)
                0x00846f04                PROVIDE (__preinit_array_end, ABSOLUTE (.))
                0x00846f04                PROVIDE (__init_array_start, ABSOLUTE (.))
 *(.init_array)
                0x00846f04                PROVIDE (__init_array_end, ABSOLUTE (.))
                0x00846f04                PROVIDE (__fini_array_start, ABSOLUTE (.))
 *(.fini_array)
                0x00846f04                PROVIDE (__fini_array_end, ABSOLUTE (.))
 *(.eh_frame)
 *(.gcc_except_table)
 *(.dynamic)
                0x00846f04                PROVIDE (__CTOR_LIST__, ABSOLUTE (.))
 *(.ctors)
 *(SORT(.ctors.*))
 .ctors.65535   0x00846f04        0x4 c:/altera/13.0/nios2eds/bin/gnu/h-i686-mingw32/bin/../lib/gcc/nios2-elf/4.1.2/../../../../nios2-elf/lib\libc.a(lib_a-__call_atexit.o)
                0x00846f08                PROVIDE (__CTOR_END__, ABSOLUTE (.))
                0x00846f08                PROVIDE (__DTOR_LIST__, ABSOLUTE (.))
 *(.dtors)
 *(SORT(.dtors.*))
                0x00846f08                PROVIDE (__DTOR_END__, ABSOLUTE (.))
 *(.jcr)
                0x00846f08                . = ALIGN (0x4)

.rodata         0x00846f08     0x4208
                0x00846f08                PROVIDE (__ram_rodata_start, ABSOLUTE (.))
                0x00846f08                . = ALIGN (0x4)
 *(.rodata .rodata.* .gnu.linkonce.r.*)
 .rodata        0x00846f08       0x60 obj/default/LCD.o
 .rodata        0x00846f68       0xa8 obj/default/SSS_DE2_115.o
 .rodata        0x00847010      0xba4 obj/default/alt_error_handler.o
 .rodata        0x00847bb4       0x64 obj/default/dm9000a.o
 .rodata        0x00847c18       0xec obj/default/iniche_init.o
 .rodata        0x00847d04      0x234 obj/default/network_utilities.o
 .rodata        0x00847f38      0x2e0 obj/default/simple_socket_server.o
 .rodata        0x00848218       0x14 c:/altera/13.0/nios2eds/bin/gnu/h-i686-mingw32/bin/../lib/gcc/nios2-elf/4.1.2\libgcc.a(_thenan_df.o)
                0x00848218                __thenan_df
 .rodata        0x0084822c      0x100 c:/altera/13.0/nios2eds/bin/gnu/h-i686-mingw32/bin/../lib/gcc/nios2-elf/4.1.2\libgcc.a(_clz.o)
                0x0084822c                __clz_tab
 .rodata        0x0084832c      0x284 c:/altera/13.0/nios2eds/bin/gnu/h-i686-mingw32/bin/../lib/gcc/nios2-elf/4.1.2/../../../../nios2-elf/lib\libc.a(lib_a-ctype_.o)
                0x0084832c                _ctype_
 .rodata.str1.4
                0x008485b0        0x2 c:/altera/13.0/nios2eds/bin/gnu/h-i686-mingw32/bin/../lib/gcc/nios2-elf/4.1.2/../../../../nios2-elf/lib\libc.a(lib_a-impure.o)
                                  0x4 (size before relaxing)
 *fill*         0x008485b2        0x2 00
 .rodata.str1.4
                0x008485b4        0x3 c:/altera/13.0/nios2eds/bin/gnu/h-i686-mingw32/bin/../lib/gcc/nios2-elf/4.1.2/../../../../nios2-elf/lib\libc.a(lib_a-perror.o)
                                  0x4 (size before relaxing)
 *fill*         0x008485b7        0x1 00
 .rodata.str1.4
                0x008485b8        0x2 c:/altera/13.0/nios2eds/bin/gnu/h-i686-mingw32/bin/../lib/gcc/nios2-elf/4.1.2/../../../../nios2-elf/lib\libc.a(lib_a-puts.o)
                                  0x4 (size before relaxing)
 *fill*         0x008485ba        0x2 00
 .rodata.str1.4
                0x008485bc      0x7a2 c:/altera/13.0/nios2eds/bin/gnu/h-i686-mingw32/bin/../lib/gcc/nios2-elf/4.1.2/../../../../nios2-elf/lib\libc.a(lib_a-strerror.o)
                                0x7a8 (size before relaxing)
 *fill*         0x00848d5e        0x2 00
 .rodata.str1.4
                0x00848d60       0x5e c:/altera/13.0/nios2eds/bin/gnu/h-i686-mingw32/bin/../lib/gcc/nios2-elf/4.1.2/../../../../nios2-elf/lib\libc.a(lib_a-vfprintf.o)
                                 0x60 (size before relaxing)
 *fill*         0x00848dbe        0x2 00
 .rodata        0x00848dc0       0x20 c:/altera/13.0/nios2eds/bin/gnu/h-i686-mingw32/bin/../lib/gcc/nios2-elf/4.1.2/../../../../nios2-elf/lib\libc.a(lib_a-vfprintf.o)
 .rodata.str1.4
                0x00848de0       0x10 c:/altera/13.0/nios2eds/bin/gnu/h-i686-mingw32/bin/../lib/gcc/nios2-elf/4.1.2/../../../../nios2-elf/lib\libc.a(lib_a-dtoa.o)
                                 0x14 (size before relaxing)
 .rodata.str1.4
                0x00848df0       0x10 c:/altera/13.0/nios2eds/bin/gnu/h-i686-mingw32/bin/../lib/gcc/nios2-elf/4.1.2/../../../../nios2-elf/lib\libc.a(lib_a-locale.o)
                                 0x18 (size before relaxing)
 .rodata        0x00848e00       0x30 c:/altera/13.0/nios2eds/bin/gnu/h-i686-mingw32/bin/../lib/gcc/nios2-elf/4.1.2/../../../../nios2-elf/lib\libc.a(lib_a-locale.o)
 .rodata        0x00848e30      0x124 c:/altera/13.0/nios2eds/bin/gnu/h-i686-mingw32/bin/../lib/gcc/nios2-elf/4.1.2/../../../../nios2-elf/lib\libc.a(lib_a-mprec.o)
                0x00848e30                __mprec_tens
                0x00848ef8                __mprec_bigtens
                0x00848f20                __mprec_tinytens
 .rodata        0x00848f54       0x14 ../socket_simples_bsp/\libucosii_bsp.a(alt_main.o)
 .rodata        0x00848f68      0x120 ../socket_simples_bsp/\libucosii_bsp.a(os_core.o)
                0x00848f68                OSUnMapTbl
 .rodata        0x00849088       0x60 ../socket_simples_bsp/\libucosii_bsp.a(alt_sys_init.o)
 .rodata        0x008490e8       0xd8 ../socket_simples_bsp/\libucosii_bsp.a(ipnet.o)
 .rodata        0x008491c0       0xec ../socket_simples_bsp/\libucosii_bsp.a(ipstart.o)
 .rodata        0x008492ac      0x54c ../socket_simples_bsp/\libucosii_bsp.a(igmp_cmn.o)
 .rodata        0x008497f8       0xb8 ../socket_simples_bsp/\libucosii_bsp.a(in_utils.o)
 .rodata        0x008498b0       0x34 ../socket_simples_bsp/\libucosii_bsp.a(netmain.o)
 .rodata        0x008498e4       0x94 ../socket_simples_bsp/\libucosii_bsp.a(parseip.o)
 .rodata        0x00849978      0x1a8 ../socket_simples_bsp/\libucosii_bsp.a(tk_crnos.o)
 .rodata        0x00849b20        0x8 ../socket_simples_bsp/\libucosii_bsp.a(dhcpclnt.o)
 .rodata        0x00849b28      0x118 ../socket_simples_bsp/\libucosii_bsp.a(pktalloc.o)
 .rodata        0x00849c40       0x84 ../socket_simples_bsp/\libucosii_bsp.a(udp_open.o)
 .rodata        0x00849cc4       0x2c ../socket_simples_bsp/\libucosii_bsp.a(brdutils.o)
 .rodata        0x00849cf0      0x26c ../socket_simples_bsp/\libucosii_bsp.a(osportco.o)
 .rodata        0x00849f5c       0xa0 ../socket_simples_bsp/\libucosii_bsp.a(targnios.o)
 .rodata        0x00849ffc       0x90 ../socket_simples_bsp/\libucosii_bsp.a(nptcp.o)
 .rodata        0x0084a08c        0x8 ../socket_simples_bsp/\libucosii_bsp.a(sockcall.o)
 .rodata        0x0084a094       0x50 ../socket_simples_bsp/\libucosii_bsp.a(socket.o)
 .rodata        0x0084a0e4       0x40 ../socket_simples_bsp/\libucosii_bsp.a(socket2.o)
 .rodata        0x0084a124       0x20 ../socket_simples_bsp/\libucosii_bsp.a(tcp_in.o)
 .rodata        0x0084a144       0x40 ../socket_simples_bsp/\libucosii_bsp.a(tcp_out.o)
 .rodata        0x0084a184       0x24 ../socket_simples_bsp/\libucosii_bsp.a(tcp_subr.o)
 .rodata        0x0084a1a8       0x2c ../socket_simples_bsp/\libucosii_bsp.a(tcp_usr.o)
 .rodata        0x0084a1d4        0xc ../socket_simples_bsp/\libucosii_bsp.a(alt_dev.o)
 .rodata        0x0084a1e0        0x4 ../socket_simples_bsp/\libucosii_bsp.a(os_cpu_c.o)
 .rodata        0x0084a1e4      0x1d4 ../socket_simples_bsp/\libucosii_bsp.a(allports.o)
 .rodata        0x0084a3b8       0x34 ../socket_simples_bsp/\libucosii_bsp.a(tk_misc.o)
 .rodata        0x0084a3ec       0x44 ../socket_simples_bsp/\libucosii_bsp.a(et_arp.o)
 .rodata        0x0084a430      0x1dc ../socket_simples_bsp/\libucosii_bsp.a(ip.o)
 .rodata        0x0084a60c      0x158 ../socket_simples_bsp/\libucosii_bsp.a(ip_reasm.o)
 .rodata        0x0084a764      0x120 ../socket_simples_bsp/\libucosii_bsp.a(ipdemux.o)
 .rodata        0x0084a884       0x34 ../socket_simples_bsp/\libucosii_bsp.a(ipport.o)
 .rodata        0x0084a8b8       0x24 ../socket_simples_bsp/\libucosii_bsp.a(ipraw.o)
 .rodata        0x0084a8dc       0x38 ../socket_simples_bsp/\libucosii_bsp.a(iproute.o)
 .rodata        0x0084a914       0xe8 ../socket_simples_bsp/\libucosii_bsp.a(udp.o)
 .rodata        0x0084a9fc      0x2d0 ../socket_simples_bsp/\libucosii_bsp.a(u_mctest.o)
 .rodata        0x0084accc       0xf8 ../socket_simples_bsp/\libucosii_bsp.a(dhcsetup.o)
 .rodata        0x0084adc4       0x34 ../socket_simples_bsp/\libucosii_bsp.a(vfsfiles.o)
 .rodata        0x0084adf8      0x318 ../socket_simples_bsp/\libucosii_bsp.a(icmp.o)
 *(.rodata1)
                0x0084b110                . = ALIGN (0x4)
                0x0084b110                PROVIDE (__ram_rodata_end, ABSOLUTE (.))
                0x00846f08                PROVIDE (__flash_rodata_start, LOADADDR (.rodata))

.rwdata         0x0084b110     0x2140
                0x0084b110                PROVIDE (__ram_rwdata_start, ABSOLUTE (.))
                0x0084b110                . = ALIGN (0x4)
 *(.got.plt)
 *(.got)
 *(.data1)
 *(.data .data.* .gnu.linkonce.d.*)
 .data          0x0084b110        0x0 ../socket_simples_bsp//obj/HAL/src/crt0.o
 .data          0x0084b110        0x0 obj/default/LCD.o
 .data          0x0084b110        0x0 obj/default/SSS_DE2_115.o
 .data          0x0084b110        0x0 obj/default/alt_error_handler.o
 .data          0x0084b110        0x0 obj/default/dm9000a.o
 .data          0x0084b110       0x18 obj/default/iniche_init.o
                0x0084b110                ssstask
 .data          0x0084b128        0x0 obj/default/led.o
 .data          0x0084b128        0x0 obj/default/network_utilities.o
 .data          0x0084b128        0x0 obj/default/simple_socket_server.o
 .data          0x0084b128        0x0 obj/default/tse_my_system.o
 .data          0x0084b128        0x0 c:/altera/13.0/nios2eds/bin/gnu/h-i686-mingw32/bin/../lib/gcc/nios2-elf/4.1.2\libgcc.a(_fixunsdfsi.o)
 .data          0x0084b128        0x0 c:/altera/13.0/nios2eds/bin/gnu/h-i686-mingw32/bin/../lib/gcc/nios2-elf/4.1.2\libgcc.a(_addsub_df.o)
 .data          0x0084b128        0x0 c:/altera/13.0/nios2eds/bin/gnu/h-i686-mingw32/bin/../lib/gcc/nios2-elf/4.1.2\libgcc.a(_mul_df.o)
 .data          0x0084b128        0x0 c:/altera/13.0/nios2eds/bin/gnu/h-i686-mingw32/bin/../lib/gcc/nios2-elf/4.1.2\libgcc.a(_ge_df.o)
 .data          0x0084b128        0x0 c:/altera/13.0/nios2eds/bin/gnu/h-i686-mingw32/bin/../lib/gcc/nios2-elf/4.1.2\libgcc.a(_df_to_si.o)
 .data          0x0084b128        0x0 c:/altera/13.0/nios2eds/bin/gnu/h-i686-mingw32/bin/../lib/gcc/nios2-elf/4.1.2\libgcc.a(_thenan_df.o)
 .data          0x0084b128        0x0 c:/altera/13.0/nios2eds/bin/gnu/h-i686-mingw32/bin/../lib/gcc/nios2-elf/4.1.2\libgcc.a(_usi_to_df.o)
 .data          0x0084b128        0x0 c:/altera/13.0/nios2eds/bin/gnu/h-i686-mingw32/bin/../lib/gcc/nios2-elf/4.1.2\libgcc.a(_muldi3.o)
 .data          0x0084b128        0x0 c:/altera/13.0/nios2eds/bin/gnu/h-i686-mingw32/bin/../lib/gcc/nios2-elf/4.1.2\libgcc.a(_clzsi2.o)
 .data          0x0084b128        0x0 c:/altera/13.0/nios2eds/bin/gnu/h-i686-mingw32/bin/../lib/gcc/nios2-elf/4.1.2\libgcc.a(_pack_df.o)
 .data          0x0084b128        0x0 c:/altera/13.0/nios2eds/bin/gnu/h-i686-mingw32/bin/../lib/gcc/nios2-elf/4.1.2\libgcc.a(_unpack_df.o)
 .data          0x0084b128        0x0 c:/altera/13.0/nios2eds/bin/gnu/h-i686-mingw32/bin/../lib/gcc/nios2-elf/4.1.2\libgcc.a(_fpcmp_parts_df.o)
 .data          0x0084b128        0x0 c:/altera/13.0/nios2eds/bin/gnu/h-i686-mingw32/bin/../lib/gcc/nios2-elf/4.1.2\libgcc.a(_clz.o)
 .data          0x0084b128        0x0 c:/altera/13.0/nios2eds/bin/gnu/h-i686-mingw32/bin/../lib/gcc/nios2-elf/4.1.2/../../../../nios2-elf/lib\libc.a(lib_a-ctype_.o)
 .data          0x0084b128        0x0 c:/altera/13.0/nios2eds/bin/gnu/h-i686-mingw32/bin/../lib/gcc/nios2-elf/4.1.2/../../../../nios2-elf/lib\libc.a(lib_a-exit.o)
 .data          0x0084b128        0x0 c:/altera/13.0/nios2eds/bin/gnu/h-i686-mingw32/bin/../lib/gcc/nios2-elf/4.1.2/../../../../nios2-elf/lib\libc.a(lib_a-fprintf.o)
 .data          0x0084b128        0x0 c:/altera/13.0/nios2eds/bin/gnu/h-i686-mingw32/bin/../lib/gcc/nios2-elf/4.1.2/../../../../nios2-elf/lib\libc.a(lib_a-fwrite.o)
 .data          0x0084b128        0x0 c:/altera/13.0/nios2eds/bin/gnu/h-i686-mingw32/bin/../lib/gcc/nios2-elf/4.1.2/../../../../nios2-elf/lib\libc.a(lib_a-getc.o)
 .data          0x0084b128      0x400 c:/altera/13.0/nios2eds/bin/gnu/h-i686-mingw32/bin/../lib/gcc/nios2-elf/4.1.2/../../../../nios2-elf/lib\libc.a(lib_a-impure.o)
 .data          0x0084b528        0x0 c:/altera/13.0/nios2eds/bin/gnu/h-i686-mingw32/bin/../lib/gcc/nios2-elf/4.1.2/../../../../nios2-elf/lib\libc.a(lib_a-memcpy.o)
 .data          0x0084b528        0x0 c:/altera/13.0/nios2eds/bin/gnu/h-i686-mingw32/bin/../lib/gcc/nios2-elf/4.1.2/../../../../nios2-elf/lib\libc.a(lib_a-memmove.o)
 .data          0x0084b528        0x0 c:/altera/13.0/nios2eds/bin/gnu/h-i686-mingw32/bin/../lib/gcc/nios2-elf/4.1.2/../../../../nios2-elf/lib\libc.a(lib_a-memset.o)
 .data          0x0084b528        0x0 c:/altera/13.0/nios2eds/bin/gnu/h-i686-mingw32/bin/../lib/gcc/nios2-elf/4.1.2/../../../../nios2-elf/lib\libc.a(lib_a-perror.o)
 .data          0x0084b528        0x0 c:/altera/13.0/nios2eds/bin/gnu/h-i686-mingw32/bin/../lib/gcc/nios2-elf/4.1.2/../../../../nios2-elf/lib\libc.a(lib_a-printf.o)
 .data          0x0084b528        0x0 c:/altera/13.0/nios2eds/bin/gnu/h-i686-mingw32/bin/../lib/gcc/nios2-elf/4.1.2/../../../../nios2-elf/lib\libc.a(lib_a-putc.o)
 .data          0x0084b528        0x0 c:/altera/13.0/nios2eds/bin/gnu/h-i686-mingw32/bin/../lib/gcc/nios2-elf/4.1.2/../../../../nios2-elf/lib\libc.a(lib_a-putchar.o)
 .data          0x0084b528        0x0 c:/altera/13.0/nios2eds/bin/gnu/h-i686-mingw32/bin/../lib/gcc/nios2-elf/4.1.2/../../../../nios2-elf/lib\libc.a(lib_a-puts.o)
 .data          0x0084b528        0x0 c:/altera/13.0/nios2eds/bin/gnu/h-i686-mingw32/bin/../lib/gcc/nios2-elf/4.1.2/../../../../nios2-elf/lib\libc.a(lib_a-rget.o)
 .data          0x0084b528        0x0 c:/altera/13.0/nios2eds/bin/gnu/h-i686-mingw32/bin/../lib/gcc/nios2-elf/4.1.2/../../../../nios2-elf/lib\libc.a(lib_a-strchr.o)
 .data          0x0084b528        0x0 c:/altera/13.0/nios2eds/bin/gnu/h-i686-mingw32/bin/../lib/gcc/nios2-elf/4.1.2/../../../../nios2-elf/lib\libc.a(lib_a-strerror.o)
 .data          0x0084b528        0x0 c:/altera/13.0/nios2eds/bin/gnu/h-i686-mingw32/bin/../lib/gcc/nios2-elf/4.1.2/../../../../nios2-elf/lib\libc.a(lib_a-strlen.o)
 .data          0x0084b528        0x0 c:/altera/13.0/nios2eds/bin/gnu/h-i686-mingw32/bin/../lib/gcc/nios2-elf/4.1.2/../../../../nios2-elf/lib\libc.a(lib_a-u_strerr.o)
 .data          0x0084b528        0x0 c:/altera/13.0/nios2eds/bin/gnu/h-i686-mingw32/bin/../lib/gcc/nios2-elf/4.1.2/../../../../nios2-elf/lib\libc.a(lib_a-vfprintf.o)
 .data          0x0084b528        0x0 c:/altera/13.0/nios2eds/bin/gnu/h-i686-mingw32/bin/../lib/gcc/nios2-elf/4.1.2/../../../../nios2-elf/lib\libc.a(lib_a-wbuf.o)
 .data          0x0084b528        0x0 c:/altera/13.0/nios2eds/bin/gnu/h-i686-mingw32/bin/../lib/gcc/nios2-elf/4.1.2/../../../../nios2-elf/lib\libc.a(lib_a-wsetup.o)
 .data          0x0084b528        0x0 c:/altera/13.0/nios2eds/bin/gnu/h-i686-mingw32/bin/../lib/gcc/nios2-elf/4.1.2/../../../../nios2-elf/lib\libc.a(lib_a-__call_atexit.o)
 .data          0x0084b528        0x0 c:/altera/13.0/nios2eds/bin/gnu/h-i686-mingw32/bin/../lib/gcc/nios2-elf/4.1.2/../../../../nios2-elf/lib\libc.a(lib_a-dtoa.o)
 .data          0x0084b528        0x0 c:/altera/13.0/nios2eds/bin/gnu/h-i686-mingw32/bin/../lib/gcc/nios2-elf/4.1.2/../../../../nios2-elf/lib\libc.a(lib_a-fflush.o)
 .data          0x0084b528        0x0 c:/altera/13.0/nios2eds/bin/gnu/h-i686-mingw32/bin/../lib/gcc/nios2-elf/4.1.2/../../../../nios2-elf/lib\libc.a(lib_a-findfp.o)
 .data          0x0084b528        0x0 c:/altera/13.0/nios2eds/bin/gnu/h-i686-mingw32/bin/../lib/gcc/nios2-elf/4.1.2/../../../../nios2-elf/lib\libc.a(lib_a-fputc.o)
 .data          0x0084b528        0x0 c:/altera/13.0/nios2eds/bin/gnu/h-i686-mingw32/bin/../lib/gcc/nios2-elf/4.1.2/../../../../nios2-elf/lib\libc.a(lib_a-fputs.o)
 .data          0x0084b528        0x0 c:/altera/13.0/nios2eds/bin/gnu/h-i686-mingw32/bin/../lib/gcc/nios2-elf/4.1.2/../../../../nios2-elf/lib\libc.a(lib_a-freer.o)
 .data          0x0084b528        0x0 c:/altera/13.0/nios2eds/bin/gnu/h-i686-mingw32/bin/../lib/gcc/nios2-elf/4.1.2/../../../../nios2-elf/lib\libc.a(lib_a-fvwrite.o)
 .data          0x0084b528        0x0 c:/altera/13.0/nios2eds/bin/gnu/h-i686-mingw32/bin/../lib/gcc/nios2-elf/4.1.2/../../../../nios2-elf/lib\libc.a(lib_a-fwalk.o)
 .data          0x0084b528        0xc c:/altera/13.0/nios2eds/bin/gnu/h-i686-mingw32/bin/../lib/gcc/nios2-elf/4.1.2/../../../../nios2-elf/lib\libc.a(lib_a-locale.o)
                0x0084b528                __lc_ctype
 .data          0x0084b534        0x0 c:/altera/13.0/nios2eds/bin/gnu/h-i686-mingw32/bin/../lib/gcc/nios2-elf/4.1.2/../../../../nios2-elf/lib\libc.a(lib_a-makebuf.o)
 .data          0x0084b534      0x408 c:/altera/13.0/nios2eds/bin/gnu/h-i686-mingw32/bin/../lib/gcc/nios2-elf/4.1.2/../../../../nios2-elf/lib\libc.a(lib_a-mallocr.o)
                0x0084b534                __malloc_av_
 .data          0x0084b93c        0x0 c:/altera/13.0/nios2eds/bin/gnu/h-i686-mingw32/bin/../lib/gcc/nios2-elf/4.1.2/../../../../nios2-elf/lib\libc.a(lib_a-memchr.o)
 .data          0x0084b93c        0x0 c:/altera/13.0/nios2eds/bin/gnu/h-i686-mingw32/bin/../lib/gcc/nios2-elf/4.1.2/../../../../nios2-elf/lib\libc.a(lib_a-mprec.o)
 .data          0x0084b93c        0x0 c:/altera/13.0/nios2eds/bin/gnu/h-i686-mingw32/bin/../lib/gcc/nios2-elf/4.1.2/../../../../nios2-elf/lib\libc.a(lib_a-reallocr.o)
 .data          0x0084b93c        0x0 c:/altera/13.0/nios2eds/bin/gnu/h-i686-mingw32/bin/../lib/gcc/nios2-elf/4.1.2/../../../../nios2-elf/lib\libc.a(lib_a-refill.o)
 .data          0x0084b93c        0x0 c:/altera/13.0/nios2eds/bin/gnu/h-i686-mingw32/bin/../lib/gcc/nios2-elf/4.1.2/../../../../nios2-elf/lib\libc.a(lib_a-s_isinfd.o)
 .data          0x0084b93c        0x0 c:/altera/13.0/nios2eds/bin/gnu/h-i686-mingw32/bin/../lib/gcc/nios2-elf/4.1.2/../../../../nios2-elf/lib\libc.a(lib_a-s_isnand.o)
 .data          0x0084b93c        0x0 c:/altera/13.0/nios2eds/bin/gnu/h-i686-mingw32/bin/../lib/gcc/nios2-elf/4.1.2/../../../../nios2-elf/lib\libc.a(lib_a-sbrkr.o)
 .data          0x0084b93c        0x0 c:/altera/13.0/nios2eds/bin/gnu/h-i686-mingw32/bin/../lib/gcc/nios2-elf/4.1.2/../../../../nios2-elf/lib\libc.a(lib_a-stdio.o)
 .data          0x0084b93c        0x0 c:/altera/13.0/nios2eds/bin/gnu/h-i686-mingw32/bin/../lib/gcc/nios2-elf/4.1.2/../../../../nios2-elf/lib\libc.a(lib_a-strcmp.o)
 .data          0x0084b93c        0x0 c:/altera/13.0/nios2eds/bin/gnu/h-i686-mingw32/bin/../lib/gcc/nios2-elf/4.1.2/../../../../nios2-elf/lib\libc.a(lib_a-writer.o)
 .data          0x0084b93c        0x0 c:/altera/13.0/nios2eds/bin/gnu/h-i686-mingw32/bin/../lib/gcc/nios2-elf/4.1.2/../../../../nios2-elf/lib\libc.a(lib_a-callocr.o)
 .data          0x0084b93c        0x0 c:/altera/13.0/nios2eds/bin/gnu/h-i686-mingw32/bin/../lib/gcc/nios2-elf/4.1.2/../../../../nios2-elf/lib\libc.a(lib_a-closer.o)
 .data          0x0084b93c        0x0 c:/altera/13.0/nios2eds/bin/gnu/h-i686-mingw32/bin/../lib/gcc/nios2-elf/4.1.2/../../../../nios2-elf/lib\libc.a(lib_a-fclose.o)
 .data          0x0084b93c        0x0 c:/altera/13.0/nios2eds/bin/gnu/h-i686-mingw32/bin/../lib/gcc/nios2-elf/4.1.2/../../../../nios2-elf/lib\libc.a(lib_a-fstatr.o)
 .data          0x0084b93c        0x0 c:/altera/13.0/nios2eds/bin/gnu/h-i686-mingw32/bin/../lib/gcc/nios2-elf/4.1.2/../../../../nios2-elf/lib\libc.a(lib_a-int_errno.o)
 .data          0x0084b93c        0x0 c:/altera/13.0/nios2eds/bin/gnu/h-i686-mingw32/bin/../lib/gcc/nios2-elf/4.1.2/../../../../nios2-elf/lib\libc.a(lib_a-isattyr.o)
 .data          0x0084b93c        0x0 c:/altera/13.0/nios2eds/bin/gnu/h-i686-mingw32/bin/../lib/gcc/nios2-elf/4.1.2/../../../../nios2-elf/lib\libc.a(lib_a-lseekr.o)
 .data          0x0084b93c        0x0 c:/altera/13.0/nios2eds/bin/gnu/h-i686-mingw32/bin/../lib/gcc/nios2-elf/4.1.2/../../../../nios2-elf/lib\libc.a(lib_a-readr.o)
 .data          0x0084b93c        0x0 c:/altera/13.0/nios2eds/bin/gnu/h-i686-mingw32/bin/../lib/gcc/nios2-elf/4.1.2\libgcc.a(_udivdi3.o)
 .data          0x0084b93c        0x0 c:/altera/13.0/nios2eds/bin/gnu/h-i686-mingw32/bin/../lib/gcc/nios2-elf/4.1.2\libgcc.a(_umoddi3.o)
 .data          0x0084b93c        0x0 c:/altera/13.0/nios2eds/bin/gnu/h-i686-mingw32/bin/../lib/gcc/nios2-elf/4.1.2\libgcc.a(_div_df.o)
 .data          0x0084b93c        0x0 c:/altera/13.0/nios2eds/bin/gnu/h-i686-mingw32/bin/../lib/gcc/nios2-elf/4.1.2\libgcc.a(_eq_df.o)
 .data          0x0084b93c        0x0 c:/altera/13.0/nios2eds/bin/gnu/h-i686-mingw32/bin/../lib/gcc/nios2-elf/4.1.2\libgcc.a(_ne_df.o)
 .data          0x0084b93c        0x0 c:/altera/13.0/nios2eds/bin/gnu/h-i686-mingw32/bin/../lib/gcc/nios2-elf/4.1.2\libgcc.a(_gt_df.o)
 .data          0x0084b93c        0x0 c:/altera/13.0/nios2eds/bin/gnu/h-i686-mingw32/bin/../lib/gcc/nios2-elf/4.1.2\libgcc.a(_lt_df.o)
 .data          0x0084b93c        0x0 c:/altera/13.0/nios2eds/bin/gnu/h-i686-mingw32/bin/../lib/gcc/nios2-elf/4.1.2\libgcc.a(_si_to_df.o)
 .data          0x0084b93c        0x0 c:/altera/13.0/nios2eds/bin/gnu/h-i686-mingw32/bin/../lib/gcc/nios2-elf/4.1.2\libgcc.a(lib2-divmod.o)
 .data          0x0084b93c        0x0 ../socket_simples_bsp/\libucosii_bsp.a(alt_exit.o)
 .data          0x0084b93c        0x0 ../socket_simples_bsp/\libucosii_bsp.a(alt_flash_dev.o)
 .data          0x0084b93c        0x0 ../socket_simples_bsp/\libucosii_bsp.a(alt_fstat.o)
 .data          0x0084b93c        0x0 ../socket_simples_bsp/\libucosii_bsp.a(alt_irq_register.o)
 .data          0x0084b93c        0x0 ../socket_simples_bsp/\libucosii_bsp.a(alt_irq_vars.o)
 .data          0x0084b93c        0x0 ../socket_simples_bsp/\libucosii_bsp.a(alt_isatty.o)
 .data          0x0084b93c        0x0 ../socket_simples_bsp/\libucosii_bsp.a(alt_lseek.o)
 .data          0x0084b93c        0x0 ../socket_simples_bsp/\libucosii_bsp.a(alt_main.o)
 .data          0x0084b93c        0x0 ../socket_simples_bsp/\libucosii_bsp.a(alt_sbrk.o)
 .data          0x0084b93c        0x0 ../socket_simples_bsp/\libucosii_bsp.a(alt_usleep.o)
 .data          0x0084b93c        0x0 ../socket_simples_bsp/\libucosii_bsp.a(alt_env_lock.o)
 .data          0x0084b93c        0x0 ../socket_simples_bsp/\libucosii_bsp.a(alt_malloc_lock.o)
 .data          0x0084b93c        0x0 ../socket_simples_bsp/\libucosii_bsp.a(os_core.o)
 .data          0x0084b93c        0x0 ../socket_simples_bsp/\libucosii_bsp.a(os_dbg.o)
 .data          0x0084b93c        0x0 ../socket_simples_bsp/\libucosii_bsp.a(os_flag.o)
 .data          0x0084b93c        0x0 ../socket_simples_bsp/\libucosii_bsp.a(os_mem.o)
 .data          0x0084b93c        0x0 ../socket_simples_bsp/\libucosii_bsp.a(os_q.o)
 .data          0x0084b93c        0x0 ../socket_simples_bsp/\libucosii_bsp.a(os_sem.o)
 .data          0x0084b93c        0x0 ../socket_simples_bsp/\libucosii_bsp.a(os_task.o)
 .data          0x0084b93c        0x0 ../socket_simples_bsp/\libucosii_bsp.a(os_time.o)
 .data          0x0084b93c     0x1400 ../socket_simples_bsp/\libucosii_bsp.a(alt_sys_init.o)
 .data          0x0084cd3c        0x0 ../socket_simples_bsp/\libucosii_bsp.a(altera_avalon_cfi_flash.o)
 .data          0x0084cd3c        0x0 ../socket_simples_bsp/\libucosii_bsp.a(altera_avalon_cfi_flash_table.o)
 .data          0x0084cd3c        0x0 ../socket_simples_bsp/\libucosii_bsp.a(altera_avalon_epcs_flash_controller.o)
 .data          0x0084cd3c        0x0 ../socket_simples_bsp/\libucosii_bsp.a(altera_avalon_jtag_uart_fd.o)
 .data          0x0084cd3c        0x0 ../socket_simples_bsp/\libucosii_bsp.a(altera_avalon_jtag_uart_init.o)
 .data          0x0084cd3c        0x0 ../socket_simples_bsp/\libucosii_bsp.a(altera_avalon_jtag_uart_ioctl.o)
 .data          0x0084cd3c        0x0 ../socket_simples_bsp/\libucosii_bsp.a(altera_avalon_jtag_uart_read.o)
 .data          0x0084cd3c        0x0 ../socket_simples_bsp/\libucosii_bsp.a(altera_avalon_jtag_uart_write.o)
 .data          0x0084cd3c        0x0 ../socket_simples_bsp/\libucosii_bsp.a(altera_avalon_lcd_16207.o)
 .data          0x0084cd3c        0x0 ../socket_simples_bsp/\libucosii_bsp.a(altera_avalon_lcd_16207_fd.o)
 .data          0x0084cd3c        0x0 ../socket_simples_bsp/\libucosii_bsp.a(altera_avalon_timer_sc.o)
 .data          0x0084cd3c        0x0 ../socket_simples_bsp/\libucosii_bsp.a(altera_avalon_uart_fd.o)
 .data          0x0084cd3c        0x0 ../socket_simples_bsp/\libucosii_bsp.a(altera_avalon_uart_init.o)
 .data          0x0084cd3c        0x0 ../socket_simples_bsp/\libucosii_bsp.a(altera_avalon_uart_read.o)
 .data          0x0084cd3c        0x0 ../socket_simples_bsp/\libucosii_bsp.a(altera_avalon_uart_write.o)
 .data          0x0084cd3c        0x0 ../socket_simples_bsp/\libucosii_bsp.a(epcs_commands.o)
 .data          0x0084cd3c        0x0 ../socket_simples_bsp/\libucosii_bsp.a(alt_iniche_close.o)
 .data          0x0084cd3c        0x0 ../socket_simples_bsp/\libucosii_bsp.a(alt_iniche_dev.o)
 .data          0x0084cd3c        0x0 ../socket_simples_bsp/\libucosii_bsp.a(alt_iniche_read.o)
 .data          0x0084cd3c        0x0 ../socket_simples_bsp/\libucosii_bsp.a(alt_iniche_write.o)
 .data          0x0084cd3c        0x0 ../socket_simples_bsp/\libucosii_bsp.a(ipnet.o)
 .data          0x0084cd3c        0x0 ../socket_simples_bsp/\libucosii_bsp.a(ipstart.o)
 .data          0x0084cd3c        0x0 ../socket_simples_bsp/\libucosii_bsp.a(igmp_cmn.o)
 .data          0x0084cd3c        0x0 ../socket_simples_bsp/\libucosii_bsp.a(bsdsock.o)
 .data          0x0084cd3c        0x0 ../socket_simples_bsp/\libucosii_bsp.a(cksum.o)
 .data          0x0084cd3c        0x0 ../socket_simples_bsp/\libucosii_bsp.a(in_utils.o)
 .data          0x0084cd3c       0x30 ../socket_simples_bsp/\libucosii_bsp.a(netmain.o)
                0x0084cd3c                nettasks
 .data          0x0084cd6c        0x0 ../socket_simples_bsp/\libucosii_bsp.a(parseip.o)
 .data          0x0084cd6c        0x0 ../socket_simples_bsp/\libucosii_bsp.a(tk_crnos.o)
 .data          0x0084cd6c        0x0 ../socket_simples_bsp/\libucosii_bsp.a(dhcpclnt.o)
 .data          0x0084cd6c        0x0 ../socket_simples_bsp/\libucosii_bsp.a(dhcputil.o)
 .data          0x0084cd6c        0x0 ../socket_simples_bsp/\libucosii_bsp.a(pktalloc.o)
 .data          0x0084cd6c        0x0 ../socket_simples_bsp/\libucosii_bsp.a(q.o)
 .data          0x0084cd6c        0x0 ../socket_simples_bsp/\libucosii_bsp.a(udp_open.o)
 .data          0x0084cd6c        0x0 ../socket_simples_bsp/\libucosii_bsp.a(asm_cksum.o)
 .data          0x0084cd6c        0x0 ../socket_simples_bsp/\libucosii_bsp.a(brdutils.o)
 .data          0x0084cd6c        0x0 ../socket_simples_bsp/\libucosii_bsp.a(osportco.o)
 .data          0x0084cd6c        0x0 ../socket_simples_bsp/\libucosii_bsp.a(targnios.o)
 .data          0x0084cd6c       0x48 ../socket_simples_bsp/\libucosii_bsp.a(nptcp.o)
                0x0084cd6c                tcp_protosw
                0x0084cd84                udp_protosw
                0x0084cd9c                rawip_protosw
 .data          0x0084cdb4        0x0 ../socket_simples_bsp/\libucosii_bsp.a(rawsock.o)
 .data          0x0084cdb4        0x0 ../socket_simples_bsp/\libucosii_bsp.a(sockcall.o)
 .data          0x0084cdb4        0x0 ../socket_simples_bsp/\libucosii_bsp.a(socket.o)
 .data          0x0084cdb4        0x0 ../socket_simples_bsp/\libucosii_bsp.a(socket2.o)
 .data          0x0084cdb4        0x0 ../socket_simples_bsp/\libucosii_bsp.a(soselect.o)
 .data          0x0084cdb4        0x0 ../socket_simples_bsp/\libucosii_bsp.a(tcp_in.o)
 .data          0x0084cdb4        0xc ../socket_simples_bsp/\libucosii_bsp.a(tcp_out.o)
                0x0084cdb4                tcp_outflags
 .data          0x0084cdc0        0x0 ../socket_simples_bsp/\libucosii_bsp.a(tcp_subr.o)
 .data          0x0084cdc0       0x10 ../socket_simples_bsp/\libucosii_bsp.a(tcp_timr.o)
                0x0084cdc0                tcp_backoff
 .data          0x0084cdd0        0x0 ../socket_simples_bsp/\libucosii_bsp.a(tcp_usr.o)
 .data          0x0084cdd0        0x0 ../socket_simples_bsp/\libucosii_bsp.a(tcpport.o)
 .data          0x0084cdd0        0x0 ../socket_simples_bsp/\libucosii_bsp.a(udpsock.o)
 .data          0x0084cdd0        0x0 ../socket_simples_bsp/\libucosii_bsp.a(alt_alarm_start.o)
 .data          0x0084cdd0        0x0 ../socket_simples_bsp/\libucosii_bsp.a(alt_busy_sleep.o)
 .data          0x0084cdd0        0x0 ../socket_simples_bsp/\libucosii_bsp.a(alt_close.o)
 .data          0x0084cdd0        0x0 ../socket_simples_bsp/\libucosii_bsp.a(alt_dcache_flush.o)
 .data          0x0084cdd0      0x1a8 ../socket_simples_bsp/\libucosii_bsp.a(alt_dev.o)
                0x0084cdd0                alt_dev_null
                0x0084cdf8                alt_fd_list
 .data          0x0084cf78        0x0 ../socket_simples_bsp/\libucosii_bsp.a(alt_dev_llist_insert.o)
 .data          0x0084cf78        0x0 ../socket_simples_bsp/\libucosii_bsp.a(alt_do_ctors.o)
 .data          0x0084cf78        0x0 ../socket_simples_bsp/\libucosii_bsp.a(alt_do_dtors.o)
 .data          0x0084cf78        0x0 ../socket_simples_bsp/\libucosii_bsp.a(alt_errno.o)
 .data          0x0084cf78        0x0 ../socket_simples_bsp/\libucosii_bsp.a(alt_find_dev.o)
 .data          0x0084cf78        0x0 ../socket_simples_bsp/\libucosii_bsp.a(alt_iic.o)
 .data          0x0084cf78        0x0 ../socket_simples_bsp/\libucosii_bsp.a(alt_iic_isr_register.o)
 .data          0x0084cf78        0x0 ../socket_simples_bsp/\libucosii_bsp.a(alt_io_redirect.o)
 .data          0x0084cf78        0x0 ../socket_simples_bsp/\libucosii_bsp.a(alt_irq_entry.o)
 .data          0x0084cf78        0x0 ../socket_simples_bsp/\libucosii_bsp.a(alt_irq_handler.o)
 .data          0x0084cf78        0x0 ../socket_simples_bsp/\libucosii_bsp.a(alt_open.o)
 .data          0x0084cf78        0x0 ../socket_simples_bsp/\libucosii_bsp.a(alt_read.o)
 .data          0x0084cf78        0x0 ../socket_simples_bsp/\libucosii_bsp.a(alt_release_fd.o)
 .data          0x0084cf78        0x0 ../socket_simples_bsp/\libucosii_bsp.a(alt_remap_cached.o)
 .data          0x0084cf78        0x0 ../socket_simples_bsp/\libucosii_bsp.a(alt_remap_uncached.o)
 .data          0x0084cf78        0x0 ../socket_simples_bsp/\libucosii_bsp.a(alt_tick.o)
 .data          0x0084cf78        0x0 ../socket_simples_bsp/\libucosii_bsp.a(alt_write.o)
 .data          0x0084cf78        0x0 ../socket_simples_bsp/\libucosii_bsp.a(altera_nios2_qsys_irq.o)
 .data          0x0084cf78        0x0 ../socket_simples_bsp/\libucosii_bsp.a(os_cpu_a.o)
 .data          0x0084cf78        0x0 ../socket_simples_bsp/\libucosii_bsp.a(os_cpu_c.o)
 .data          0x0084cf78        0x0 ../socket_simples_bsp/\libucosii_bsp.a(altera_avalon_cfi_flash_amd.o)
 .data          0x0084cf78        0x0 ../socket_simples_bsp/\libucosii_bsp.a(altera_avalon_cfi_flash_intel.o)
 .data          0x0084cf78        0x0 ../socket_simples_bsp/\libucosii_bsp.a(altera_avalon_spi.o)
 .data          0x0084cf78       0x18 ../socket_simples_bsp/\libucosii_bsp.a(allports.o)
                0x0084cf78                icmpdu_types
 .data          0x0084cf90        0x0 ../socket_simples_bsp/\libucosii_bsp.a(timeouts.o)
 .data          0x0084cf90        0x0 ../socket_simples_bsp/\libucosii_bsp.a(tk_misc.o)
 .data          0x0084cf90        0x0 ../socket_simples_bsp/\libucosii_bsp.a(alt_iniche_fcntl.o)
 .data          0x0084cf90        0x0 ../socket_simples_bsp/\libucosii_bsp.a(et_arp.o)
 .data          0x0084cf90        0x0 ../socket_simples_bsp/\libucosii_bsp.a(iface.o)
 .data          0x0084cf90        0x0 ../socket_simples_bsp/\libucosii_bsp.a(ip.o)
 .data          0x0084cf90        0x0 ../socket_simples_bsp/\libucosii_bsp.a(ip_reasm.o)
 .data          0x0084cf90        0x0 ../socket_simples_bsp/\libucosii_bsp.a(ipdemux.o)
 .data          0x0084cf90        0x0 ../socket_simples_bsp/\libucosii_bsp.a(ipmc.o)
 .data          0x0084cf90        0x0 ../socket_simples_bsp/\libucosii_bsp.a(ipport.o)
 .data          0x0084cf90        0x0 ../socket_simples_bsp/\libucosii_bsp.a(ipraw.o)
 .data          0x0084cf90        0xc ../socket_simples_bsp/\libucosii_bsp.a(iproute.o)
                0x0084cf90                rtp_priority
 .data          0x0084cf9c        0x0 ../socket_simples_bsp/\libucosii_bsp.a(udp.o)
 .data          0x0084cf9c        0x0 ../socket_simples_bsp/\libucosii_bsp.a(igmp.o)
 .data          0x0084cf9c        0x0 ../socket_simples_bsp/\libucosii_bsp.a(igmp2.o)
 .data          0x0084cf9c        0x0 ../socket_simples_bsp/\libucosii_bsp.a(ipopt.o)
 .data          0x0084cf9c        0x0 ../socket_simples_bsp/\libucosii_bsp.a(u_mctest.o)
 .data          0x0084cf9c        0x0 ../socket_simples_bsp/\libucosii_bsp.a(dhcsetup.o)
 .data          0x0084cf9c       0xd4 ../socket_simples_bsp/\libucosii_bsp.a(memdev.o)
                0x0084cf9c                mdio
                0x0084cfc0                mdlist
 .data          0x0084d070        0x0 ../socket_simples_bsp/\libucosii_bsp.a(tcpcksum.o)
 .data          0x0084d070        0x0 ../socket_simples_bsp/\libucosii_bsp.a(in_pcb.o)
 .data          0x0084d070       0x80 ../socket_simples_bsp/\libucosii_bsp.a(vfsfiles.o)
                0x0084d070                vfs_root_path
 .data          0x0084d0f0        0x0 ../socket_simples_bsp/\libucosii_bsp.a(vfsport.o)
 .data          0x0084d0f0        0x0 ../socket_simples_bsp/\libucosii_bsp.a(alt_exception_entry.o)
 .data          0x0084d0f0        0x0 ../socket_simples_bsp/\libucosii_bsp.a(alt_fcntl.o)
 .data          0x0084d0f0        0x0 ../socket_simples_bsp/\libucosii_bsp.a(alt_find_file.o)
 .data          0x0084d0f0        0x0 ../socket_simples_bsp/\libucosii_bsp.a(alt_get_fd.o)
 .data          0x0084d0f0       0x18 ../socket_simples_bsp/\libucosii_bsp.a(icmp.o)
 .data          0x0084d108        0x0 c:/altera/13.0/nios2eds/bin/gnu/h-i686-mingw32/bin/../lib/gcc/nios2-elf/4.1.2/../../../../nios2-elf/lib\libc.a(lib_a-atexit.o)
 .data          0x0084d108        0x0 c:/altera/13.0/nios2eds/bin/gnu/h-i686-mingw32/bin/../lib/gcc/nios2-elf/4.1.2/../../../../nios2-elf/lib\libc.a(lib_a-atoi.o)
 .data          0x0084d108        0x0 c:/altera/13.0/nios2eds/bin/gnu/h-i686-mingw32/bin/../lib/gcc/nios2-elf/4.1.2/../../../../nios2-elf/lib\libc.a(lib_a-calloc.o)
 .data          0x0084d108        0x0 c:/altera/13.0/nios2eds/bin/gnu/h-i686-mingw32/bin/../lib/gcc/nios2-elf/4.1.2/../../../../nios2-elf/lib\libc.a(lib_a-malloc.o)
 .data          0x0084d108        0x0 c:/altera/13.0/nios2eds/bin/gnu/h-i686-mingw32/bin/../lib/gcc/nios2-elf/4.1.2/../../../../nios2-elf/lib\libc.a(lib_a-memcmp.o)
 .data          0x0084d108        0x0 c:/altera/13.0/nios2eds/bin/gnu/h-i686-mingw32/bin/../lib/gcc/nios2-elf/4.1.2/../../../../nios2-elf/lib\libc.a(lib_a-sprintf.o)
 .data          0x0084d108        0x0 c:/altera/13.0/nios2eds/bin/gnu/h-i686-mingw32/bin/../lib/gcc/nios2-elf/4.1.2/../../../../nios2-elf/lib\libc.a(lib_a-strcpy.o)
 .data          0x0084d108        0x0 c:/altera/13.0/nios2eds/bin/gnu/h-i686-mingw32/bin/../lib/gcc/nios2-elf/4.1.2/../../../../nios2-elf/lib\libc.a(lib_a-strncmp.o)
 .data          0x0084d108        0x0 c:/altera/13.0/nios2eds/bin/gnu/h-i686-mingw32/bin/../lib/gcc/nios2-elf/4.1.2/../../../../nios2-elf/lib\libc.a(lib_a-strncpy.o)
 .data          0x0084d108        0x0 c:/altera/13.0/nios2eds/bin/gnu/h-i686-mingw32/bin/../lib/gcc/nios2-elf/4.1.2/../../../../nios2-elf/lib\libc.a(lib_a-strtol.o)
 .data          0x0084d108        0x0 c:/altera/13.0/nios2eds/bin/gnu/h-i686-mingw32/bin/../lib/gcc/nios2-elf/4.1.2/../../../../nios2-elf/lib\libc.a(lib_a-vprintf.o)
 .data          0x0084d108        0x0 c:/altera/13.0/nios2eds/bin/gnu/h-i686-mingw32/bin/../lib/gcc/nios2-elf/4.1.2/../../../../nios2-elf/lib\libc.a(lib_a-vsprintf.o)
 .data          0x0084d108        0x0 c:/altera/13.0/nios2eds/bin/gnu/h-i686-mingw32/bin/../lib/gcc/nios2-elf/4.1.2/../../../../nios2-elf/lib\libc.a(lib_a-__atexit.o)
                0x00855108                _gp = ABSOLUTE ((. + 0x8000))
                0x00855108                PROVIDE (gp, _gp)
 *(.rwdata .rwdata.*)
 *(.sdata .sdata.* .gnu.linkonce.s.*)
 .sdata         0x0084d108        0x4 c:/altera/13.0/nios2eds/bin/gnu/h-i686-mingw32/bin/../lib/gcc/nios2-elf/4.1.2/../../../../nios2-elf/lib\libc.a(lib_a-ctype_.o)
                0x0084d108                __ctype_ptr
 .sdata         0x0084d10c        0x8 c:/altera/13.0/nios2eds/bin/gnu/h-i686-mingw32/bin/../lib/gcc/nios2-elf/4.1.2/../../../../nios2-elf/lib\libc.a(lib_a-impure.o)
                0x0084d10c                _impure_ptr
                0x0084d110                _global_impure_ptr
 .sdata         0x0084d114        0x8 c:/altera/13.0/nios2eds/bin/gnu/h-i686-mingw32/bin/../lib/gcc/nios2-elf/4.1.2/../../../../nios2-elf/lib\libc.a(lib_a-locale.o)
                0x0084d114                __mb_cur_max
 .sdata         0x0084d11c        0x8 c:/altera/13.0/nios2eds/bin/gnu/h-i686-mingw32/bin/../lib/gcc/nios2-elf/4.1.2/../../../../nios2-elf/lib\libc.a(lib_a-mallocr.o)
                0x0084d11c                __malloc_trim_threshold
                0x0084d120                __malloc_sbrk_base
 .sdata         0x0084d124        0x8 ../socket_simples_bsp/\libucosii_bsp.a(alt_flash_dev.o)
                0x0084d124                alt_flash_dev_list
 .sdata         0x0084d12c        0x4 ../socket_simples_bsp/\libucosii_bsp.a(alt_irq_vars.o)
                0x0084d12c                alt_priority_mask
 .sdata         0x0084d130        0x4 ../socket_simples_bsp/\libucosii_bsp.a(alt_sbrk.o)
 .sdata         0x0084d134        0x4 ../socket_simples_bsp/\libucosii_bsp.a(alt_env_lock.o)
 .sdata         0x0084d138        0x4 ../socket_simples_bsp/\libucosii_bsp.a(alt_malloc_lock.o)
 .sdata         0x0084d13c       0x74 ../socket_simples_bsp/\libucosii_bsp.a(os_dbg.o)
                0x0084d13c                OSDebugEn
                0x0084d140                OSEndiannessTest
                0x0084d144                OSEventEn
                0x0084d146                OSEventMax
                0x0084d148                OSEventNameSize
                0x0084d14a                OSEventSize
                0x0084d14c                OSEventTblSize
                0x0084d14e                OSEventMultiEn
                0x0084d150                OSFlagEn
                0x0084d152                OSFlagGrpSize
                0x0084d154                OSFlagNodeSize
                0x0084d156                OSFlagWidth
                0x0084d158                OSFlagMax
                0x0084d15a                OSFlagNameSize
                0x0084d15c                OSLowestPrio
                0x0084d15e                OSMboxEn
                0x0084d160                OSMemEn
                0x0084d162                OSMemMax
                0x0084d164                OSMemNameSize
                0x0084d166                OSMemSize
                0x0084d168                OSMemTblSize
                0x0084d16a                OSMutexEn
                0x0084d16c                OSPtrSize
                0x0084d16e                OSQEn
                0x0084d170                OSQMax
                0x0084d172                OSQSize
                0x0084d174                OSRdyTblSize
                0x0084d176                OSSemEn
                0x0084d178                OSStkWidth
                0x0084d17a                OSTaskCreateEn
                0x0084d17c                OSTaskCreateExtEn
                0x0084d17e                OSTaskDelEn
                0x0084d180                OSTaskIdleStkSize
                0x0084d182                OSTaskProfileEn
                0x0084d184                OSTaskMax
                0x0084d186                OSTaskNameSize
                0x0084d188                OSTaskStatEn
                0x0084d18a                OSTaskStatStkSize
                0x0084d18c                OSTaskStatStkChkEn
                0x0084d18e                OSTaskSwHookEn
                0x0084d190                OSTCBPrioTblMax
                0x0084d192                OSTCBSize
                0x0084d194                OSTicksPerSec
                0x0084d196                OSTimeTickHookEn
                0x0084d198                OSVersionNbr
                0x0084d19a                OSTmrEn
                0x0084d19c                OSTmrCfgMax
                0x0084d19e                OSTmrCfgNameSize
                0x0084d1a0                OSTmrCfgWheelSize
                0x0084d1a2                OSTmrCfgTicksPerSec
                0x0084d1a4                OSTmrSize
                0x0084d1a6                OSTmrTblSize
                0x0084d1a8                OSTmrWheelSize
                0x0084d1aa                OSTmrWheelTblSize
                0x0084d1ac                OSDataSize
 .sdata         0x0084d1b0        0x4 ../socket_simples_bsp/\libucosii_bsp.a(altera_avalon_lcd_16207.o)
 .sdata         0x0084d1b4        0x8 ../socket_simples_bsp/\libucosii_bsp.a(alt_iniche_dev.o)
                0x0084d1b4                alt_iniche_dev_list
 .sdata         0x0084d1bc        0x4 ../socket_simples_bsp/\libucosii_bsp.a(ipstart.o)
                0x0084d1bc                ipmcfail_str
 .sdata         0x0084d1c0        0x4 ../socket_simples_bsp/\libucosii_bsp.a(cksum.o)
 .sdata         0x0084d1c4        0x4 ../socket_simples_bsp/\libucosii_bsp.a(netmain.o)
                0x0084d1c4                num_net_tasks
 .sdata         0x0084d1c8        0x4 ../socket_simples_bsp/\libucosii_bsp.a(parseip.o)
                0x0084d1c8                pton_error
 .sdata         0x0084d1cc        0xc ../socket_simples_bsp/\libucosii_bsp.a(dhcpclnt.o)
                0x0084d1cc                xids
                0x0084d1d0                reqlist
                0x0084d1d4                reqlist_len
 .sdata         0x0084d1d8       0x10 ../socket_simples_bsp/\libucosii_bsp.a(pktalloc.o)
                0x0084d1d8                lilbufs
                0x0084d1dc                lilbufsiz
                0x0084d1e0                bigbufs
                0x0084d1e4                bigbufsiz
 .sdata         0x0084d1e8        0x4 ../socket_simples_bsp/\libucosii_bsp.a(brdutils.o)
                0x0084d1e8                kb_last
 .sdata         0x0084d1ec        0x4 ../socket_simples_bsp/\libucosii_bsp.a(nptcp.o)
                0x0084d1ec                TCPTV_MSL
 .sdata         0x0084d1f0        0x2 ../socket_simples_bsp/\libucosii_bsp.a(socket.o)
                0x0084d1f0                socket_defaults
 .sdata         0x0084d1f2        0x1 ../socket_simples_bsp/\libucosii_bsp.a(tcp_in.o)
                0x0084d1f2                tcprexmtthresh
 *fill*         0x0084d1f3        0x1 00
 .sdata         0x0084d1f4        0x4 ../socket_simples_bsp/\libucosii_bsp.a(tcp_subr.o)
                0x0084d1f4                tcp_ttl
 .sdata         0x0084d1f8        0x8 ../socket_simples_bsp/\libucosii_bsp.a(tcp_timr.o)
                0x0084d1f8                tcp_keepidle
                0x0084d1fc                tcp_keepintvl
 .sdata         0x0084d200        0x8 ../socket_simples_bsp/\libucosii_bsp.a(tcp_usr.o)
                0x0084d200                tcp_sendspace
                0x0084d204                tcp_recvspace
 .sdata         0x0084d208       0x14 ../socket_simples_bsp/\libucosii_bsp.a(alt_dev.o)
                0x0084d208                alt_fs_list
                0x0084d210                alt_dev_list
                0x0084d218                alt_max_fd
 .sdata         0x0084d21c        0x4 ../socket_simples_bsp/\libucosii_bsp.a(alt_errno.o)
                0x0084d21c                alt_errno
 .sdata         0x0084d220        0x8 ../socket_simples_bsp/\libucosii_bsp.a(alt_tick.o)
                0x0084d220                alt_alarm_list
 .sdata         0x0084d228       0x10 ../socket_simples_bsp/\libucosii_bsp.a(allports.o)
                0x0084d228                name
                0x0084d22c                prompt
                0x0084d230                pingdelay
                0x0084d234                deflength
 .sdata         0x0084d238        0x4 ../socket_simples_bsp/\libucosii_bsp.a(et_arp.o)
                0x0084d238                arp_ageout
 .sdata         0x0084d23c        0x8 ../socket_simples_bsp/\libucosii_bsp.a(ip.o)
                0x0084d240                ipRoutes
 .sdata         0x0084d244        0x4 ../socket_simples_bsp/\libucosii_bsp.a(u_mctest.o)
 .sdata         0x0084d248        0x4 ../socket_simples_bsp/\libucosii_bsp.a(memdev.o)
                0x0084d248                mdlist_size
 .sdata         0x0084d24c        0x4 ../socket_simples_bsp/\libucosii_bsp.a(vfsfiles.o)
                0x0084d24c                http_root_path
 *(.sdata2 .sdata2.* .gnu.linkonce.s2.*)
                0x0084d250                . = ALIGN (0x4)
                0x0084d250                _edata = ABSOLUTE (.)
                0x0084d250                PROVIDE (edata, ABSOLUTE (.))
                0x0084d250                PROVIDE (__ram_rwdata_end, ABSOLUTE (.))
                0x0084b110                PROVIDE (__flash_rwdata_start, LOADADDR (.rwdata))

.bss            0x0084d250     0xaa2c
                0x0084d250                __bss_start = ABSOLUTE (.)
                0x0084d250                PROVIDE (__sbss_start, ABSOLUTE (.))
                0x0084d250                PROVIDE (___sbss_start, ABSOLUTE (.))
 *(.dynsbss)
 *(.sbss .sbss.* .gnu.linkonce.sb.*)
 .sbss          0x0084d250        0x8 obj/default/SSS_DE2_115.o
                0x0084d250                last_flash_sector_offset
                0x0084d254                last_flash_sector
 .sbss          0x0084d258        0x8 obj/default/dm9000a.o
                0x0084d258                autoReset
                0x0084d25c                netisrs
 .sbss          0x0084d260        0x1 obj/default/iniche_init.o
                0x0084d260                to_ssstask
 *fill*         0x0084d261        0x3 00
 .sbss          0x0084d264       0x10 obj/default/simple_socket_server.o
                0x0084d268                SSSLEDCommandQ
                0x0084d26c                SSSLEDLightshowSem
                0x0084d270                SSSLEDEventFlag
 .sbss          0x0084d274        0xc c:/altera/13.0/nios2eds/bin/gnu/h-i686-mingw32/bin/../lib/gcc/nios2-elf/4.1.2/../../../../nios2-elf/lib\libc.a(lib_a-locale.o)
                0x0084d274                __nlocale_changed
                0x0084d278                __mlocale_changed
                0x0084d27c                _PathLocale
 .sbss          0x0084d280        0xc c:/altera/13.0/nios2eds/bin/gnu/h-i686-mingw32/bin/../lib/gcc/nios2-elf/4.1.2/../../../../nios2-elf/lib\libc.a(lib_a-mallocr.o)
                0x0084d280                __malloc_top_pad
                0x0084d284                __malloc_max_sbrked_mem
                0x0084d288                __malloc_max_total_mem
 .sbss          0x0084d28c        0x4 c:/altera/13.0/nios2eds/bin/gnu/h-i686-mingw32/bin/../lib/gcc/nios2-elf/4.1.2/../../../../nios2-elf/lib\libc.a(lib_a-int_errno.o)
                0x0084d28c                errno
 .sbss          0x0084d290        0x4 ../socket_simples_bsp/\libucosii_bsp.a(alt_irq_vars.o)
                0x0084d290                alt_irq_active
 .sbss          0x0084d294        0xc ../socket_simples_bsp/\libucosii_bsp.a(alt_main.o)
                0x0084d294                alt_argc
                0x0084d298                alt_argv
                0x0084d29c                alt_envp
 .sbss          0x0084d2a0        0x8 ../socket_simples_bsp/\libucosii_bsp.a(alt_env_lock.o)
                0x0084d2a4                alt_envsem
 .sbss          0x0084d2a8        0x8 ../socket_simples_bsp/\libucosii_bsp.a(alt_malloc_lock.o)
                0x0084d2ac                alt_heapsem
 .sbss          0x0084d2b0       0x54 ../socket_simples_bsp/\libucosii_bsp.a(os_core.o)
                0x0084d2b0                OSLockNesting
                0x0084d2b1                OSRunning
                0x0084d2b4                OSIdleCtr
                0x0084d2b8                OSPrioHighRdy
                0x0084d2b9                OSPrioCur
                0x0084d2bc                OSTCBList
                0x0084d2c0                OSTickStepState
                0x0084d2c4                OSCtxSwCtr
                0x0084d2c8                OSIdleCtrMax
                0x0084d2cc                OSTCBFreeList
                0x0084d2d0                OSCPUUsage
                0x0084d2d1                OSTaskCtr
                0x0084d2d4                OSMemFreeList
                0x0084d2d8                OSTCBHighRdy
                0x0084d2dc                OSQFreeList
                0x0084d2e0                OSRdyGrp
                0x0084d2e4                OSRdyTbl
                0x0084d2e8                OSEventFreeList
                0x0084d2ec                OSIntNesting
                0x0084d2f0                OSTCBCur
                0x0084d2f4                OSTime
                0x0084d2f8                OSFlagFreeList
                0x0084d2fc                OSStatRdy
                0x0084d300                OSIdleCtrRun
 .sbss          0x0084d304        0xc ../socket_simples_bsp/\libucosii_bsp.a(ipnet.o)
                0x0084d304                MaxLnh
                0x0084d308                MaxMtu
                0x0084d30c                NDEBUG
 .sbss          0x0084d310        0x8 ../socket_simples_bsp/\libucosii_bsp.a(ipstart.o)
                0x0084d310                ifNumber
 .sbss          0x0084d318       0x10 ../socket_simples_bsp/\libucosii_bsp.a(igmp_cmn.o)
                0x0084d318                igmp_timers_are_running
                0x0084d31c                igmp_cticks
                0x0084d320                igmp_all_hosts_group
                0x0084d324                igmp_all_rtrs_group
 .sbss          0x0084d328        0xe ../socket_simples_bsp/\libucosii_bsp.a(netmain.o)
                0x0084d328                netmain_wakes
                0x0084d32c                nettick_wakes
                0x0084d330                iniche_net_ready
                0x0084d334                to_netmain
                0x0084d335                to_nettick
 *fill*         0x0084d336        0x2 00
 .sbss          0x0084d338        0x4 ../socket_simples_bsp/\libucosii_bsp.a(tk_crnos.o)
                0x0084d338                tcp_sleep_timeout
 .sbss          0x0084d33c       0x34 ../socket_simples_bsp/\libucosii_bsp.a(dhcpclnt.o)
                0x0084d33c                dhc_conn
                0x0084d340                dsc_errors
                0x0084d344                dsc_discovers
                0x0084d348                dsc_offers
                0x0084d34c                dsc_requests
                0x0084d350                dsc_acks
                0x0084d354                dsc_bpreplys
                0x0084d358                dsc_declines
                0x0084d35c                dsc_releases
                0x0084d360                dsc_naks
                0x0084d364                dsc_renew
                0x0084d368                dsc_rebind
                0x0084d36c                dsc_rlyerrs
 .sbss          0x0084d370        0x4 ../socket_simples_bsp/\libucosii_bsp.a(udp_open.o)
                0x0084d370                firstudp
 .sbss          0x0084d374       0x18 ../socket_simples_bsp/\libucosii_bsp.a(brdutils.o)
                0x0084d378                cticks_initialized
                0x0084d37c                irq_level
                0x0084d384                cticks_factor
                0x0084d388                OS_TPS
 .sbss          0x0084d38c       0x18 ../socket_simples_bsp/\libucosii_bsp.a(osportco.o)
                0x0084d38c                tcp_sleep_count
                0x0084d390                tcp_wakeup_count
                0x0084d394                netq_intmask
                0x0084d398                old_mode
                0x0084d39c                global_TCPwakeup_setIndx
                0x0084d3a0                cticks
 .sbss          0x0084d3a4        0xc ../socket_simples_bsp/\libucosii_bsp.a(targnios.o)
                0x0084d3a4                memtrapsize
                0x0084d3a8                mheap_sem_ptr
                0x0084d3ac                rcvdq_sem_ptr
 .sbss          0x0084d3b0       0x12 ../socket_simples_bsp/\libucosii_bsp.a(nptcp.o)
                0x0084d3b0                nextslow
                0x0084d3b8                mbstat
                0x0084d3c0                select_wait
 *fill*         0x0084d3c2        0x2 00
 .sbss          0x0084d3c4        0x8 ../socket_simples_bsp/\libucosii_bsp.a(tcp_in.o)
                0x0084d3c4                tcpprintfs
                0x0084d3c8                dropline
 .sbss          0x0084d3cc        0x4 ../socket_simples_bsp/\libucosii_bsp.a(tcp_out.o)
                0x0084d3cc                tcp_optionbuf
 .sbss          0x0084d3d0        0x8 ../socket_simples_bsp/\libucosii_bsp.a(tcp_timr.o)
                0x0084d3d0                tcp_maxidle
                0x0084d3d4                tcp_iss
 .sbss          0x0084d3d8        0x4 ../socket_simples_bsp/\libucosii_bsp.a(alt_dev.o)
                0x0084d3d8                alt_fd_list_lock
 .sbss          0x0084d3dc        0x8 ../socket_simples_bsp/\libucosii_bsp.a(alt_tick.o)
                0x0084d3dc                _alt_tick_rate
                0x0084d3e0                _alt_nticks
 .sbss          0x0084d3e4        0x8 ../socket_simples_bsp/\libucosii_bsp.a(allports.o)
                0x0084d3e4                activehost
 .sbss          0x0084d3ec        0xc ../socket_simples_bsp/\libucosii_bsp.a(timeouts.o)
                0x0084d3ec                nextppp
                0x0084d3f0                port_1s_callout
 .sbss          0x0084d3f8       0x1c ../socket_simples_bsp/\libucosii_bsp.a(et_arp.o)
                0x0084d3fc                arpcache
                0x0084d400                arpReqsIn
                0x0084d404                arpReqsOut
                0x0084d408                arpRepsIn
                0x0084d40c                arpRepsOut
 .sbss          0x0084d414        0x4 ../socket_simples_bsp/\libucosii_bsp.a(ip.o)
                0x0084d414                rt_mib
 .sbss          0x0084d418        0xc ../socket_simples_bsp/\libucosii_bsp.a(ip_reasm.o)
                0x0084d418                ipr_curr_mem
                0x0084d41c                h_ireq
                0x0084d420                ire_cticks
 .sbss          0x0084d424       0x11 ../socket_simples_bsp/\libucosii_bsp.a(ipport.o)
                0x0084d424                port_prep
                0x0084d428                net_system_exit
                0x0084d42c                so_evtmap_create
                0x0084d430                so_evtmap_delete
                0x0084d434                so_evtmap
 *fill*         0x0084d435        0x3 00
 .sbss          0x0084d438        0x4 ../socket_simples_bsp/\libucosii_bsp.a(ipraw.o)
                0x0084d438                ipraw_eps
 .sbss          0x0084d43c        0x4 ../socket_simples_bsp/\libucosii_bsp.a(iproute.o)
                0x0084d43c                cachedRoute
 .sbss          0x0084d440        0x2 ../socket_simples_bsp/\libucosii_bsp.a(udp.o)
 *fill*         0x0084d442        0x2 00
 .sbss          0x0084d444        0x8 ../socket_simples_bsp/\libucosii_bsp.a(in_pcb.o)
                0x0084d444                inpcb_cachehits
                0x0084d448                inpcb_cachemiss
 .sbss          0x0084d44c       0x20 ../socket_simples_bsp/\libucosii_bsp.a(vfsfiles.o)
                0x0084d44c                vfsystems
                0x0084d450                vfiles
                0x0084d454                vfsfiles
                0x0084d458                vfopen_error
                0x0084d45c                vfs_dir_stale
                0x0084d460                vfs_open_files
                0x0084d464                vfs_total_rw_space
                0x0084d468                vfs_total_dyna_files
 .sbss          0x0084d46c        0x4 ../socket_simples_bsp/\libucosii_bsp.a(icmp.o)
                0x0084d46c                icmpdu_hook
 *(.sbss2 .sbss2.* .gnu.linkonce.sb2.*)
 *(.scommon)
                0x0084d470                PROVIDE (__sbss_end, ABSOLUTE (.))
                0x0084d470                PROVIDE (___sbss_end, ABSOLUTE (.))
 *(.dynbss)
 *(.bss .bss.* .gnu.linkonce.b.*)
 .bss           0x0084d470        0x0 ../socket_simples_bsp//obj/HAL/src/crt0.o
 .bss           0x0084d470        0x0 obj/default/LCD.o
 .bss           0x0084d470        0x0 obj/default/SSS_DE2_115.o
 .bss           0x0084d470        0x0 obj/default/alt_error_handler.o
 .bss           0x0084d470        0x0 obj/default/dm9000a.o
 .bss           0x0084d470        0x0 obj/default/iniche_init.o
 .bss           0x0084d470        0x0 obj/default/led.o
 .bss           0x0084d470        0x0 obj/default/network_utilities.o
 .bss           0x0084d470      0x5f0 obj/default/simple_socket_server.o
 .bss           0x0084da60        0x0 obj/default/tse_my_system.o
 .bss           0x0084da60        0x0 c:/altera/13.0/nios2eds/bin/gnu/h-i686-mingw32/bin/../lib/gcc/nios2-elf/4.1.2\libgcc.a(_fixunsdfsi.o)
 .bss           0x0084da60        0x0 c:/altera/13.0/nios2eds/bin/gnu/h-i686-mingw32/bin/../lib/gcc/nios2-elf/4.1.2\libgcc.a(_addsub_df.o)
 .bss           0x0084da60        0x0 c:/altera/13.0/nios2eds/bin/gnu/h-i686-mingw32/bin/../lib/gcc/nios2-elf/4.1.2\libgcc.a(_mul_df.o)
 .bss           0x0084da60        0x0 c:/altera/13.0/nios2eds/bin/gnu/h-i686-mingw32/bin/../lib/gcc/nios2-elf/4.1.2\libgcc.a(_ge_df.o)
 .bss           0x0084da60        0x0 c:/altera/13.0/nios2eds/bin/gnu/h-i686-mingw32/bin/../lib/gcc/nios2-elf/4.1.2\libgcc.a(_df_to_si.o)
 .bss           0x0084da60        0x0 c:/altera/13.0/nios2eds/bin/gnu/h-i686-mingw32/bin/../lib/gcc/nios2-elf/4.1.2\libgcc.a(_thenan_df.o)
 .bss           0x0084da60        0x0 c:/altera/13.0/nios2eds/bin/gnu/h-i686-mingw32/bin/../lib/gcc/nios2-elf/4.1.2\libgcc.a(_usi_to_df.o)
 .bss           0x0084da60        0x0 c:/altera/13.0/nios2eds/bin/gnu/h-i686-mingw32/bin/../lib/gcc/nios2-elf/4.1.2\libgcc.a(_muldi3.o)
 .bss           0x0084da60        0x0 c:/altera/13.0/nios2eds/bin/gnu/h-i686-mingw32/bin/../lib/gcc/nios2-elf/4.1.2\libgcc.a(_clzsi2.o)
 .bss           0x0084da60        0x0 c:/altera/13.0/nios2eds/bin/gnu/h-i686-mingw32/bin/../lib/gcc/nios2-elf/4.1.2\libgcc.a(_pack_df.o)
 .bss           0x0084da60        0x0 c:/altera/13.0/nios2eds/bin/gnu/h-i686-mingw32/bin/../lib/gcc/nios2-elf/4.1.2\libgcc.a(_unpack_df.o)
 .bss           0x0084da60        0x0 c:/altera/13.0/nios2eds/bin/gnu/h-i686-mingw32/bin/../lib/gcc/nios2-elf/4.1.2\libgcc.a(_fpcmp_parts_df.o)
 .bss           0x0084da60        0x0 c:/altera/13.0/nios2eds/bin/gnu/h-i686-mingw32/bin/../lib/gcc/nios2-elf/4.1.2\libgcc.a(_clz.o)
 .bss           0x0084da60        0x0 c:/altera/13.0/nios2eds/bin/gnu/h-i686-mingw32/bin/../lib/gcc/nios2-elf/4.1.2/../../../../nios2-elf/lib\libc.a(lib_a-ctype_.o)
 .bss           0x0084da60        0x0 c:/altera/13.0/nios2eds/bin/gnu/h-i686-mingw32/bin/../lib/gcc/nios2-elf/4.1.2/../../../../nios2-elf/lib\libc.a(lib_a-exit.o)
 .bss           0x0084da60        0x0 c:/altera/13.0/nios2eds/bin/gnu/h-i686-mingw32/bin/../lib/gcc/nios2-elf/4.1.2/../../../../nios2-elf/lib\libc.a(lib_a-fprintf.o)
 .bss           0x0084da60        0x0 c:/altera/13.0/nios2eds/bin/gnu/h-i686-mingw32/bin/../lib/gcc/nios2-elf/4.1.2/../../../../nios2-elf/lib\libc.a(lib_a-fwrite.o)
 .bss           0x0084da60        0x0 c:/altera/13.0/nios2eds/bin/gnu/h-i686-mingw32/bin/../lib/gcc/nios2-elf/4.1.2/../../../../nios2-elf/lib\libc.a(lib_a-getc.o)
 .bss           0x0084da60        0x0 c:/altera/13.0/nios2eds/bin/gnu/h-i686-mingw32/bin/../lib/gcc/nios2-elf/4.1.2/../../../../nios2-elf/lib\libc.a(lib_a-impure.o)
 .bss           0x0084da60        0x0 c:/altera/13.0/nios2eds/bin/gnu/h-i686-mingw32/bin/../lib/gcc/nios2-elf/4.1.2/../../../../nios2-elf/lib\libc.a(lib_a-memcpy.o)
 .bss           0x0084da60        0x0 c:/altera/13.0/nios2eds/bin/gnu/h-i686-mingw32/bin/../lib/gcc/nios2-elf/4.1.2/../../../../nios2-elf/lib\libc.a(lib_a-memmove.o)
 .bss           0x0084da60        0x0 c:/altera/13.0/nios2eds/bin/gnu/h-i686-mingw32/bin/../lib/gcc/nios2-elf/4.1.2/../../../../nios2-elf/lib\libc.a(lib_a-memset.o)
 .bss           0x0084da60        0x0 c:/altera/13.0/nios2eds/bin/gnu/h-i686-mingw32/bin/../lib/gcc/nios2-elf/4.1.2/../../../../nios2-elf/lib\libc.a(lib_a-perror.o)
 .bss           0x0084da60        0x0 c:/altera/13.0/nios2eds/bin/gnu/h-i686-mingw32/bin/../lib/gcc/nios2-elf/4.1.2/../../../../nios2-elf/lib\libc.a(lib_a-printf.o)
 .bss           0x0084da60        0x0 c:/altera/13.0/nios2eds/bin/gnu/h-i686-mingw32/bin/../lib/gcc/nios2-elf/4.1.2/../../../../nios2-elf/lib\libc.a(lib_a-putc.o)
 .bss           0x0084da60        0x0 c:/altera/13.0/nios2eds/bin/gnu/h-i686-mingw32/bin/../lib/gcc/nios2-elf/4.1.2/../../../../nios2-elf/lib\libc.a(lib_a-putchar.o)
 .bss           0x0084da60        0x0 c:/altera/13.0/nios2eds/bin/gnu/h-i686-mingw32/bin/../lib/gcc/nios2-elf/4.1.2/../../../../nios2-elf/lib\libc.a(lib_a-puts.o)
 .bss           0x0084da60        0x0 c:/altera/13.0/nios2eds/bin/gnu/h-i686-mingw32/bin/../lib/gcc/nios2-elf/4.1.2/../../../../nios2-elf/lib\libc.a(lib_a-rget.o)
 .bss           0x0084da60        0x0 c:/altera/13.0/nios2eds/bin/gnu/h-i686-mingw32/bin/../lib/gcc/nios2-elf/4.1.2/../../../../nios2-elf/lib\libc.a(lib_a-strchr.o)
 .bss           0x0084da60        0x0 c:/altera/13.0/nios2eds/bin/gnu/h-i686-mingw32/bin/../lib/gcc/nios2-elf/4.1.2/../../../../nios2-elf/lib\libc.a(lib_a-strerror.o)
 .bss           0x0084da60        0x0 c:/altera/13.0/nios2eds/bin/gnu/h-i686-mingw32/bin/../lib/gcc/nios2-elf/4.1.2/../../../../nios2-elf/lib\libc.a(lib_a-strlen.o)
 .bss           0x0084da60        0x0 c:/altera/13.0/nios2eds/bin/gnu/h-i686-mingw32/bin/../lib/gcc/nios2-elf/4.1.2/../../../../nios2-elf/lib\libc.a(lib_a-u_strerr.o)
 .bss           0x0084da60        0x0 c:/altera/13.0/nios2eds/bin/gnu/h-i686-mingw32/bin/../lib/gcc/nios2-elf/4.1.2/../../../../nios2-elf/lib\libc.a(lib_a-vfprintf.o)
 .bss           0x0084da60        0x0 c:/altera/13.0/nios2eds/bin/gnu/h-i686-mingw32/bin/../lib/gcc/nios2-elf/4.1.2/../../../../nios2-elf/lib\libc.a(lib_a-wbuf.o)
 .bss           0x0084da60        0x0 c:/altera/13.0/nios2eds/bin/gnu/h-i686-mingw32/bin/../lib/gcc/nios2-elf/4.1.2/../../../../nios2-elf/lib\libc.a(lib_a-wsetup.o)
 .bss           0x0084da60        0x0 c:/altera/13.0/nios2eds/bin/gnu/h-i686-mingw32/bin/../lib/gcc/nios2-elf/4.1.2/../../../../nios2-elf/lib\libc.a(lib_a-__call_atexit.o)
 .bss           0x0084da60        0x0 c:/altera/13.0/nios2eds/bin/gnu/h-i686-mingw32/bin/../lib/gcc/nios2-elf/4.1.2/../../../../nios2-elf/lib\libc.a(lib_a-dtoa.o)
 .bss           0x0084da60        0x0 c:/altera/13.0/nios2eds/bin/gnu/h-i686-mingw32/bin/../lib/gcc/nios2-elf/4.1.2/../../../../nios2-elf/lib\libc.a(lib_a-fflush.o)
 .bss           0x0084da60        0x0 c:/altera/13.0/nios2eds/bin/gnu/h-i686-mingw32/bin/../lib/gcc/nios2-elf/4.1.2/../../../../nios2-elf/lib\libc.a(lib_a-findfp.o)
 .bss           0x0084da60        0x0 c:/altera/13.0/nios2eds/bin/gnu/h-i686-mingw32/bin/../lib/gcc/nios2-elf/4.1.2/../../../../nios2-elf/lib\libc.a(lib_a-fputc.o)
 .bss           0x0084da60        0x0 c:/altera/13.0/nios2eds/bin/gnu/h-i686-mingw32/bin/../lib/gcc/nios2-elf/4.1.2/../../../../nios2-elf/lib\libc.a(lib_a-fputs.o)
 .bss           0x0084da60        0x0 c:/altera/13.0/nios2eds/bin/gnu/h-i686-mingw32/bin/../lib/gcc/nios2-elf/4.1.2/../../../../nios2-elf/lib\libc.a(lib_a-freer.o)
 .bss           0x0084da60        0x0 c:/altera/13.0/nios2eds/bin/gnu/h-i686-mingw32/bin/../lib/gcc/nios2-elf/4.1.2/../../../../nios2-elf/lib\libc.a(lib_a-fvwrite.o)
 .bss           0x0084da60        0x0 c:/altera/13.0/nios2eds/bin/gnu/h-i686-mingw32/bin/../lib/gcc/nios2-elf/4.1.2/../../../../nios2-elf/lib\libc.a(lib_a-fwalk.o)
 .bss           0x0084da60        0x0 c:/altera/13.0/nios2eds/bin/gnu/h-i686-mingw32/bin/../lib/gcc/nios2-elf/4.1.2/../../../../nios2-elf/lib\libc.a(lib_a-locale.o)
 .bss           0x0084da60        0x0 c:/altera/13.0/nios2eds/bin/gnu/h-i686-mingw32/bin/../lib/gcc/nios2-elf/4.1.2/../../../../nios2-elf/lib\libc.a(lib_a-makebuf.o)
 .bss           0x0084da60       0x28 c:/altera/13.0/nios2eds/bin/gnu/h-i686-mingw32/bin/../lib/gcc/nios2-elf/4.1.2/../../../../nios2-elf/lib\libc.a(lib_a-mallocr.o)
                0x0084da60                __malloc_current_mallinfo
 .bss           0x0084da88        0x0 c:/altera/13.0/nios2eds/bin/gnu/h-i686-mingw32/bin/../lib/gcc/nios2-elf/4.1.2/../../../../nios2-elf/lib\libc.a(lib_a-memchr.o)
 .bss           0x0084da88        0x0 c:/altera/13.0/nios2eds/bin/gnu/h-i686-mingw32/bin/../lib/gcc/nios2-elf/4.1.2/../../../../nios2-elf/lib\libc.a(lib_a-mprec.o)
 .bss           0x0084da88        0x0 c:/altera/13.0/nios2eds/bin/gnu/h-i686-mingw32/bin/../lib/gcc/nios2-elf/4.1.2/../../../../nios2-elf/lib\libc.a(lib_a-reallocr.o)
 .bss           0x0084da88        0x0 c:/altera/13.0/nios2eds/bin/gnu/h-i686-mingw32/bin/../lib/gcc/nios2-elf/4.1.2/../../../../nios2-elf/lib\libc.a(lib_a-refill.o)
 .bss           0x0084da88        0x0 c:/altera/13.0/nios2eds/bin/gnu/h-i686-mingw32/bin/../lib/gcc/nios2-elf/4.1.2/../../../../nios2-elf/lib\libc.a(lib_a-s_isinfd.o)
 .bss           0x0084da88        0x0 c:/altera/13.0/nios2eds/bin/gnu/h-i686-mingw32/bin/../lib/gcc/nios2-elf/4.1.2/../../../../nios2-elf/lib\libc.a(lib_a-s_isnand.o)
 .bss           0x0084da88        0x0 c:/altera/13.0/nios2eds/bin/gnu/h-i686-mingw32/bin/../lib/gcc/nios2-elf/4.1.2/../../../../nios2-elf/lib\libc.a(lib_a-sbrkr.o)
 .bss           0x0084da88        0x0 c:/altera/13.0/nios2eds/bin/gnu/h-i686-mingw32/bin/../lib/gcc/nios2-elf/4.1.2/../../../../nios2-elf/lib\libc.a(lib_a-stdio.o)
 .bss           0x0084da88        0x0 c:/altera/13.0/nios2eds/bin/gnu/h-i686-mingw32/bin/../lib/gcc/nios2-elf/4.1.2/../../../../nios2-elf/lib\libc.a(lib_a-strcmp.o)
 .bss           0x0084da88        0x0 c:/altera/13.0/nios2eds/bin/gnu/h-i686-mingw32/bin/../lib/gcc/nios2-elf/4.1.2/../../../../nios2-elf/lib\libc.a(lib_a-writer.o)
 .bss           0x0084da88        0x0 c:/altera/13.0/nios2eds/bin/gnu/h-i686-mingw32/bin/../lib/gcc/nios2-elf/4.1.2/../../../../nios2-elf/lib\libc.a(lib_a-callocr.o)
 .bss           0x0084da88        0x0 c:/altera/13.0/nios2eds/bin/gnu/h-i686-mingw32/bin/../lib/gcc/nios2-elf/4.1.2/../../../../nios2-elf/lib\libc.a(lib_a-closer.o)
 .bss           0x0084da88        0x0 c:/altera/13.0/nios2eds/bin/gnu/h-i686-mingw32/bin/../lib/gcc/nios2-elf/4.1.2/../../../../nios2-elf/lib\libc.a(lib_a-fclose.o)
 .bss           0x0084da88        0x0 c:/altera/13.0/nios2eds/bin/gnu/h-i686-mingw32/bin/../lib/gcc/nios2-elf/4.1.2/../../../../nios2-elf/lib\libc.a(lib_a-fstatr.o)
 .bss           0x0084da88        0x0 c:/altera/13.0/nios2eds/bin/gnu/h-i686-mingw32/bin/../lib/gcc/nios2-elf/4.1.2/../../../../nios2-elf/lib\libc.a(lib_a-int_errno.o)
 .bss           0x0084da88        0x0 c:/altera/13.0/nios2eds/bin/gnu/h-i686-mingw32/bin/../lib/gcc/nios2-elf/4.1.2/../../../../nios2-elf/lib\libc.a(lib_a-isattyr.o)
 .bss           0x0084da88        0x0 c:/altera/13.0/nios2eds/bin/gnu/h-i686-mingw32/bin/../lib/gcc/nios2-elf/4.1.2/../../../../nios2-elf/lib\libc.a(lib_a-lseekr.o)
 .bss           0x0084da88        0x0 c:/altera/13.0/nios2eds/bin/gnu/h-i686-mingw32/bin/../lib/gcc/nios2-elf/4.1.2/../../../../nios2-elf/lib\libc.a(lib_a-readr.o)
 .bss           0x0084da88        0x0 c:/altera/13.0/nios2eds/bin/gnu/h-i686-mingw32/bin/../lib/gcc/nios2-elf/4.1.2\libgcc.a(_udivdi3.o)
 .bss           0x0084da88        0x0 c:/altera/13.0/nios2eds/bin/gnu/h-i686-mingw32/bin/../lib/gcc/nios2-elf/4.1.2\libgcc.a(_umoddi3.o)
 .bss           0x0084da88        0x0 c:/altera/13.0/nios2eds/bin/gnu/h-i686-mingw32/bin/../lib/gcc/nios2-elf/4.1.2\libgcc.a(_div_df.o)
 .bss           0x0084da88        0x0 c:/altera/13.0/nios2eds/bin/gnu/h-i686-mingw32/bin/../lib/gcc/nios2-elf/4.1.2\libgcc.a(_eq_df.o)
 .bss           0x0084da88        0x0 c:/altera/13.0/nios2eds/bin/gnu/h-i686-mingw32/bin/../lib/gcc/nios2-elf/4.1.2\libgcc.a(_ne_df.o)
 .bss           0x0084da88        0x0 c:/altera/13.0/nios2eds/bin/gnu/h-i686-mingw32/bin/../lib/gcc/nios2-elf/4.1.2\libgcc.a(_gt_df.o)
 .bss           0x0084da88        0x0 c:/altera/13.0/nios2eds/bin/gnu/h-i686-mingw32/bin/../lib/gcc/nios2-elf/4.1.2\libgcc.a(_lt_df.o)
 .bss           0x0084da88        0x0 c:/altera/13.0/nios2eds/bin/gnu/h-i686-mingw32/bin/../lib/gcc/nios2-elf/4.1.2\libgcc.a(_si_to_df.o)
 .bss           0x0084da88        0x0 c:/altera/13.0/nios2eds/bin/gnu/h-i686-mingw32/bin/../lib/gcc/nios2-elf/4.1.2\libgcc.a(lib2-divmod.o)
 .bss           0x0084da88        0x0 ../socket_simples_bsp/\libucosii_bsp.a(alt_exit.o)
 .bss           0x0084da88        0x0 ../socket_simples_bsp/\libucosii_bsp.a(alt_flash_dev.o)
 .bss           0x0084da88        0x0 ../socket_simples_bsp/\libucosii_bsp.a(alt_fstat.o)
 .bss           0x0084da88        0x0 ../socket_simples_bsp/\libucosii_bsp.a(alt_irq_register.o)
 .bss           0x0084da88        0x0 ../socket_simples_bsp/\libucosii_bsp.a(alt_irq_vars.o)
 .bss           0x0084da88        0x0 ../socket_simples_bsp/\libucosii_bsp.a(alt_isatty.o)
 .bss           0x0084da88        0x0 ../socket_simples_bsp/\libucosii_bsp.a(alt_lseek.o)
 .bss           0x0084da88        0x0 ../socket_simples_bsp/\libucosii_bsp.a(alt_main.o)
 .bss           0x0084da88        0x0 ../socket_simples_bsp/\libucosii_bsp.a(alt_sbrk.o)
 .bss           0x0084da88        0x0 ../socket_simples_bsp/\libucosii_bsp.a(alt_usleep.o)
 .bss           0x0084da88        0x0 ../socket_simples_bsp/\libucosii_bsp.a(alt_env_lock.o)
 .bss           0x0084da88        0x0 ../socket_simples_bsp/\libucosii_bsp.a(alt_malloc_lock.o)
 .bss           0x0084da88        0x0 ../socket_simples_bsp/\libucosii_bsp.a(os_core.o)
 .bss           0x0084da88        0x0 ../socket_simples_bsp/\libucosii_bsp.a(os_dbg.o)
 .bss           0x0084da88        0x0 ../socket_simples_bsp/\libucosii_bsp.a(os_flag.o)
 .bss           0x0084da88        0x0 ../socket_simples_bsp/\libucosii_bsp.a(os_mem.o)
 .bss           0x0084da88        0x0 ../socket_simples_bsp/\libucosii_bsp.a(os_q.o)
 .bss           0x0084da88        0x0 ../socket_simples_bsp/\libucosii_bsp.a(os_sem.o)
 .bss           0x0084da88        0x0 ../socket_simples_bsp/\libucosii_bsp.a(os_task.o)
 .bss           0x0084da88        0x0 ../socket_simples_bsp/\libucosii_bsp.a(os_time.o)
 .bss           0x0084da88        0x0 ../socket_simples_bsp/\libucosii_bsp.a(alt_sys_init.o)
 .bss           0x0084da88        0x0 ../socket_simples_bsp/\libucosii_bsp.a(altera_avalon_cfi_flash.o)
 .bss           0x0084da88        0x0 ../socket_simples_bsp/\libucosii_bsp.a(altera_avalon_cfi_flash_table.o)
 .bss           0x0084da88        0x0 ../socket_simples_bsp/\libucosii_bsp.a(altera_avalon_epcs_flash_controller.o)
 .bss           0x0084da88        0x0 ../socket_simples_bsp/\libucosii_bsp.a(altera_avalon_jtag_uart_fd.o)
 .bss           0x0084da88        0x0 ../socket_simples_bsp/\libucosii_bsp.a(altera_avalon_jtag_uart_init.o)
 .bss           0x0084da88        0x0 ../socket_simples_bsp/\libucosii_bsp.a(altera_avalon_jtag_uart_ioctl.o)
 .bss           0x0084da88        0x0 ../socket_simples_bsp/\libucosii_bsp.a(altera_avalon_jtag_uart_read.o)
 .bss           0x0084da88        0x0 ../socket_simples_bsp/\libucosii_bsp.a(altera_avalon_jtag_uart_write.o)
 .bss           0x0084da88        0x0 ../socket_simples_bsp/\libucosii_bsp.a(altera_avalon_lcd_16207.o)
 .bss           0x0084da88        0x0 ../socket_simples_bsp/\libucosii_bsp.a(altera_avalon_lcd_16207_fd.o)
 .bss           0x0084da88        0x0 ../socket_simples_bsp/\libucosii_bsp.a(altera_avalon_timer_sc.o)
 .bss           0x0084da88        0x0 ../socket_simples_bsp/\libucosii_bsp.a(altera_avalon_uart_fd.o)
 .bss           0x0084da88        0x0 ../socket_simples_bsp/\libucosii_bsp.a(altera_avalon_uart_init.o)
 .bss           0x0084da88        0x0 ../socket_simples_bsp/\libucosii_bsp.a(altera_avalon_uart_read.o)
 .bss           0x0084da88        0x0 ../socket_simples_bsp/\libucosii_bsp.a(altera_avalon_uart_write.o)
 .bss           0x0084da88        0x0 ../socket_simples_bsp/\libucosii_bsp.a(epcs_commands.o)
 .bss           0x0084da88        0x0 ../socket_simples_bsp/\libucosii_bsp.a(alt_iniche_close.o)
 .bss           0x0084da88        0x0 ../socket_simples_bsp/\libucosii_bsp.a(alt_iniche_dev.o)
 .bss           0x0084da88        0x0 ../socket_simples_bsp/\libucosii_bsp.a(alt_iniche_read.o)
 .bss           0x0084da88        0x0 ../socket_simples_bsp/\libucosii_bsp.a(alt_iniche_write.o)
 .bss           0x0084da88        0x0 ../socket_simples_bsp/\libucosii_bsp.a(ipnet.o)
 .bss           0x0084da88       0x3c ../socket_simples_bsp/\libucosii_bsp.a(ipstart.o)
 .bss           0x0084dac4        0x0 ../socket_simples_bsp/\libucosii_bsp.a(igmp_cmn.o)
 .bss           0x0084dac4        0x0 ../socket_simples_bsp/\libucosii_bsp.a(bsdsock.o)
 .bss           0x0084dac4        0x0 ../socket_simples_bsp/\libucosii_bsp.a(cksum.o)
 .bss           0x0084dac4       0x18 ../socket_simples_bsp/\libucosii_bsp.a(in_utils.o)
 .bss           0x0084dadc        0x0 ../socket_simples_bsp/\libucosii_bsp.a(netmain.o)
 .bss           0x0084dadc       0x20 ../socket_simples_bsp/\libucosii_bsp.a(parseip.o)
 .bss           0x0084dafc        0x0 ../socket_simples_bsp/\libucosii_bsp.a(tk_crnos.o)
 .bss           0x0084dafc        0x0 ../socket_simples_bsp/\libucosii_bsp.a(dhcpclnt.o)
 .bss           0x0084dafc        0x0 ../socket_simples_bsp/\libucosii_bsp.a(dhcputil.o)
 .bss           0x0084dafc        0x0 ../socket_simples_bsp/\libucosii_bsp.a(pktalloc.o)
 .bss           0x0084dafc        0x0 ../socket_simples_bsp/\libucosii_bsp.a(q.o)
 .bss           0x0084dafc        0x0 ../socket_simples_bsp/\libucosii_bsp.a(udp_open.o)
 .bss           0x0084dafc        0x0 ../socket_simples_bsp/\libucosii_bsp.a(asm_cksum.o)
 .bss           0x0084dafc        0x0 ../socket_simples_bsp/\libucosii_bsp.a(brdutils.o)
 .bss           0x0084dafc        0x0 ../socket_simples_bsp/\libucosii_bsp.a(osportco.o)
 .bss           0x0084dafc        0x0 ../socket_simples_bsp/\libucosii_bsp.a(targnios.o)
 .bss           0x0084dafc        0x0 ../socket_simples_bsp/\libucosii_bsp.a(nptcp.o)
 .bss           0x0084dafc        0x0 ../socket_simples_bsp/\libucosii_bsp.a(rawsock.o)
 .bss           0x0084dafc        0x0 ../socket_simples_bsp/\libucosii_bsp.a(sockcall.o)
 .bss           0x0084dafc        0x0 ../socket_simples_bsp/\libucosii_bsp.a(socket.o)
 .bss           0x0084dafc        0x0 ../socket_simples_bsp/\libucosii_bsp.a(socket2.o)
 .bss           0x0084dafc        0x0 ../socket_simples_bsp/\libucosii_bsp.a(soselect.o)
 .bss           0x0084dafc        0x0 ../socket_simples_bsp/\libucosii_bsp.a(tcp_in.o)
 .bss           0x0084dafc        0x0 ../socket_simples_bsp/\libucosii_bsp.a(tcp_out.o)
 .bss           0x0084dafc        0x0 ../socket_simples_bsp/\libucosii_bsp.a(tcp_subr.o)
 .bss           0x0084dafc        0x0 ../socket_simples_bsp/\libucosii_bsp.a(tcp_timr.o)
 .bss           0x0084dafc        0x0 ../socket_simples_bsp/\libucosii_bsp.a(tcp_usr.o)
 .bss           0x0084dafc        0x0 ../socket_simples_bsp/\libucosii_bsp.a(tcpport.o)
 .bss           0x0084dafc        0x0 ../socket_simples_bsp/\libucosii_bsp.a(udpsock.o)
 .bss           0x0084dafc        0x0 ../socket_simples_bsp/\libucosii_bsp.a(alt_alarm_start.o)
 .bss           0x0084dafc        0x0 ../socket_simples_bsp/\libucosii_bsp.a(alt_busy_sleep.o)
 .bss           0x0084dafc        0x0 ../socket_simples_bsp/\libucosii_bsp.a(alt_close.o)
 .bss           0x0084dafc        0x0 ../socket_simples_bsp/\libucosii_bsp.a(alt_dcache_flush.o)
 .bss           0x0084dafc        0x0 ../socket_simples_bsp/\libucosii_bsp.a(alt_dev.o)
 .bss           0x0084dafc        0x0 ../socket_simples_bsp/\libucosii_bsp.a(alt_dev_llist_insert.o)
 .bss           0x0084dafc        0x0 ../socket_simples_bsp/\libucosii_bsp.a(alt_do_ctors.o)
 .bss           0x0084dafc        0x0 ../socket_simples_bsp/\libucosii_bsp.a(alt_do_dtors.o)
 .bss           0x0084dafc        0x0 ../socket_simples_bsp/\libucosii_bsp.a(alt_errno.o)
 .bss           0x0084dafc        0x0 ../socket_simples_bsp/\libucosii_bsp.a(alt_find_dev.o)
 .bss           0x0084dafc        0x0 ../socket_simples_bsp/\libucosii_bsp.a(alt_iic.o)
 .bss           0x0084dafc        0x0 ../socket_simples_bsp/\libucosii_bsp.a(alt_iic_isr_register.o)
 .bss           0x0084dafc        0x0 ../socket_simples_bsp/\libucosii_bsp.a(alt_io_redirect.o)
 .bss           0x0084dafc        0x0 ../socket_simples_bsp/\libucosii_bsp.a(alt_irq_entry.o)
 .bss           0x0084dafc        0x0 ../socket_simples_bsp/\libucosii_bsp.a(alt_irq_handler.o)
 .bss           0x0084dafc        0x0 ../socket_simples_bsp/\libucosii_bsp.a(alt_open.o)
 .bss           0x0084dafc        0x0 ../socket_simples_bsp/\libucosii_bsp.a(alt_read.o)
 .bss           0x0084dafc        0x0 ../socket_simples_bsp/\libucosii_bsp.a(alt_release_fd.o)
 .bss           0x0084dafc        0x0 ../socket_simples_bsp/\libucosii_bsp.a(alt_remap_cached.o)
 .bss           0x0084dafc        0x0 ../socket_simples_bsp/\libucosii_bsp.a(alt_remap_uncached.o)
 .bss           0x0084dafc        0x0 ../socket_simples_bsp/\libucosii_bsp.a(alt_tick.o)
 .bss           0x0084dafc        0x0 ../socket_simples_bsp/\libucosii_bsp.a(alt_write.o)
 .bss           0x0084dafc        0x0 ../socket_simples_bsp/\libucosii_bsp.a(altera_nios2_qsys_irq.o)
 .bss           0x0084dafc        0x0 ../socket_simples_bsp/\libucosii_bsp.a(os_cpu_a.o)
 .bss           0x0084dafc        0x0 ../socket_simples_bsp/\libucosii_bsp.a(os_cpu_c.o)
 .bss           0x0084dafc        0x0 ../socket_simples_bsp/\libucosii_bsp.a(altera_avalon_cfi_flash_amd.o)
 .bss           0x0084dafc        0x0 ../socket_simples_bsp/\libucosii_bsp.a(altera_avalon_cfi_flash_intel.o)
 .bss           0x0084dafc        0x0 ../socket_simples_bsp/\libucosii_bsp.a(altera_avalon_spi.o)
 .bss           0x0084dafc        0x0 ../socket_simples_bsp/\libucosii_bsp.a(allports.o)
 .bss           0x0084dafc        0x0 ../socket_simples_bsp/\libucosii_bsp.a(timeouts.o)
 .bss           0x0084dafc        0x0 ../socket_simples_bsp/\libucosii_bsp.a(tk_misc.o)
 .bss           0x0084dafc        0x0 ../socket_simples_bsp/\libucosii_bsp.a(alt_iniche_fcntl.o)
 .bss           0x0084dafc        0x0 ../socket_simples_bsp/\libucosii_bsp.a(et_arp.o)
 .bss           0x0084dafc        0x0 ../socket_simples_bsp/\libucosii_bsp.a(iface.o)
 .bss           0x0084dafc        0x0 ../socket_simples_bsp/\libucosii_bsp.a(ip.o)
 .bss           0x0084dafc        0x0 ../socket_simples_bsp/\libucosii_bsp.a(ip_reasm.o)
 .bss           0x0084dafc        0x0 ../socket_simples_bsp/\libucosii_bsp.a(ipdemux.o)
 .bss           0x0084dafc        0x0 ../socket_simples_bsp/\libucosii_bsp.a(ipmc.o)
 .bss           0x0084dafc        0x0 ../socket_simples_bsp/\libucosii_bsp.a(ipport.o)
 .bss           0x0084dafc        0x0 ../socket_simples_bsp/\libucosii_bsp.a(ipraw.o)
 .bss           0x0084dafc        0x0 ../socket_simples_bsp/\libucosii_bsp.a(iproute.o)
 .bss           0x0084dafc        0x0 ../socket_simples_bsp/\libucosii_bsp.a(udp.o)
 .bss           0x0084dafc        0x0 ../socket_simples_bsp/\libucosii_bsp.a(igmp.o)
 .bss           0x0084dafc        0x0 ../socket_simples_bsp/\libucosii_bsp.a(igmp2.o)
 .bss           0x0084dafc        0x0 ../socket_simples_bsp/\libucosii_bsp.a(ipopt.o)
 .bss           0x0084dafc        0x0 ../socket_simples_bsp/\libucosii_bsp.a(u_mctest.o)
 .bss           0x0084dafc        0x0 ../socket_simples_bsp/\libucosii_bsp.a(dhcsetup.o)
 .bss           0x0084dafc        0x0 ../socket_simples_bsp/\libucosii_bsp.a(memdev.o)
 .bss           0x0084dafc        0x0 ../socket_simples_bsp/\libucosii_bsp.a(tcpcksum.o)
 .bss           0x0084dafc        0x0 ../socket_simples_bsp/\libucosii_bsp.a(in_pcb.o)
 .bss           0x0084dafc        0x0 ../socket_simples_bsp/\libucosii_bsp.a(vfsfiles.o)
 .bss           0x0084dafc        0x0 ../socket_simples_bsp/\libucosii_bsp.a(vfsport.o)
 .bss           0x0084dafc        0x0 ../socket_simples_bsp/\libucosii_bsp.a(alt_exception_entry.o)
 .bss           0x0084dafc        0x0 ../socket_simples_bsp/\libucosii_bsp.a(alt_fcntl.o)
 .bss           0x0084dafc        0x0 ../socket_simples_bsp/\libucosii_bsp.a(alt_find_file.o)
 .bss           0x0084dafc        0x0 ../socket_simples_bsp/\libucosii_bsp.a(alt_get_fd.o)
 .bss           0x0084dafc        0x0 ../socket_simples_bsp/\libucosii_bsp.a(icmp.o)
 .bss           0x0084dafc        0x0 c:/altera/13.0/nios2eds/bin/gnu/h-i686-mingw32/bin/../lib/gcc/nios2-elf/4.1.2/../../../../nios2-elf/lib\libc.a(lib_a-atexit.o)
 .bss           0x0084dafc        0x0 c:/altera/13.0/nios2eds/bin/gnu/h-i686-mingw32/bin/../lib/gcc/nios2-elf/4.1.2/../../../../nios2-elf/lib\libc.a(lib_a-atoi.o)
 .bss           0x0084dafc        0x0 c:/altera/13.0/nios2eds/bin/gnu/h-i686-mingw32/bin/../lib/gcc/nios2-elf/4.1.2/../../../../nios2-elf/lib\libc.a(lib_a-calloc.o)
 .bss           0x0084dafc        0x0 c:/altera/13.0/nios2eds/bin/gnu/h-i686-mingw32/bin/../lib/gcc/nios2-elf/4.1.2/../../../../nios2-elf/lib\libc.a(lib_a-malloc.o)
 .bss           0x0084dafc        0x0 c:/altera/13.0/nios2eds/bin/gnu/h-i686-mingw32/bin/../lib/gcc/nios2-elf/4.1.2/../../../../nios2-elf/lib\libc.a(lib_a-memcmp.o)
 .bss           0x0084dafc        0x0 c:/altera/13.0/nios2eds/bin/gnu/h-i686-mingw32/bin/../lib/gcc/nios2-elf/4.1.2/../../../../nios2-elf/lib\libc.a(lib_a-sprintf.o)
 .bss           0x0084dafc        0x0 c:/altera/13.0/nios2eds/bin/gnu/h-i686-mingw32/bin/../lib/gcc/nios2-elf/4.1.2/../../../../nios2-elf/lib\libc.a(lib_a-strcpy.o)
 .bss           0x0084dafc        0x0 c:/altera/13.0/nios2eds/bin/gnu/h-i686-mingw32/bin/../lib/gcc/nios2-elf/4.1.2/../../../../nios2-elf/lib\libc.a(lib_a-strncmp.o)
 .bss           0x0084dafc        0x0 c:/altera/13.0/nios2eds/bin/gnu/h-i686-mingw32/bin/../lib/gcc/nios2-elf/4.1.2/../../../../nios2-elf/lib\libc.a(lib_a-strncpy.o)
 .bss           0x0084dafc        0x0 c:/altera/13.0/nios2eds/bin/gnu/h-i686-mingw32/bin/../lib/gcc/nios2-elf/4.1.2/../../../../nios2-elf/lib\libc.a(lib_a-strtol.o)
 .bss           0x0084dafc        0x0 c:/altera/13.0/nios2eds/bin/gnu/h-i686-mingw32/bin/../lib/gcc/nios2-elf/4.1.2/../../../../nios2-elf/lib\libc.a(lib_a-vprintf.o)
 .bss           0x0084dafc        0x0 c:/altera/13.0/nios2eds/bin/gnu/h-i686-mingw32/bin/../lib/gcc/nios2-elf/4.1.2/../../../../nios2-elf/lib\libc.a(lib_a-vsprintf.o)
 .bss           0x0084dafc        0x0 c:/altera/13.0/nios2eds/bin/gnu/h-i686-mingw32/bin/../lib/gcc/nios2-elf/4.1.2/../../../../nios2-elf/lib\libc.a(lib_a-__atexit.o)
 *(COMMON)
 COMMON         0x0084dafc       0x44 obj/default/dm9000a.o
                0x0084dafc                g_dm9ka
 COMMON         0x0084db40     0x2000 obj/default/iniche_init.o
                0x0084db40                SSSInitialTaskStk
 COMMON         0x0084fb40     0x4078 obj/default/simple_socket_server.o
                0x0084fb40                LED7SegLightshowTaskStk
                0x00851b40                SSSLEDCommandQTbl
                0x00851bb8                LEDManagementTaskStk
 COMMON         0x00853bb8     0x3224 ../socket_simples_bsp/\libucosii_bsp.a(os_core.o)
                0x00853bb8                OSFlagTbl
                0x00853f28                OSMemTbl
                0x00854b58                OSTaskStatStk
                0x00855358                OSQTbl
                0x00855538                OSTaskIdleStk
                0x00855d38                OSEventTbl
                0x00856878                OSTCBTbl
                0x00856d88                OSTCBPrioTbl
 COMMON         0x00856ddc       0x14 ../socket_simples_bsp/\libucosii_bsp.a(ipnet.o)
                0x00856ddc                rcvdq
 COMMON         0x00856df0      0x310 ../socket_simples_bsp/\libucosii_bsp.a(ipstart.o)
                0x00856df0                netstatic
                0x008570f0                nets
 COMMON         0x00857100       0x64 ../socket_simples_bsp/\libucosii_bsp.a(igmp_cmn.o)
                0x00857100                igmpstats
 COMMON         0x00857164       0x26 ../socket_simples_bsp/\libucosii_bsp.a(in_utils.o)
                0x00857164                eth_prt_buf
                0x00857178                ipreturn
 *fill*         0x0085718a        0x2 00
 COMMON         0x0085718c       0xf0 ../socket_simples_bsp/\libucosii_bsp.a(dhcpclnt.o)
                0x0085718c                dhc_states
 COMMON         0x0085727c      0x128 ../socket_simples_bsp/\libucosii_bsp.a(pktalloc.o)
                0x0085727c                lilfreeq
                0x00857290                memestats
                0x008572a0                pktlog
                0x00857390                bigfreeq
 COMMON         0x008573a4      0x1ec ../socket_simples_bsp/\libucosii_bsp.a(osportco.o)
                0x008573a4                global_tcb_ext
                0x008574a0                global_TCPwakeup_set
 COMMON         0x00857590       0x58 ../socket_simples_bsp/\libucosii_bsp.a(targnios.o)
                0x00857590                resid_semaphore
                0x008575d0                app_semaphore
 COMMON         0x008575e8       0x78 ../socket_simples_bsp/\libucosii_bsp.a(nptcp.o)
                0x008575e8                soq
                0x008575fc                tcpmib
                0x00857638                mbufq
                0x0085764c                mfreeq
 COMMON         0x00857660       0x28 ../socket_simples_bsp/\libucosii_bsp.a(tcp_in.o)
                0x00857660                tcp_saveti
 COMMON         0x00857688      0x10c ../socket_simples_bsp/\libucosii_bsp.a(tcp_subr.o)
                0x00857688                tcb
                0x008576b4                tcpstat
 COMMON         0x00857794      0x100 ../socket_simples_bsp/\libucosii_bsp.a(alt_irq_handler.o)
                0x00857794                alt_irq
 COMMON         0x00857894       0x64 ../socket_simples_bsp/\libucosii_bsp.a(timeouts.o)
                0x00857894                intimers
 COMMON         0x008578f8      0x100 ../socket_simples_bsp/\libucosii_bsp.a(et_arp.o)
                0x008578f8                arp_table
 COMMON         0x008579f8       0x14 ../socket_simples_bsp/\libucosii_bsp.a(iface.o)
                0x008579f8                netlist
 COMMON         0x00857a0c       0x50 ../socket_simples_bsp/\libucosii_bsp.a(ip.o)
                0x00857a0c                ip_mib
 COMMON         0x00857a5c       0x18 ../socket_simples_bsp/\libucosii_bsp.a(ip_reasm.o)
                0x00857a5c                ire_stats
 COMMON         0x00857a74       0x10 ../socket_simples_bsp/\libucosii_bsp.a(udp.o)
                0x00857a74                udp_mib
 COMMON         0x00857a84       0x68 ../socket_simples_bsp/\libucosii_bsp.a(icmp.o)
                0x00857a84                icmp_mib
 COMMON         0x00857aec      0x190 c:/altera/13.0/nios2eds/bin/gnu/h-i686-mingw32/bin/../lib/gcc/nios2-elf/4.1.2/../../../../nios2-elf/lib\libc.a(lib_a-atexit.o)
                0x00857aec                _atexit0
                0x00857c7c                . = ALIGN (0x4)
                0x00857c7c                __bss_end = ABSOLUTE (.)

.sdram_0        0x00857c7c        0x0
                0x00857c7c                PROVIDE (_alt_partition_sdram_0_start, ABSOLUTE (.))
 *(.sdram_0. sdram_0.*)
                0x00857c7c                . = ALIGN (0x4)
                0x00857c7c                PROVIDE (_alt_partition_sdram_0_end, ABSOLUTE (.))
                0x00857c7c                _end = ABSOLUTE (.)
                0x00857c7c                end = ABSOLUTE (.)
                0x00857c7c                __alt_stack_base = ABSOLUTE (.)
                0x00857c7c                PROVIDE (_alt_partition_sdram_0_load_addr, LOADADDR (.sdram_0))

.cfi_flash_0    0x01400020        0x0
                0x01400020                PROVIDE (_alt_partition_cfi_flash_0_start, ABSOLUTE (.))
 *(.cfi_flash_0. cfi_flash_0.*)
                0x01400020                . = ALIGN (0x4)
                0x01400020                PROVIDE (_alt_partition_cfi_flash_0_end, ABSOLUTE (.))
                0x01400020                PROVIDE (_alt_partition_cfi_flash_0_load_addr, LOADADDR (.cfi_flash_0))

.sram_0         0x01a00000        0x0
                0x01a00000                PROVIDE (_alt_partition_sram_0_start, ABSOLUTE (.))
 *(.sram_0. sram_0.*)
                0x01a00000                . = ALIGN (0x4)
                0x01a00000                PROVIDE (_alt_partition_sram_0_end, ABSOLUTE (.))
                0x01a00000                PROVIDE (_alt_partition_sram_0_load_addr, LOADADDR (.sram_0))

.epcs_controller
                0x01a81800        0x0
                0x01a81800                PROVIDE (_alt_partition_epcs_controller_start, ABSOLUTE (.))
 *(.epcs_controller. epcs_controller.*)
                0x01a81800                . = ALIGN (0x4)
                0x01a81800                PROVIDE (_alt_partition_epcs_controller_end, ABSOLUTE (.))
                0x01a81800                PROVIDE (_alt_partition_epcs_controller_load_addr, LOADADDR (.epcs_controller))

.stab
 *(.stab)

.stabstr
 *(.stabstr)

.stab.excl
 *(.stab.excl)

.stab.exclstr
 *(.stab.exclstr)

.stab.index
 *(.stab.index)

.stab.indexstr
 *(.stab.indexstr)

.comment        0x00000000       0x23
 *(.comment)
 .comment       0x00000000       0x23 obj/default/LCD.o
                                 0x24 (size before relaxing)
 .comment       0x00000000       0x24 obj/default/SSS_DE2_115.o
 .comment       0x00000000       0x24 obj/default/alt_error_handler.o
 .comment       0x00000000       0x24 obj/default/dm9000a.o
 .comment       0x00000000       0x24 obj/default/iniche_init.o
 .comment       0x00000000       0x24 obj/default/led.o
 .comment       0x00000000       0x24 obj/default/network_utilities.o
 .comment       0x00000000       0x24 obj/default/simple_socket_server.o
 .comment       0x00000000       0x24 obj/default/tse_my_system.o
 .comment       0x00000000       0x24 c:/altera/13.0/nios2eds/bin/gnu/h-i686-mingw32/bin/../lib/gcc/nios2-elf/4.1.2\libgcc.a(_fixunsdfsi.o)
 .comment       0x00000000       0x24 c:/altera/13.0/nios2eds/bin/gnu/h-i686-mingw32/bin/../lib/gcc/nios2-elf/4.1.2\libgcc.a(_addsub_df.o)
 .comment       0x00000000       0x24 c:/altera/13.0/nios2eds/bin/gnu/h-i686-mingw32/bin/../lib/gcc/nios2-elf/4.1.2\libgcc.a(_mul_df.o)
 .comment       0x00000000       0x24 c:/altera/13.0/nios2eds/bin/gnu/h-i686-mingw32/bin/../lib/gcc/nios2-elf/4.1.2\libgcc.a(_ge_df.o)
 .comment       0x00000000       0x24 c:/altera/13.0/nios2eds/bin/gnu/h-i686-mingw32/bin/../lib/gcc/nios2-elf/4.1.2\libgcc.a(_df_to_si.o)
 .comment       0x00000000       0x24 c:/altera/13.0/nios2eds/bin/gnu/h-i686-mingw32/bin/../lib/gcc/nios2-elf/4.1.2\libgcc.a(_thenan_df.o)
 .comment       0x00000000       0x24 c:/altera/13.0/nios2eds/bin/gnu/h-i686-mingw32/bin/../lib/gcc/nios2-elf/4.1.2\libgcc.a(_usi_to_df.o)
 .comment       0x00000000       0x24 c:/altera/13.0/nios2eds/bin/gnu/h-i686-mingw32/bin/../lib/gcc/nios2-elf/4.1.2\libgcc.a(_muldi3.o)
 .comment       0x00000000       0x24 c:/altera/13.0/nios2eds/bin/gnu/h-i686-mingw32/bin/../lib/gcc/nios2-elf/4.1.2\libgcc.a(_clzsi2.o)
 .comment       0x00000000       0x24 c:/altera/13.0/nios2eds/bin/gnu/h-i686-mingw32/bin/../lib/gcc/nios2-elf/4.1.2\libgcc.a(_pack_df.o)
 .comment       0x00000000       0x24 c:/altera/13.0/nios2eds/bin/gnu/h-i686-mingw32/bin/../lib/gcc/nios2-elf/4.1.2\libgcc.a(_unpack_df.o)
 .comment       0x00000000       0x24 c:/altera/13.0/nios2eds/bin/gnu/h-i686-mingw32/bin/../lib/gcc/nios2-elf/4.1.2\libgcc.a(_fpcmp_parts_df.o)
 .comment       0x00000000       0x24 c:/altera/13.0/nios2eds/bin/gnu/h-i686-mingw32/bin/../lib/gcc/nios2-elf/4.1.2\libgcc.a(_clz.o)
 .comment       0x00000000       0x24 c:/altera/13.0/nios2eds/bin/gnu/h-i686-mingw32/bin/../lib/gcc/nios2-elf/4.1.2/../../../../nios2-elf/lib\libc.a(lib_a-ctype_.o)
 .comment       0x00000000       0x24 c:/altera/13.0/nios2eds/bin/gnu/h-i686-mingw32/bin/../lib/gcc/nios2-elf/4.1.2/../../../../nios2-elf/lib\libc.a(lib_a-exit.o)
 .comment       0x00000000       0x24 c:/altera/13.0/nios2eds/bin/gnu/h-i686-mingw32/bin/../lib/gcc/nios2-elf/4.1.2/../../../../nios2-elf/lib\libc.a(lib_a-fprintf.o)
 .comment       0x00000000       0x24 c:/altera/13.0/nios2eds/bin/gnu/h-i686-mingw32/bin/../lib/gcc/nios2-elf/4.1.2/../../../../nios2-elf/lib\libc.a(lib_a-fwrite.o)
 .comment       0x00000000       0x24 c:/altera/13.0/nios2eds/bin/gnu/h-i686-mingw32/bin/../lib/gcc/nios2-elf/4.1.2/../../../../nios2-elf/lib\libc.a(lib_a-getc.o)
 .comment       0x00000000       0x24 c:/altera/13.0/nios2eds/bin/gnu/h-i686-mingw32/bin/../lib/gcc/nios2-elf/4.1.2/../../../../nios2-elf/lib\libc.a(lib_a-impure.o)
 .comment       0x00000000       0x24 c:/altera/13.0/nios2eds/bin/gnu/h-i686-mingw32/bin/../lib/gcc/nios2-elf/4.1.2/../../../../nios2-elf/lib\libc.a(lib_a-memcpy.o)
 .comment       0x00000000       0x24 c:/altera/13.0/nios2eds/bin/gnu/h-i686-mingw32/bin/../lib/gcc/nios2-elf/4.1.2/../../../../nios2-elf/lib\libc.a(lib_a-memmove.o)
 .comment       0x00000000       0x24 c:/altera/13.0/nios2eds/bin/gnu/h-i686-mingw32/bin/../lib/gcc/nios2-elf/4.1.2/../../../../nios2-elf/lib\libc.a(lib_a-memset.o)
 .comment       0x00000000       0x24 c:/altera/13.0/nios2eds/bin/gnu/h-i686-mingw32/bin/../lib/gcc/nios2-elf/4.1.2/../../../../nios2-elf/lib\libc.a(lib_a-perror.o)
 .comment       0x00000000       0x24 c:/altera/13.0/nios2eds/bin/gnu/h-i686-mingw32/bin/../lib/gcc/nios2-elf/4.1.2/../../../../nios2-elf/lib\libc.a(lib_a-printf.o)
 .comment       0x00000000       0x24 c:/altera/13.0/nios2eds/bin/gnu/h-i686-mingw32/bin/../lib/gcc/nios2-elf/4.1.2/../../../../nios2-elf/lib\libc.a(lib_a-putc.o)
 .comment       0x00000000       0x24 c:/altera/13.0/nios2eds/bin/gnu/h-i686-mingw32/bin/../lib/gcc/nios2-elf/4.1.2/../../../../nios2-elf/lib\libc.a(lib_a-putchar.o)
 .comment       0x00000000       0x24 c:/altera/13.0/nios2eds/bin/gnu/h-i686-mingw32/bin/../lib/gcc/nios2-elf/4.1.2/../../../../nios2-elf/lib\libc.a(lib_a-puts.o)
 .comment       0x00000000       0x24 c:/altera/13.0/nios2eds/bin/gnu/h-i686-mingw32/bin/../lib/gcc/nios2-elf/4.1.2/../../../../nios2-elf/lib\libc.a(lib_a-rget.o)
 .comment       0x00000000       0x24 c:/altera/13.0/nios2eds/bin/gnu/h-i686-mingw32/bin/../lib/gcc/nios2-elf/4.1.2/../../../../nios2-elf/lib\libc.a(lib_a-strchr.o)
 .comment       0x00000000       0x24 c:/altera/13.0/nios2eds/bin/gnu/h-i686-mingw32/bin/../lib/gcc/nios2-elf/4.1.2/../../../../nios2-elf/lib\libc.a(lib_a-strerror.o)
 .comment       0x00000000       0x24 c:/altera/13.0/nios2eds/bin/gnu/h-i686-mingw32/bin/../lib/gcc/nios2-elf/4.1.2/../../../../nios2-elf/lib\libc.a(lib_a-strlen.o)
 .comment       0x00000000       0x24 c:/altera/13.0/nios2eds/bin/gnu/h-i686-mingw32/bin/../lib/gcc/nios2-elf/4.1.2/../../../../nios2-elf/lib\libc.a(lib_a-u_strerr.o)
 .comment       0x00000000       0x24 c:/altera/13.0/nios2eds/bin/gnu/h-i686-mingw32/bin/../lib/gcc/nios2-elf/4.1.2/../../../../nios2-elf/lib\libc.a(lib_a-vfprintf.o)
 .comment       0x00000000       0x24 c:/altera/13.0/nios2eds/bin/gnu/h-i686-mingw32/bin/../lib/gcc/nios2-elf/4.1.2/../../../../nios2-elf/lib\libc.a(lib_a-wbuf.o)
 .comment       0x00000000       0x24 c:/altera/13.0/nios2eds/bin/gnu/h-i686-mingw32/bin/../lib/gcc/nios2-elf/4.1.2/../../../../nios2-elf/lib\libc.a(lib_a-wsetup.o)
 .comment       0x00000000       0x24 c:/altera/13.0/nios2eds/bin/gnu/h-i686-mingw32/bin/../lib/gcc/nios2-elf/4.1.2/../../../../nios2-elf/lib\libc.a(lib_a-__call_atexit.o)
 .comment       0x00000000       0x24 c:/altera/13.0/nios2eds/bin/gnu/h-i686-mingw32/bin/../lib/gcc/nios2-elf/4.1.2/../../../../nios2-elf/lib\libc.a(lib_a-dtoa.o)
 .comment       0x00000000       0x24 c:/altera/13.0/nios2eds/bin/gnu/h-i686-mingw32/bin/../lib/gcc/nios2-elf/4.1.2/../../../../nios2-elf/lib\libc.a(lib_a-fflush.o)
 .comment       0x00000000       0x24 c:/altera/13.0/nios2eds/bin/gnu/h-i686-mingw32/bin/../lib/gcc/nios2-elf/4.1.2/../../../../nios2-elf/lib\libc.a(lib_a-findfp.o)
 .comment       0x00000000       0x24 c:/altera/13.0/nios2eds/bin/gnu/h-i686-mingw32/bin/../lib/gcc/nios2-elf/4.1.2/../../../../nios2-elf/lib\libc.a(lib_a-fputc.o)
 .comment       0x00000000       0x24 c:/altera/13.0/nios2eds/bin/gnu/h-i686-mingw32/bin/../lib/gcc/nios2-elf/4.1.2/../../../../nios2-elf/lib\libc.a(lib_a-fputs.o)
 .comment       0x00000000       0x24 c:/altera/13.0/nios2eds/bin/gnu/h-i686-mingw32/bin/../lib/gcc/nios2-elf/4.1.2/../../../../nios2-elf/lib\libc.a(lib_a-freer.o)
 .comment       0x00000000       0x24 c:/altera/13.0/nios2eds/bin/gnu/h-i686-mingw32/bin/../lib/gcc/nios2-elf/4.1.2/../../../../nios2-elf/lib\libc.a(lib_a-fvwrite.o)
 .comment       0x00000000       0x24 c:/altera/13.0/nios2eds/bin/gnu/h-i686-mingw32/bin/../lib/gcc/nios2-elf/4.1.2/../../../../nios2-elf/lib\libc.a(lib_a-fwalk.o)
 .comment       0x00000000       0x24 c:/altera/13.0/nios2eds/bin/gnu/h-i686-mingw32/bin/../lib/gcc/nios2-elf/4.1.2/../../../../nios2-elf/lib\libc.a(lib_a-locale.o)
 .comment       0x00000000       0x24 c:/altera/13.0/nios2eds/bin/gnu/h-i686-mingw32/bin/../lib/gcc/nios2-elf/4.1.2/../../../../nios2-elf/lib\libc.a(lib_a-makebuf.o)
 .comment       0x00000000       0x24 c:/altera/13.0/nios2eds/bin/gnu/h-i686-mingw32/bin/../lib/gcc/nios2-elf/4.1.2/../../../../nios2-elf/lib\libc.a(lib_a-mallocr.o)
 .comment       0x00000000       0x24 c:/altera/13.0/nios2eds/bin/gnu/h-i686-mingw32/bin/../lib/gcc/nios2-elf/4.1.2/../../../../nios2-elf/lib\libc.a(lib_a-memchr.o)
 .comment       0x00000000       0x24 c:/altera/13.0/nios2eds/bin/gnu/h-i686-mingw32/bin/../lib/gcc/nios2-elf/4.1.2/../../../../nios2-elf/lib\libc.a(lib_a-mprec.o)
 .comment       0x00000000       0x24 c:/altera/13.0/nios2eds/bin/gnu/h-i686-mingw32/bin/../lib/gcc/nios2-elf/4.1.2/../../../../nios2-elf/lib\libc.a(lib_a-reallocr.o)
 .comment       0x00000000       0x24 c:/altera/13.0/nios2eds/bin/gnu/h-i686-mingw32/bin/../lib/gcc/nios2-elf/4.1.2/../../../../nios2-elf/lib\libc.a(lib_a-refill.o)
 .comment       0x00000000       0x24 c:/altera/13.0/nios2eds/bin/gnu/h-i686-mingw32/bin/../lib/gcc/nios2-elf/4.1.2/../../../../nios2-elf/lib\libc.a(lib_a-s_isinfd.o)
 .comment       0x00000000       0x24 c:/altera/13.0/nios2eds/bin/gnu/h-i686-mingw32/bin/../lib/gcc/nios2-elf/4.1.2/../../../../nios2-elf/lib\libc.a(lib_a-s_isnand.o)
 .comment       0x00000000       0x24 c:/altera/13.0/nios2eds/bin/gnu/h-i686-mingw32/bin/../lib/gcc/nios2-elf/4.1.2/../../../../nios2-elf/lib\libc.a(lib_a-sbrkr.o)
 .comment       0x00000000       0x24 c:/altera/13.0/nios2eds/bin/gnu/h-i686-mingw32/bin/../lib/gcc/nios2-elf/4.1.2/../../../../nios2-elf/lib\libc.a(lib_a-stdio.o)
 .comment       0x00000000       0x24 c:/altera/13.0/nios2eds/bin/gnu/h-i686-mingw32/bin/../lib/gcc/nios2-elf/4.1.2/../../../../nios2-elf/lib\libc.a(lib_a-strcmp.o)
 .comment       0x00000000       0x24 c:/altera/13.0/nios2eds/bin/gnu/h-i686-mingw32/bin/../lib/gcc/nios2-elf/4.1.2/../../../../nios2-elf/lib\libc.a(lib_a-writer.o)
 .comment       0x00000000       0x24 c:/altera/13.0/nios2eds/bin/gnu/h-i686-mingw32/bin/../lib/gcc/nios2-elf/4.1.2/../../../../nios2-elf/lib\libc.a(lib_a-callocr.o)
 .comment       0x00000000       0x24 c:/altera/13.0/nios2eds/bin/gnu/h-i686-mingw32/bin/../lib/gcc/nios2-elf/4.1.2/../../../../nios2-elf/lib\libc.a(lib_a-closer.o)
 .comment       0x00000000       0x24 c:/altera/13.0/nios2eds/bin/gnu/h-i686-mingw32/bin/../lib/gcc/nios2-elf/4.1.2/../../../../nios2-elf/lib\libc.a(lib_a-fclose.o)
 .comment       0x00000000       0x24 c:/altera/13.0/nios2eds/bin/gnu/h-i686-mingw32/bin/../lib/gcc/nios2-elf/4.1.2/../../../../nios2-elf/lib\libc.a(lib_a-fstatr.o)
 .comment       0x00000000       0x24 c:/altera/13.0/nios2eds/bin/gnu/h-i686-mingw32/bin/../lib/gcc/nios2-elf/4.1.2/../../../../nios2-elf/lib\libc.a(lib_a-int_errno.o)
 .comment       0x00000000       0x24 c:/altera/13.0/nios2eds/bin/gnu/h-i686-mingw32/bin/../lib/gcc/nios2-elf/4.1.2/../../../../nios2-elf/lib\libc.a(lib_a-isattyr.o)
 .comment       0x00000000       0x24 c:/altera/13.0/nios2eds/bin/gnu/h-i686-mingw32/bin/../lib/gcc/nios2-elf/4.1.2/../../../../nios2-elf/lib\libc.a(lib_a-lseekr.o)
 .comment       0x00000000       0x24 c:/altera/13.0/nios2eds/bin/gnu/h-i686-mingw32/bin/../lib/gcc/nios2-elf/4.1.2/../../../../nios2-elf/lib\libc.a(lib_a-readr.o)
 .comment       0x00000000       0x24 c:/altera/13.0/nios2eds/bin/gnu/h-i686-mingw32/bin/../lib/gcc/nios2-elf/4.1.2\libgcc.a(_udivdi3.o)
 .comment       0x00000000       0x24 c:/altera/13.0/nios2eds/bin/gnu/h-i686-mingw32/bin/../lib/gcc/nios2-elf/4.1.2\libgcc.a(_umoddi3.o)
 .comment       0x00000000       0x24 c:/altera/13.0/nios2eds/bin/gnu/h-i686-mingw32/bin/../lib/gcc/nios2-elf/4.1.2\libgcc.a(_div_df.o)
 .comment       0x00000000       0x24 c:/altera/13.0/nios2eds/bin/gnu/h-i686-mingw32/bin/../lib/gcc/nios2-elf/4.1.2\libgcc.a(_eq_df.o)
 .comment       0x00000000       0x24 c:/altera/13.0/nios2eds/bin/gnu/h-i686-mingw32/bin/../lib/gcc/nios2-elf/4.1.2\libgcc.a(_ne_df.o)
 .comment       0x00000000       0x24 c:/altera/13.0/nios2eds/bin/gnu/h-i686-mingw32/bin/../lib/gcc/nios2-elf/4.1.2\libgcc.a(_gt_df.o)
 .comment       0x00000000       0x24 c:/altera/13.0/nios2eds/bin/gnu/h-i686-mingw32/bin/../lib/gcc/nios2-elf/4.1.2\libgcc.a(_lt_df.o)
 .comment       0x00000000       0x24 c:/altera/13.0/nios2eds/bin/gnu/h-i686-mingw32/bin/../lib/gcc/nios2-elf/4.1.2\libgcc.a(_si_to_df.o)
 .comment       0x00000000       0x24 c:/altera/13.0/nios2eds/bin/gnu/h-i686-mingw32/bin/../lib/gcc/nios2-elf/4.1.2\libgcc.a(lib2-divmod.o)
 .comment       0x00000000       0x24 ../socket_simples_bsp/\libucosii_bsp.a(alt_exit.o)
 .comment       0x00000000       0x24 ../socket_simples_bsp/\libucosii_bsp.a(alt_flash_dev.o)
 .comment       0x00000000       0x24 ../socket_simples_bsp/\libucosii_bsp.a(alt_fstat.o)
 .comment       0x00000000       0x24 ../socket_simples_bsp/\libucosii_bsp.a(alt_irq_register.o)
 .comment       0x00000000       0x24 ../socket_simples_bsp/\libucosii_bsp.a(alt_irq_vars.o)
 .comment       0x00000000       0x24 ../socket_simples_bsp/\libucosii_bsp.a(alt_isatty.o)
 .comment       0x00000000       0x24 ../socket_simples_bsp/\libucosii_bsp.a(alt_lseek.o)
 .comment       0x00000000       0x24 ../socket_simples_bsp/\libucosii_bsp.a(alt_main.o)
 .comment       0x00000000       0x24 ../socket_simples_bsp/\libucosii_bsp.a(alt_sbrk.o)
 .comment       0x00000000       0x24 ../socket_simples_bsp/\libucosii_bsp.a(alt_usleep.o)
 .comment       0x00000000       0x24 ../socket_simples_bsp/\libucosii_bsp.a(alt_env_lock.o)
 .comment       0x00000000       0x24 ../socket_simples_bsp/\libucosii_bsp.a(alt_malloc_lock.o)
 .comment       0x00000000       0x24 ../socket_simples_bsp/\libucosii_bsp.a(os_core.o)
 .comment       0x00000000       0x24 ../socket_simples_bsp/\libucosii_bsp.a(os_dbg.o)
 .comment       0x00000000       0x24 ../socket_simples_bsp/\libucosii_bsp.a(os_flag.o)
 .comment       0x00000000       0x24 ../socket_simples_bsp/\libucosii_bsp.a(os_mem.o)
 .comment       0x00000000       0x24 ../socket_simples_bsp/\libucosii_bsp.a(os_q.o)
 .comment       0x00000000       0x24 ../socket_simples_bsp/\libucosii_bsp.a(os_sem.o)
 .comment       0x00000000       0x24 ../socket_simples_bsp/\libucosii_bsp.a(os_task.o)
 .comment       0x00000000       0x24 ../socket_simples_bsp/\libucosii_bsp.a(os_time.o)
 .comment       0x00000000       0x24 ../socket_simples_bsp/\libucosii_bsp.a(alt_sys_init.o)
 .comment       0x00000000       0x24 ../socket_simples_bsp/\libucosii_bsp.a(altera_avalon_cfi_flash.o)
 .comment       0x00000000       0x24 ../socket_simples_bsp/\libucosii_bsp.a(altera_avalon_cfi_flash_table.o)
 .comment       0x00000000       0x24 ../socket_simples_bsp/\libucosii_bsp.a(altera_avalon_epcs_flash_controller.o)
 .comment       0x00000000       0x24 ../socket_simples_bsp/\libucosii_bsp.a(altera_avalon_jtag_uart_fd.o)
 .comment       0x00000000       0x24 ../socket_simples_bsp/\libucosii_bsp.a(altera_avalon_jtag_uart_init.o)
 .comment       0x00000000       0x24 ../socket_simples_bsp/\libucosii_bsp.a(altera_avalon_jtag_uart_ioctl.o)
 .comment       0x00000000       0x24 ../socket_simples_bsp/\libucosii_bsp.a(altera_avalon_jtag_uart_read.o)
 .comment       0x00000000       0x24 ../socket_simples_bsp/\libucosii_bsp.a(altera_avalon_jtag_uart_write.o)
 .comment       0x00000000       0x24 ../socket_simples_bsp/\libucosii_bsp.a(altera_avalon_lcd_16207.o)
 .comment       0x00000000       0x24 ../socket_simples_bsp/\libucosii_bsp.a(altera_avalon_lcd_16207_fd.o)
 .comment       0x00000000       0x24 ../socket_simples_bsp/\libucosii_bsp.a(altera_avalon_timer_sc.o)
 .comment       0x00000000       0x24 ../socket_simples_bsp/\libucosii_bsp.a(altera_avalon_uart_fd.o)
 .comment       0x00000000       0x24 ../socket_simples_bsp/\libucosii_bsp.a(altera_avalon_uart_init.o)
 .comment       0x00000000       0x24 ../socket_simples_bsp/\libucosii_bsp.a(altera_avalon_uart_read.o)
 .comment       0x00000000       0x24 ../socket_simples_bsp/\libucosii_bsp.a(altera_avalon_uart_write.o)
 .comment       0x00000000       0x24 ../socket_simples_bsp/\libucosii_bsp.a(epcs_commands.o)
 .comment       0x00000000       0x24 ../socket_simples_bsp/\libucosii_bsp.a(alt_iniche_close.o)
 .comment       0x00000000       0x24 ../socket_simples_bsp/\libucosii_bsp.a(alt_iniche_dev.o)
 .comment       0x00000000       0x24 ../socket_simples_bsp/\libucosii_bsp.a(alt_iniche_read.o)
 .comment       0x00000000       0x24 ../socket_simples_bsp/\libucosii_bsp.a(alt_iniche_write.o)
 .comment       0x00000000       0x24 ../socket_simples_bsp/\libucosii_bsp.a(ipnet.o)
 .comment       0x00000000       0x24 ../socket_simples_bsp/\libucosii_bsp.a(ipstart.o)
 .comment       0x00000000       0x24 ../socket_simples_bsp/\libucosii_bsp.a(igmp_cmn.o)
 .comment       0x00000000       0x24 ../socket_simples_bsp/\libucosii_bsp.a(bsdsock.o)
 .comment       0x00000000       0x24 ../socket_simples_bsp/\libucosii_bsp.a(cksum.o)
 .comment       0x00000000       0x24 ../socket_simples_bsp/\libucosii_bsp.a(in_utils.o)
 .comment       0x00000000       0x24 ../socket_simples_bsp/\libucosii_bsp.a(netmain.o)
 .comment       0x00000000       0x24 ../socket_simples_bsp/\libucosii_bsp.a(parseip.o)
 .comment       0x00000000       0x24 ../socket_simples_bsp/\libucosii_bsp.a(tk_crnos.o)
 .comment       0x00000000       0x24 ../socket_simples_bsp/\libucosii_bsp.a(dhcpclnt.o)
 .comment       0x00000000       0x24 ../socket_simples_bsp/\libucosii_bsp.a(dhcputil.o)
 .comment       0x00000000       0x24 ../socket_simples_bsp/\libucosii_bsp.a(pktalloc.o)
 .comment       0x00000000       0x24 ../socket_simples_bsp/\libucosii_bsp.a(q.o)
 .comment       0x00000000       0x24 ../socket_simples_bsp/\libucosii_bsp.a(udp_open.o)
 .comment       0x00000000       0x24 ../socket_simples_bsp/\libucosii_bsp.a(brdutils.o)
 .comment       0x00000000       0x24 ../socket_simples_bsp/\libucosii_bsp.a(osportco.o)
 .comment       0x00000000       0x24 ../socket_simples_bsp/\libucosii_bsp.a(targnios.o)
 .comment       0x00000000       0x24 ../socket_simples_bsp/\libucosii_bsp.a(nptcp.o)
 .comment       0x00000000       0x24 ../socket_simples_bsp/\libucosii_bsp.a(rawsock.o)
 .comment       0x00000000       0x24 ../socket_simples_bsp/\libucosii_bsp.a(sockcall.o)
 .comment       0x00000000       0x24 ../socket_simples_bsp/\libucosii_bsp.a(socket.o)
 .comment       0x00000000       0x24 ../socket_simples_bsp/\libucosii_bsp.a(socket2.o)
 .comment       0x00000000       0x24 ../socket_simples_bsp/\libucosii_bsp.a(soselect.o)
 .comment       0x00000000       0x24 ../socket_simples_bsp/\libucosii_bsp.a(tcp_in.o)
 .comment       0x00000000       0x24 ../socket_simples_bsp/\libucosii_bsp.a(tcp_out.o)
 .comment       0x00000000       0x24 ../socket_simples_bsp/\libucosii_bsp.a(tcp_subr.o)
 .comment       0x00000000       0x24 ../socket_simples_bsp/\libucosii_bsp.a(tcp_timr.o)
 .comment       0x00000000       0x24 ../socket_simples_bsp/\libucosii_bsp.a(tcp_usr.o)
 .comment       0x00000000       0x24 ../socket_simples_bsp/\libucosii_bsp.a(tcpport.o)
 .comment       0x00000000       0x24 ../socket_simples_bsp/\libucosii_bsp.a(udpsock.o)
 .comment       0x00000000       0x24 ../socket_simples_bsp/\libucosii_bsp.a(alt_alarm_start.o)
 .comment       0x00000000       0x24 ../socket_simples_bsp/\libucosii_bsp.a(alt_busy_sleep.o)
 .comment       0x00000000       0x24 ../socket_simples_bsp/\libucosii_bsp.a(alt_close.o)
 .comment       0x00000000       0x24 ../socket_simples_bsp/\libucosii_bsp.a(alt_dcache_flush.o)
 .comment       0x00000000       0x24 ../socket_simples_bsp/\libucosii_bsp.a(alt_dev.o)
 .comment       0x00000000       0x24 ../socket_simples_bsp/\libucosii_bsp.a(alt_dev_llist_insert.o)
 .comment       0x00000000       0x24 ../socket_simples_bsp/\libucosii_bsp.a(alt_do_ctors.o)
 .comment       0x00000000       0x24 ../socket_simples_bsp/\libucosii_bsp.a(alt_do_dtors.o)
 .comment       0x00000000       0x24 ../socket_simples_bsp/\libucosii_bsp.a(alt_errno.o)
 .comment       0x00000000       0x24 ../socket_simples_bsp/\libucosii_bsp.a(alt_find_dev.o)
 .comment       0x00000000       0x24 ../socket_simples_bsp/\libucosii_bsp.a(alt_iic.o)
 .comment       0x00000000       0x24 ../socket_simples_bsp/\libucosii_bsp.a(alt_iic_isr_register.o)
 .comment       0x00000000       0x24 ../socket_simples_bsp/\libucosii_bsp.a(alt_io_redirect.o)
 .comment       0x00000000       0x24 ../socket_simples_bsp/\libucosii_bsp.a(alt_irq_handler.o)
 .comment       0x00000000       0x24 ../socket_simples_bsp/\libucosii_bsp.a(alt_open.o)
 .comment       0x00000000       0x24 ../socket_simples_bsp/\libucosii_bsp.a(alt_read.o)
 .comment       0x00000000       0x24 ../socket_simples_bsp/\libucosii_bsp.a(alt_release_fd.o)
 .comment       0x00000000       0x24 ../socket_simples_bsp/\libucosii_bsp.a(alt_remap_cached.o)
 .comment       0x00000000       0x24 ../socket_simples_bsp/\libucosii_bsp.a(alt_remap_uncached.o)
 .comment       0x00000000       0x24 ../socket_simples_bsp/\libucosii_bsp.a(alt_tick.o)
 .comment       0x00000000       0x24 ../socket_simples_bsp/\libucosii_bsp.a(alt_write.o)
 .comment       0x00000000       0x24 ../socket_simples_bsp/\libucosii_bsp.a(altera_nios2_qsys_irq.o)
 .comment       0x00000000       0x24 ../socket_simples_bsp/\libucosii_bsp.a(os_cpu_c.o)
 .comment       0x00000000       0x24 ../socket_simples_bsp/\libucosii_bsp.a(altera_avalon_cfi_flash_amd.o)
 .comment       0x00000000       0x24 ../socket_simples_bsp/\libucosii_bsp.a(altera_avalon_cfi_flash_intel.o)
 .comment       0x00000000       0x24 ../socket_simples_bsp/\libucosii_bsp.a(altera_avalon_spi.o)
 .comment       0x00000000       0x24 ../socket_simples_bsp/\libucosii_bsp.a(allports.o)
 .comment       0x00000000       0x24 ../socket_simples_bsp/\libucosii_bsp.a(timeouts.o)
 .comment       0x00000000       0x24 ../socket_simples_bsp/\libucosii_bsp.a(tk_misc.o)
 .comment       0x00000000       0x24 ../socket_simples_bsp/\libucosii_bsp.a(alt_iniche_fcntl.o)
 .comment       0x00000000       0x24 ../socket_simples_bsp/\libucosii_bsp.a(et_arp.o)
 .comment       0x00000000       0x24 ../socket_simples_bsp/\libucosii_bsp.a(iface.o)
 .comment       0x00000000       0x24 ../socket_simples_bsp/\libucosii_bsp.a(ip.o)
 .comment       0x00000000       0x24 ../socket_simples_bsp/\libucosii_bsp.a(ip_reasm.o)
 .comment       0x00000000       0x24 ../socket_simples_bsp/\libucosii_bsp.a(ipdemux.o)
 .comment       0x00000000       0x24 ../socket_simples_bsp/\libucosii_bsp.a(ipmc.o)
 .comment       0x00000000       0x24 ../socket_simples_bsp/\libucosii_bsp.a(ipport.o)
 .comment       0x00000000       0x24 ../socket_simples_bsp/\libucosii_bsp.a(ipraw.o)
 .comment       0x00000000       0x24 ../socket_simples_bsp/\libucosii_bsp.a(iproute.o)
 .comment       0x00000000       0x24 ../socket_simples_bsp/\libucosii_bsp.a(udp.o)
 .comment       0x00000000       0x24 ../socket_simples_bsp/\libucosii_bsp.a(igmp.o)
 .comment       0x00000000       0x24 ../socket_simples_bsp/\libucosii_bsp.a(igmp2.o)
 .comment       0x00000000       0x24 ../socket_simples_bsp/\libucosii_bsp.a(ipopt.o)
 .comment       0x00000000       0x24 ../socket_simples_bsp/\libucosii_bsp.a(u_mctest.o)
 .comment       0x00000000       0x24 ../socket_simples_bsp/\libucosii_bsp.a(dhcsetup.o)
 .comment       0x00000000       0x24 ../socket_simples_bsp/\libucosii_bsp.a(memdev.o)
 .comment       0x00000000       0x24 ../socket_simples_bsp/\libucosii_bsp.a(tcpcksum.o)
 .comment       0x00000000       0x24 ../socket_simples_bsp/\libucosii_bsp.a(in_pcb.o)
 .comment       0x00000000       0x24 ../socket_simples_bsp/\libucosii_bsp.a(vfsfiles.o)
 .comment       0x00000000       0x24 ../socket_simples_bsp/\libucosii_bsp.a(vfsport.o)
 .comment       0x00000000       0x24 ../socket_simples_bsp/\libucosii_bsp.a(alt_fcntl.o)
 .comment       0x00000000       0x24 ../socket_simples_bsp/\libucosii_bsp.a(alt_find_file.o)
 .comment       0x00000000       0x24 ../socket_simples_bsp/\libucosii_bsp.a(alt_get_fd.o)
 .comment       0x00000000       0x24 ../socket_simples_bsp/\libucosii_bsp.a(icmp.o)
 .comment       0x00000000       0x24 c:/altera/13.0/nios2eds/bin/gnu/h-i686-mingw32/bin/../lib/gcc/nios2-elf/4.1.2/../../../../nios2-elf/lib\libc.a(lib_a-atexit.o)
 .comment       0x00000000       0x24 c:/altera/13.0/nios2eds/bin/gnu/h-i686-mingw32/bin/../lib/gcc/nios2-elf/4.1.2/../../../../nios2-elf/lib\libc.a(lib_a-atoi.o)
 .comment       0x00000000       0x24 c:/altera/13.0/nios2eds/bin/gnu/h-i686-mingw32/bin/../lib/gcc/nios2-elf/4.1.2/../../../../nios2-elf/lib\libc.a(lib_a-calloc.o)
 .comment       0x00000000       0x24 c:/altera/13.0/nios2eds/bin/gnu/h-i686-mingw32/bin/../lib/gcc/nios2-elf/4.1.2/../../../../nios2-elf/lib\libc.a(lib_a-malloc.o)
 .comment       0x00000000       0x24 c:/altera/13.0/nios2eds/bin/gnu/h-i686-mingw32/bin/../lib/gcc/nios2-elf/4.1.2/../../../../nios2-elf/lib\libc.a(lib_a-memcmp.o)
 .comment       0x00000000       0x24 c:/altera/13.0/nios2eds/bin/gnu/h-i686-mingw32/bin/../lib/gcc/nios2-elf/4.1.2/../../../../nios2-elf/lib\libc.a(lib_a-sprintf.o)
 .comment       0x00000000       0x24 c:/altera/13.0/nios2eds/bin/gnu/h-i686-mingw32/bin/../lib/gcc/nios2-elf/4.1.2/../../../../nios2-elf/lib\libc.a(lib_a-strcpy.o)
 .comment       0x00000000       0x24 c:/altera/13.0/nios2eds/bin/gnu/h-i686-mingw32/bin/../lib/gcc/nios2-elf/4.1.2/../../../../nios2-elf/lib\libc.a(lib_a-strncmp.o)
 .comment       0x00000000       0x24 c:/altera/13.0/nios2eds/bin/gnu/h-i686-mingw32/bin/../lib/gcc/nios2-elf/4.1.2/../../../../nios2-elf/lib\libc.a(lib_a-strncpy.o)
 .comment       0x00000000       0x24 c:/altera/13.0/nios2eds/bin/gnu/h-i686-mingw32/bin/../lib/gcc/nios2-elf/4.1.2/../../../../nios2-elf/lib\libc.a(lib_a-strtol.o)
 .comment       0x00000000       0x24 c:/altera/13.0/nios2eds/bin/gnu/h-i686-mingw32/bin/../lib/gcc/nios2-elf/4.1.2/../../../../nios2-elf/lib\libc.a(lib_a-vprintf.o)
 .comment       0x00000000       0x24 c:/altera/13.0/nios2eds/bin/gnu/h-i686-mingw32/bin/../lib/gcc/nios2-elf/4.1.2/../../../../nios2-elf/lib\libc.a(lib_a-vsprintf.o)
 .comment       0x00000000       0x24 c:/altera/13.0/nios2eds/bin/gnu/h-i686-mingw32/bin/../lib/gcc/nios2-elf/4.1.2/../../../../nios2-elf/lib\libc.a(lib_a-__atexit.o)

.debug
 *(.debug)

.line
 *(.line)

.debug_srcinfo
 *(.debug_srcinfo)

.debug_sfnames
 *(.debug_sfnames)

.debug_aranges  0x00000000     0x1b70
 *(.debug_aranges)
 .debug_aranges
                0x00000000       0x20 ../socket_simples_bsp//obj/HAL/src/crt0.o
 .debug_aranges
                0x00000020       0x20 obj/default/LCD.o
 .debug_aranges
                0x00000040       0x20 obj/default/SSS_DE2_115.o
 .debug_aranges
                0x00000060       0x20 obj/default/alt_error_handler.o
 .debug_aranges
                0x00000080       0x20 obj/default/dm9000a.o
 .debug_aranges
                0x000000a0       0x20 obj/default/iniche_init.o
 .debug_aranges
                0x000000c0       0x20 obj/default/led.o
 .debug_aranges
                0x000000e0       0x20 obj/default/network_utilities.o
 .debug_aranges
                0x00000100       0x20 obj/default/simple_socket_server.o
 .debug_aranges
                0x00000120       0x20 c:/altera/13.0/nios2eds/bin/gnu/h-i686-mingw32/bin/../lib/gcc/nios2-elf/4.1.2\libgcc.a(_fixunsdfsi.o)
 .debug_aranges
                0x00000140       0x20 c:/altera/13.0/nios2eds/bin/gnu/h-i686-mingw32/bin/../lib/gcc/nios2-elf/4.1.2\libgcc.a(_addsub_df.o)
 .debug_aranges
                0x00000160       0x20 c:/altera/13.0/nios2eds/bin/gnu/h-i686-mingw32/bin/../lib/gcc/nios2-elf/4.1.2\libgcc.a(_mul_df.o)
 .debug_aranges
                0x00000180       0x20 c:/altera/13.0/nios2eds/bin/gnu/h-i686-mingw32/bin/../lib/gcc/nios2-elf/4.1.2\libgcc.a(_ge_df.o)
 .debug_aranges
                0x000001a0       0x20 c:/altera/13.0/nios2eds/bin/gnu/h-i686-mingw32/bin/../lib/gcc/nios2-elf/4.1.2\libgcc.a(_df_to_si.o)
 .debug_aranges
                0x000001c0       0x20 c:/altera/13.0/nios2eds/bin/gnu/h-i686-mingw32/bin/../lib/gcc/nios2-elf/4.1.2\libgcc.a(_usi_to_df.o)
 .debug_aranges
                0x000001e0       0x20 c:/altera/13.0/nios2eds/bin/gnu/h-i686-mingw32/bin/../lib/gcc/nios2-elf/4.1.2\libgcc.a(_muldi3.o)
 .debug_aranges
                0x00000200       0x20 c:/altera/13.0/nios2eds/bin/gnu/h-i686-mingw32/bin/../lib/gcc/nios2-elf/4.1.2\libgcc.a(_clzsi2.o)
 .debug_aranges
                0x00000220       0x20 c:/altera/13.0/nios2eds/bin/gnu/h-i686-mingw32/bin/../lib/gcc/nios2-elf/4.1.2\libgcc.a(_pack_df.o)
 .debug_aranges
                0x00000240       0x20 c:/altera/13.0/nios2eds/bin/gnu/h-i686-mingw32/bin/../lib/gcc/nios2-elf/4.1.2\libgcc.a(_unpack_df.o)
 .debug_aranges
                0x00000260       0x20 c:/altera/13.0/nios2eds/bin/gnu/h-i686-mingw32/bin/../lib/gcc/nios2-elf/4.1.2\libgcc.a(_fpcmp_parts_df.o)
 .debug_aranges
                0x00000280       0x20 c:/altera/13.0/nios2eds/bin/gnu/h-i686-mingw32/bin/../lib/gcc/nios2-elf/4.1.2/../../../../nios2-elf/lib\libc.a(lib_a-exit.o)
 .debug_aranges
                0x000002a0       0x20 c:/altera/13.0/nios2eds/bin/gnu/h-i686-mingw32/bin/../lib/gcc/nios2-elf/4.1.2/../../../../nios2-elf/lib\libc.a(lib_a-fprintf.o)
 .debug_aranges
                0x000002c0       0x20 c:/altera/13.0/nios2eds/bin/gnu/h-i686-mingw32/bin/../lib/gcc/nios2-elf/4.1.2/../../../../nios2-elf/lib\libc.a(lib_a-fwrite.o)
 .debug_aranges
                0x000002e0       0x20 c:/altera/13.0/nios2eds/bin/gnu/h-i686-mingw32/bin/../lib/gcc/nios2-elf/4.1.2/../../../../nios2-elf/lib\libc.a(lib_a-getc.o)
 .debug_aranges
                0x00000300       0x20 c:/altera/13.0/nios2eds/bin/gnu/h-i686-mingw32/bin/../lib/gcc/nios2-elf/4.1.2/../../../../nios2-elf/lib\libc.a(lib_a-memcpy.o)
 .debug_aranges
                0x00000320       0x20 c:/altera/13.0/nios2eds/bin/gnu/h-i686-mingw32/bin/../lib/gcc/nios2-elf/4.1.2/../../../../nios2-elf/lib\libc.a(lib_a-memmove.o)
 .debug_aranges
                0x00000340       0x20 c:/altera/13.0/nios2eds/bin/gnu/h-i686-mingw32/bin/../lib/gcc/nios2-elf/4.1.2/../../../../nios2-elf/lib\libc.a(lib_a-memset.o)
 .debug_aranges
                0x00000360       0x20 c:/altera/13.0/nios2eds/bin/gnu/h-i686-mingw32/bin/../lib/gcc/nios2-elf/4.1.2/../../../../nios2-elf/lib\libc.a(lib_a-perror.o)
 .debug_aranges
                0x00000380       0x20 c:/altera/13.0/nios2eds/bin/gnu/h-i686-mingw32/bin/../lib/gcc/nios2-elf/4.1.2/../../../../nios2-elf/lib\libc.a(lib_a-printf.o)
 .debug_aranges
                0x000003a0       0x20 c:/altera/13.0/nios2eds/bin/gnu/h-i686-mingw32/bin/../lib/gcc/nios2-elf/4.1.2/../../../../nios2-elf/lib\libc.a(lib_a-putc.o)
 .debug_aranges
                0x000003c0       0x20 c:/altera/13.0/nios2eds/bin/gnu/h-i686-mingw32/bin/../lib/gcc/nios2-elf/4.1.2/../../../../nios2-elf/lib\libc.a(lib_a-putchar.o)
 .debug_aranges
                0x000003e0       0x20 c:/altera/13.0/nios2eds/bin/gnu/h-i686-mingw32/bin/../lib/gcc/nios2-elf/4.1.2/../../../../nios2-elf/lib\libc.a(lib_a-puts.o)
 .debug_aranges
                0x00000400       0x20 c:/altera/13.0/nios2eds/bin/gnu/h-i686-mingw32/bin/../lib/gcc/nios2-elf/4.1.2/../../../../nios2-elf/lib\libc.a(lib_a-rget.o)
 .debug_aranges
                0x00000420       0x20 c:/altera/13.0/nios2eds/bin/gnu/h-i686-mingw32/bin/../lib/gcc/nios2-elf/4.1.2/../../../../nios2-elf/lib\libc.a(lib_a-strchr.o)
 .debug_aranges
                0x00000440       0x20 c:/altera/13.0/nios2eds/bin/gnu/h-i686-mingw32/bin/../lib/gcc/nios2-elf/4.1.2/../../../../nios2-elf/lib\libc.a(lib_a-strerror.o)
 .debug_aranges
                0x00000460       0x20 c:/altera/13.0/nios2eds/bin/gnu/h-i686-mingw32/bin/../lib/gcc/nios2-elf/4.1.2/../../../../nios2-elf/lib\libc.a(lib_a-strlen.o)
 .debug_aranges
                0x00000480       0x20 c:/altera/13.0/nios2eds/bin/gnu/h-i686-mingw32/bin/../lib/gcc/nios2-elf/4.1.2/../../../../nios2-elf/lib\libc.a(lib_a-u_strerr.o)
 .debug_aranges
                0x000004a0       0x20 c:/altera/13.0/nios2eds/bin/gnu/h-i686-mingw32/bin/../lib/gcc/nios2-elf/4.1.2/../../../../nios2-elf/lib\libc.a(lib_a-vfprintf.o)
 .debug_aranges
                0x000004c0       0x20 c:/altera/13.0/nios2eds/bin/gnu/h-i686-mingw32/bin/../lib/gcc/nios2-elf/4.1.2/../../../../nios2-elf/lib\libc.a(lib_a-wbuf.o)
 .debug_aranges
                0x000004e0       0x20 c:/altera/13.0/nios2eds/bin/gnu/h-i686-mingw32/bin/../lib/gcc/nios2-elf/4.1.2/../../../../nios2-elf/lib\libc.a(lib_a-wsetup.o)
 .debug_aranges
                0x00000500       0x20 c:/altera/13.0/nios2eds/bin/gnu/h-i686-mingw32/bin/../lib/gcc/nios2-elf/4.1.2/../../../../nios2-elf/lib\libc.a(lib_a-__call_atexit.o)
 .debug_aranges
                0x00000520       0x20 c:/altera/13.0/nios2eds/bin/gnu/h-i686-mingw32/bin/../lib/gcc/nios2-elf/4.1.2/../../../../nios2-elf/lib\libc.a(lib_a-dtoa.o)
 .debug_aranges
                0x00000540       0x20 c:/altera/13.0/nios2eds/bin/gnu/h-i686-mingw32/bin/../lib/gcc/nios2-elf/4.1.2/../../../../nios2-elf/lib\libc.a(lib_a-fflush.o)
 .debug_aranges
                0x00000560       0x20 c:/altera/13.0/nios2eds/bin/gnu/h-i686-mingw32/bin/../lib/gcc/nios2-elf/4.1.2/../../../../nios2-elf/lib\libc.a(lib_a-findfp.o)
 .debug_aranges
                0x00000580       0x20 c:/altera/13.0/nios2eds/bin/gnu/h-i686-mingw32/bin/../lib/gcc/nios2-elf/4.1.2/../../../../nios2-elf/lib\libc.a(lib_a-fputc.o)
 .debug_aranges
                0x000005a0       0x20 c:/altera/13.0/nios2eds/bin/gnu/h-i686-mingw32/bin/../lib/gcc/nios2-elf/4.1.2/../../../../nios2-elf/lib\libc.a(lib_a-fputs.o)
 .debug_aranges
                0x000005c0       0x20 c:/altera/13.0/nios2eds/bin/gnu/h-i686-mingw32/bin/../lib/gcc/nios2-elf/4.1.2/../../../../nios2-elf/lib\libc.a(lib_a-freer.o)
 .debug_aranges
                0x000005e0       0x20 c:/altera/13.0/nios2eds/bin/gnu/h-i686-mingw32/bin/../lib/gcc/nios2-elf/4.1.2/../../../../nios2-elf/lib\libc.a(lib_a-fvwrite.o)
 .debug_aranges
                0x00000600       0x20 c:/altera/13.0/nios2eds/bin/gnu/h-i686-mingw32/bin/../lib/gcc/nios2-elf/4.1.2/../../../../nios2-elf/lib\libc.a(lib_a-fwalk.o)
 .debug_aranges
                0x00000620       0x20 c:/altera/13.0/nios2eds/bin/gnu/h-i686-mingw32/bin/../lib/gcc/nios2-elf/4.1.2/../../../../nios2-elf/lib\libc.a(lib_a-locale.o)
 .debug_aranges
                0x00000640       0x20 c:/altera/13.0/nios2eds/bin/gnu/h-i686-mingw32/bin/../lib/gcc/nios2-elf/4.1.2/../../../../nios2-elf/lib\libc.a(lib_a-makebuf.o)
 .debug_aranges
                0x00000660       0x20 c:/altera/13.0/nios2eds/bin/gnu/h-i686-mingw32/bin/../lib/gcc/nios2-elf/4.1.2/../../../../nios2-elf/lib\libc.a(lib_a-mallocr.o)
 .debug_aranges
                0x00000680       0x20 c:/altera/13.0/nios2eds/bin/gnu/h-i686-mingw32/bin/../lib/gcc/nios2-elf/4.1.2/../../../../nios2-elf/lib\libc.a(lib_a-memchr.o)
 .debug_aranges
                0x000006a0       0x20 c:/altera/13.0/nios2eds/bin/gnu/h-i686-mingw32/bin/../lib/gcc/nios2-elf/4.1.2/../../../../nios2-elf/lib\libc.a(lib_a-mprec.o)
 .debug_aranges
                0x000006c0       0x20 c:/altera/13.0/nios2eds/bin/gnu/h-i686-mingw32/bin/../lib/gcc/nios2-elf/4.1.2/../../../../nios2-elf/lib\libc.a(lib_a-reallocr.o)
 .debug_aranges
                0x000006e0       0x20 c:/altera/13.0/nios2eds/bin/gnu/h-i686-mingw32/bin/../lib/gcc/nios2-elf/4.1.2/../../../../nios2-elf/lib\libc.a(lib_a-refill.o)
 .debug_aranges
                0x00000700       0x20 c:/altera/13.0/nios2eds/bin/gnu/h-i686-mingw32/bin/../lib/gcc/nios2-elf/4.1.2/../../../../nios2-elf/lib\libc.a(lib_a-s_isinfd.o)
 .debug_aranges
                0x00000720       0x20 c:/altera/13.0/nios2eds/bin/gnu/h-i686-mingw32/bin/../lib/gcc/nios2-elf/4.1.2/../../../../nios2-elf/lib\libc.a(lib_a-s_isnand.o)
 .debug_aranges
                0x00000740       0x20 c:/altera/13.0/nios2eds/bin/gnu/h-i686-mingw32/bin/../lib/gcc/nios2-elf/4.1.2/../../../../nios2-elf/lib\libc.a(lib_a-sbrkr.o)
 .debug_aranges
                0x00000760       0x20 c:/altera/13.0/nios2eds/bin/gnu/h-i686-mingw32/bin/../lib/gcc/nios2-elf/4.1.2/../../../../nios2-elf/lib\libc.a(lib_a-stdio.o)
 .debug_aranges
                0x00000780       0x20 c:/altera/13.0/nios2eds/bin/gnu/h-i686-mingw32/bin/../lib/gcc/nios2-elf/4.1.2/../../../../nios2-elf/lib\libc.a(lib_a-strcmp.o)
 .debug_aranges
                0x000007a0       0x20 c:/altera/13.0/nios2eds/bin/gnu/h-i686-mingw32/bin/../lib/gcc/nios2-elf/4.1.2/../../../../nios2-elf/lib\libc.a(lib_a-writer.o)
 .debug_aranges
                0x000007c0       0x20 c:/altera/13.0/nios2eds/bin/gnu/h-i686-mingw32/bin/../lib/gcc/nios2-elf/4.1.2/../../../../nios2-elf/lib\libc.a(lib_a-callocr.o)
 .debug_aranges
                0x000007e0       0x20 c:/altera/13.0/nios2eds/bin/gnu/h-i686-mingw32/bin/../lib/gcc/nios2-elf/4.1.2/../../../../nios2-elf/lib\libc.a(lib_a-closer.o)
 .debug_aranges
                0x00000800       0x20 c:/altera/13.0/nios2eds/bin/gnu/h-i686-mingw32/bin/../lib/gcc/nios2-elf/4.1.2/../../../../nios2-elf/lib\libc.a(lib_a-fclose.o)
 .debug_aranges
                0x00000820       0x20 c:/altera/13.0/nios2eds/bin/gnu/h-i686-mingw32/bin/../lib/gcc/nios2-elf/4.1.2/../../../../nios2-elf/lib\libc.a(lib_a-fstatr.o)
 .debug_aranges
                0x00000840       0x20 c:/altera/13.0/nios2eds/bin/gnu/h-i686-mingw32/bin/../lib/gcc/nios2-elf/4.1.2/../../../../nios2-elf/lib\libc.a(lib_a-isattyr.o)
 .debug_aranges
                0x00000860       0x20 c:/altera/13.0/nios2eds/bin/gnu/h-i686-mingw32/bin/../lib/gcc/nios2-elf/4.1.2/../../../../nios2-elf/lib\libc.a(lib_a-lseekr.o)
 .debug_aranges
                0x00000880       0x20 c:/altera/13.0/nios2eds/bin/gnu/h-i686-mingw32/bin/../lib/gcc/nios2-elf/4.1.2/../../../../nios2-elf/lib\libc.a(lib_a-readr.o)
 .debug_aranges
                0x000008a0       0x20 c:/altera/13.0/nios2eds/bin/gnu/h-i686-mingw32/bin/../lib/gcc/nios2-elf/4.1.2\libgcc.a(_udivdi3.o)
 .debug_aranges
                0x000008c0       0x20 c:/altera/13.0/nios2eds/bin/gnu/h-i686-mingw32/bin/../lib/gcc/nios2-elf/4.1.2\libgcc.a(_umoddi3.o)
 .debug_aranges
                0x000008e0       0x20 c:/altera/13.0/nios2eds/bin/gnu/h-i686-mingw32/bin/../lib/gcc/nios2-elf/4.1.2\libgcc.a(_div_df.o)
 .debug_aranges
                0x00000900       0x20 c:/altera/13.0/nios2eds/bin/gnu/h-i686-mingw32/bin/../lib/gcc/nios2-elf/4.1.2\libgcc.a(_eq_df.o)
 .debug_aranges
                0x00000920       0x20 c:/altera/13.0/nios2eds/bin/gnu/h-i686-mingw32/bin/../lib/gcc/nios2-elf/4.1.2\libgcc.a(_ne_df.o)
 .debug_aranges
                0x00000940       0x20 c:/altera/13.0/nios2eds/bin/gnu/h-i686-mingw32/bin/../lib/gcc/nios2-elf/4.1.2\libgcc.a(_gt_df.o)
 .debug_aranges
                0x00000960       0x20 c:/altera/13.0/nios2eds/bin/gnu/h-i686-mingw32/bin/../lib/gcc/nios2-elf/4.1.2\libgcc.a(_lt_df.o)
 .debug_aranges
                0x00000980       0x20 c:/altera/13.0/nios2eds/bin/gnu/h-i686-mingw32/bin/../lib/gcc/nios2-elf/4.1.2\libgcc.a(_si_to_df.o)
 .debug_aranges
                0x000009a0       0x20 c:/altera/13.0/nios2eds/bin/gnu/h-i686-mingw32/bin/../lib/gcc/nios2-elf/4.1.2\libgcc.a(lib2-divmod.o)
 .debug_aranges
                0x000009c0       0x20 ../socket_simples_bsp/\libucosii_bsp.a(alt_exit.o)
 .debug_aranges
                0x000009e0       0x20 ../socket_simples_bsp/\libucosii_bsp.a(alt_flash_dev.o)
 .debug_aranges
                0x00000a00       0x20 ../socket_simples_bsp/\libucosii_bsp.a(alt_fstat.o)
 .debug_aranges
                0x00000a20       0x20 ../socket_simples_bsp/\libucosii_bsp.a(alt_irq_register.o)
 .debug_aranges
                0x00000a40       0x20 ../socket_simples_bsp/\libucosii_bsp.a(alt_isatty.o)
 .debug_aranges
                0x00000a60       0x20 ../socket_simples_bsp/\libucosii_bsp.a(alt_lseek.o)
 .debug_aranges
                0x00000a80       0x20 ../socket_simples_bsp/\libucosii_bsp.a(alt_main.o)
 .debug_aranges
                0x00000aa0       0x20 ../socket_simples_bsp/\libucosii_bsp.a(alt_sbrk.o)
 .debug_aranges
                0x00000ac0       0x20 ../socket_simples_bsp/\libucosii_bsp.a(alt_usleep.o)
 .debug_aranges
                0x00000ae0       0x20 ../socket_simples_bsp/\libucosii_bsp.a(alt_env_lock.o)
 .debug_aranges
                0x00000b00       0x20 ../socket_simples_bsp/\libucosii_bsp.a(alt_malloc_lock.o)
 .debug_aranges
                0x00000b20       0x20 ../socket_simples_bsp/\libucosii_bsp.a(os_core.o)
 .debug_aranges
                0x00000b40       0x20 ../socket_simples_bsp/\libucosii_bsp.a(os_dbg.o)
 .debug_aranges
                0x00000b60       0x20 ../socket_simples_bsp/\libucosii_bsp.a(os_flag.o)
 .debug_aranges
                0x00000b80       0x20 ../socket_simples_bsp/\libucosii_bsp.a(os_mem.o)
 .debug_aranges
                0x00000ba0       0x20 ../socket_simples_bsp/\libucosii_bsp.a(os_q.o)
 .debug_aranges
                0x00000bc0       0x20 ../socket_simples_bsp/\libucosii_bsp.a(os_sem.o)
 .debug_aranges
                0x00000be0       0x20 ../socket_simples_bsp/\libucosii_bsp.a(os_task.o)
 .debug_aranges
                0x00000c00       0x20 ../socket_simples_bsp/\libucosii_bsp.a(os_time.o)
 .debug_aranges
                0x00000c20       0x20 ../socket_simples_bsp/\libucosii_bsp.a(alt_sys_init.o)
 .debug_aranges
                0x00000c40       0x20 ../socket_simples_bsp/\libucosii_bsp.a(altera_avalon_cfi_flash.o)
 .debug_aranges
                0x00000c60       0x20 ../socket_simples_bsp/\libucosii_bsp.a(altera_avalon_cfi_flash_table.o)
 .debug_aranges
                0x00000c80       0x20 ../socket_simples_bsp/\libucosii_bsp.a(altera_avalon_epcs_flash_controller.o)
 .debug_aranges
                0x00000ca0       0x20 ../socket_simples_bsp/\libucosii_bsp.a(altera_avalon_jtag_uart_fd.o)
 .debug_aranges
                0x00000cc0       0x20 ../socket_simples_bsp/\libucosii_bsp.a(altera_avalon_jtag_uart_init.o)
 .debug_aranges
                0x00000ce0       0x20 ../socket_simples_bsp/\libucosii_bsp.a(altera_avalon_jtag_uart_ioctl.o)
 .debug_aranges
                0x00000d00       0x20 ../socket_simples_bsp/\libucosii_bsp.a(altera_avalon_jtag_uart_read.o)
 .debug_aranges
                0x00000d20       0x20 ../socket_simples_bsp/\libucosii_bsp.a(altera_avalon_jtag_uart_write.o)
 .debug_aranges
                0x00000d40       0x20 ../socket_simples_bsp/\libucosii_bsp.a(altera_avalon_lcd_16207.o)
 .debug_aranges
                0x00000d60       0x20 ../socket_simples_bsp/\libucosii_bsp.a(altera_avalon_lcd_16207_fd.o)
 .debug_aranges
                0x00000d80       0x20 ../socket_simples_bsp/\libucosii_bsp.a(altera_avalon_timer_sc.o)
 .debug_aranges
                0x00000da0       0x20 ../socket_simples_bsp/\libucosii_bsp.a(altera_avalon_uart_fd.o)
 .debug_aranges
                0x00000dc0       0x20 ../socket_simples_bsp/\libucosii_bsp.a(altera_avalon_uart_init.o)
 .debug_aranges
                0x00000de0       0x20 ../socket_simples_bsp/\libucosii_bsp.a(altera_avalon_uart_read.o)
 .debug_aranges
                0x00000e00       0x20 ../socket_simples_bsp/\libucosii_bsp.a(altera_avalon_uart_write.o)
 .debug_aranges
                0x00000e20       0x20 ../socket_simples_bsp/\libucosii_bsp.a(epcs_commands.o)
 .debug_aranges
                0x00000e40       0x20 ../socket_simples_bsp/\libucosii_bsp.a(alt_iniche_close.o)
 .debug_aranges
                0x00000e60       0x20 ../socket_simples_bsp/\libucosii_bsp.a(alt_iniche_dev.o)
 .debug_aranges
                0x00000e80       0x20 ../socket_simples_bsp/\libucosii_bsp.a(alt_iniche_read.o)
 .debug_aranges
                0x00000ea0       0x20 ../socket_simples_bsp/\libucosii_bsp.a(alt_iniche_write.o)
 .debug_aranges
                0x00000ec0       0x20 ../socket_simples_bsp/\libucosii_bsp.a(ipnet.o)
 .debug_aranges
                0x00000ee0       0x20 ../socket_simples_bsp/\libucosii_bsp.a(ipstart.o)
 .debug_aranges
                0x00000f00       0x20 ../socket_simples_bsp/\libucosii_bsp.a(igmp_cmn.o)
 .debug_aranges
                0x00000f20       0x20 ../socket_simples_bsp/\libucosii_bsp.a(bsdsock.o)
 .debug_aranges
                0x00000f40       0x20 ../socket_simples_bsp/\libucosii_bsp.a(cksum.o)
 .debug_aranges
                0x00000f60       0x20 ../socket_simples_bsp/\libucosii_bsp.a(in_utils.o)
 .debug_aranges
                0x00000f80       0x20 ../socket_simples_bsp/\libucosii_bsp.a(netmain.o)
 .debug_aranges
                0x00000fa0       0x20 ../socket_simples_bsp/\libucosii_bsp.a(parseip.o)
 .debug_aranges
                0x00000fc0       0x20 ../socket_simples_bsp/\libucosii_bsp.a(tk_crnos.o)
 .debug_aranges
                0x00000fe0       0x20 ../socket_simples_bsp/\libucosii_bsp.a(dhcpclnt.o)
 .debug_aranges
                0x00001000       0x20 ../socket_simples_bsp/\libucosii_bsp.a(dhcputil.o)
 .debug_aranges
                0x00001020       0x20 ../socket_simples_bsp/\libucosii_bsp.a(pktalloc.o)
 .debug_aranges
                0x00001040       0x20 ../socket_simples_bsp/\libucosii_bsp.a(q.o)
 .debug_aranges
                0x00001060       0x20 ../socket_simples_bsp/\libucosii_bsp.a(udp_open.o)
 .debug_aranges
                0x00001080       0x20 ../socket_simples_bsp/\libucosii_bsp.a(asm_cksum.o)
 .debug_aranges
                0x000010a0       0x20 ../socket_simples_bsp/\libucosii_bsp.a(brdutils.o)
 .debug_aranges
                0x000010c0       0x20 ../socket_simples_bsp/\libucosii_bsp.a(osportco.o)
 .debug_aranges
                0x000010e0       0x20 ../socket_simples_bsp/\libucosii_bsp.a(targnios.o)
 .debug_aranges
                0x00001100       0x20 ../socket_simples_bsp/\libucosii_bsp.a(nptcp.o)
 .debug_aranges
                0x00001120       0x20 ../socket_simples_bsp/\libucosii_bsp.a(rawsock.o)
 .debug_aranges
                0x00001140       0x20 ../socket_simples_bsp/\libucosii_bsp.a(sockcall.o)
 .debug_aranges
                0x00001160       0x20 ../socket_simples_bsp/\libucosii_bsp.a(socket.o)
 .debug_aranges
                0x00001180       0x20 ../socket_simples_bsp/\libucosii_bsp.a(socket2.o)
 .debug_aranges
                0x000011a0       0x20 ../socket_simples_bsp/\libucosii_bsp.a(soselect.o)
 .debug_aranges
                0x000011c0       0x20 ../socket_simples_bsp/\libucosii_bsp.a(tcp_in.o)
 .debug_aranges
                0x000011e0       0x20 ../socket_simples_bsp/\libucosii_bsp.a(tcp_out.o)
 .debug_aranges
                0x00001200       0x20 ../socket_simples_bsp/\libucosii_bsp.a(tcp_subr.o)
 .debug_aranges
                0x00001220       0x20 ../socket_simples_bsp/\libucosii_bsp.a(tcp_timr.o)
 .debug_aranges
                0x00001240       0x20 ../socket_simples_bsp/\libucosii_bsp.a(tcp_usr.o)
 .debug_aranges
                0x00001260       0x20 ../socket_simples_bsp/\libucosii_bsp.a(tcpport.o)
 .debug_aranges
                0x00001280       0x20 ../socket_simples_bsp/\libucosii_bsp.a(udpsock.o)
 .debug_aranges
                0x000012a0       0x20 ../socket_simples_bsp/\libucosii_bsp.a(alt_alarm_start.o)
 .debug_aranges
                0x000012c0       0x20 ../socket_simples_bsp/\libucosii_bsp.a(alt_busy_sleep.o)
 .debug_aranges
                0x000012e0       0x20 ../socket_simples_bsp/\libucosii_bsp.a(alt_close.o)
 .debug_aranges
                0x00001300       0x20 ../socket_simples_bsp/\libucosii_bsp.a(alt_dcache_flush.o)
 .debug_aranges
                0x00001320       0x20 ../socket_simples_bsp/\libucosii_bsp.a(alt_dev.o)
 .debug_aranges
                0x00001340       0x20 ../socket_simples_bsp/\libucosii_bsp.a(alt_dev_llist_insert.o)
 .debug_aranges
                0x00001360       0x20 ../socket_simples_bsp/\libucosii_bsp.a(alt_do_ctors.o)
 .debug_aranges
                0x00001380       0x20 ../socket_simples_bsp/\libucosii_bsp.a(alt_do_dtors.o)
 .debug_aranges
                0x000013a0       0x20 ../socket_simples_bsp/\libucosii_bsp.a(alt_find_dev.o)
 .debug_aranges
                0x000013c0       0x20 ../socket_simples_bsp/\libucosii_bsp.a(alt_iic.o)
 .debug_aranges
                0x000013e0       0x20 ../socket_simples_bsp/\libucosii_bsp.a(alt_iic_isr_register.o)
 .debug_aranges
                0x00001400       0x20 ../socket_simples_bsp/\libucosii_bsp.a(alt_io_redirect.o)
 .debug_aranges
                0x00001420       0x30 ../socket_simples_bsp/\libucosii_bsp.a(alt_irq_entry.o)
 .debug_aranges
                0x00001450       0x28 ../socket_simples_bsp/\libucosii_bsp.a(alt_irq_handler.o)
 .debug_aranges
                0x00001478       0x20 ../socket_simples_bsp/\libucosii_bsp.a(alt_open.o)
 .debug_aranges
                0x00001498       0x20 ../socket_simples_bsp/\libucosii_bsp.a(alt_read.o)
 .debug_aranges
                0x000014b8       0x20 ../socket_simples_bsp/\libucosii_bsp.a(alt_release_fd.o)
 .debug_aranges
                0x000014d8       0x20 ../socket_simples_bsp/\libucosii_bsp.a(alt_remap_cached.o)
 .debug_aranges
                0x000014f8       0x20 ../socket_simples_bsp/\libucosii_bsp.a(alt_remap_uncached.o)
 .debug_aranges
                0x00001518       0x20 ../socket_simples_bsp/\libucosii_bsp.a(alt_tick.o)
 .debug_aranges
                0x00001538       0x20 ../socket_simples_bsp/\libucosii_bsp.a(alt_write.o)
 .debug_aranges
                0x00001558       0x20 ../socket_simples_bsp/\libucosii_bsp.a(altera_nios2_qsys_irq.o)
 .debug_aranges
                0x00001578       0x20 ../socket_simples_bsp/\libucosii_bsp.a(os_cpu_a.o)
 .debug_aranges
                0x00001598       0x20 ../socket_simples_bsp/\libucosii_bsp.a(os_cpu_c.o)
 .debug_aranges
                0x000015b8       0x20 ../socket_simples_bsp/\libucosii_bsp.a(altera_avalon_cfi_flash_amd.o)
 .debug_aranges
                0x000015d8       0x20 ../socket_simples_bsp/\libucosii_bsp.a(altera_avalon_cfi_flash_intel.o)
 .debug_aranges
                0x000015f8       0x20 ../socket_simples_bsp/\libucosii_bsp.a(altera_avalon_spi.o)
 .debug_aranges
                0x00001618       0x20 ../socket_simples_bsp/\libucosii_bsp.a(allports.o)
 .debug_aranges
                0x00001638       0x20 ../socket_simples_bsp/\libucosii_bsp.a(timeouts.o)
 .debug_aranges
                0x00001658       0x20 ../socket_simples_bsp/\libucosii_bsp.a(tk_misc.o)
 .debug_aranges
                0x00001678       0x20 ../socket_simples_bsp/\libucosii_bsp.a(alt_iniche_fcntl.o)
 .debug_aranges
                0x00001698       0x20 ../socket_simples_bsp/\libucosii_bsp.a(et_arp.o)
 .debug_aranges
                0x000016b8       0x20 ../socket_simples_bsp/\libucosii_bsp.a(iface.o)
 .debug_aranges
                0x000016d8       0x20 ../socket_simples_bsp/\libucosii_bsp.a(ip.o)
 .debug_aranges
                0x000016f8       0x20 ../socket_simples_bsp/\libucosii_bsp.a(ip_reasm.o)
 .debug_aranges
                0x00001718       0x20 ../socket_simples_bsp/\libucosii_bsp.a(ipdemux.o)
 .debug_aranges
                0x00001738       0x20 ../socket_simples_bsp/\libucosii_bsp.a(ipmc.o)
 .debug_aranges
                0x00001758       0x20 ../socket_simples_bsp/\libucosii_bsp.a(ipport.o)
 .debug_aranges
                0x00001778       0x20 ../socket_simples_bsp/\libucosii_bsp.a(ipraw.o)
 .debug_aranges
                0x00001798       0x20 ../socket_simples_bsp/\libucosii_bsp.a(iproute.o)
 .debug_aranges
                0x000017b8       0x20 ../socket_simples_bsp/\libucosii_bsp.a(udp.o)
 .debug_aranges
                0x000017d8       0x20 ../socket_simples_bsp/\libucosii_bsp.a(igmp.o)
 .debug_aranges
                0x000017f8       0x20 ../socket_simples_bsp/\libucosii_bsp.a(igmp2.o)
 .debug_aranges
                0x00001818       0x20 ../socket_simples_bsp/\libucosii_bsp.a(ipopt.o)
 .debug_aranges
                0x00001838       0x20 ../socket_simples_bsp/\libucosii_bsp.a(u_mctest.o)
 .debug_aranges
                0x00001858       0x20 ../socket_simples_bsp/\libucosii_bsp.a(dhcsetup.o)
 .debug_aranges
                0x00001878       0x20 ../socket_simples_bsp/\libucosii_bsp.a(memdev.o)
 .debug_aranges
                0x00001898       0x20 ../socket_simples_bsp/\libucosii_bsp.a(tcpcksum.o)
 .debug_aranges
                0x000018b8       0x20 ../socket_simples_bsp/\libucosii_bsp.a(in_pcb.o)
 .debug_aranges
                0x000018d8       0x20 ../socket_simples_bsp/\libucosii_bsp.a(vfsfiles.o)
 .debug_aranges
                0x000018f8       0x20 ../socket_simples_bsp/\libucosii_bsp.a(vfsport.o)
 .debug_aranges
                0x00001918       0x38 ../socket_simples_bsp/\libucosii_bsp.a(alt_exception_entry.o)
 .debug_aranges
                0x00001950       0x20 ../socket_simples_bsp/\libucosii_bsp.a(alt_fcntl.o)
 .debug_aranges
                0x00001970       0x20 ../socket_simples_bsp/\libucosii_bsp.a(alt_find_file.o)
 .debug_aranges
                0x00001990       0x20 ../socket_simples_bsp/\libucosii_bsp.a(alt_get_fd.o)
 .debug_aranges
                0x000019b0       0x20 ../socket_simples_bsp/\libucosii_bsp.a(icmp.o)
 .debug_aranges
                0x000019d0       0x20 c:/altera/13.0/nios2eds/bin/gnu/h-i686-mingw32/bin/../lib/gcc/nios2-elf/4.1.2/../../../../nios2-elf/lib\libc.a(lib_a-atexit.o)
 .debug_aranges
                0x000019f0       0x20 c:/altera/13.0/nios2eds/bin/gnu/h-i686-mingw32/bin/../lib/gcc/nios2-elf/4.1.2/../../../../nios2-elf/lib\libc.a(lib_a-atoi.o)
 .debug_aranges
                0x00001a10       0x20 c:/altera/13.0/nios2eds/bin/gnu/h-i686-mingw32/bin/../lib/gcc/nios2-elf/4.1.2/../../../../nios2-elf/lib\libc.a(lib_a-calloc.o)
 .debug_aranges
                0x00001a30       0x20 c:/altera/13.0/nios2eds/bin/gnu/h-i686-mingw32/bin/../lib/gcc/nios2-elf/4.1.2/../../../../nios2-elf/lib\libc.a(lib_a-malloc.o)
 .debug_aranges
                0x00001a50       0x20 c:/altera/13.0/nios2eds/bin/gnu/h-i686-mingw32/bin/../lib/gcc/nios2-elf/4.1.2/../../../../nios2-elf/lib\libc.a(lib_a-memcmp.o)
 .debug_aranges
                0x00001a70       0x20 c:/altera/13.0/nios2eds/bin/gnu/h-i686-mingw32/bin/../lib/gcc/nios2-elf/4.1.2/../../../../nios2-elf/lib\libc.a(lib_a-sprintf.o)
 .debug_aranges
                0x00001a90       0x20 c:/altera/13.0/nios2eds/bin/gnu/h-i686-mingw32/bin/../lib/gcc/nios2-elf/4.1.2/../../../../nios2-elf/lib\libc.a(lib_a-strcpy.o)
 .debug_aranges
                0x00001ab0       0x20 c:/altera/13.0/nios2eds/bin/gnu/h-i686-mingw32/bin/../lib/gcc/nios2-elf/4.1.2/../../../../nios2-elf/lib\libc.a(lib_a-strncmp.o)
 .debug_aranges
                0x00001ad0       0x20 c:/altera/13.0/nios2eds/bin/gnu/h-i686-mingw32/bin/../lib/gcc/nios2-elf/4.1.2/../../../../nios2-elf/lib\libc.a(lib_a-strncpy.o)
 .debug_aranges
                0x00001af0       0x20 c:/altera/13.0/nios2eds/bin/gnu/h-i686-mingw32/bin/../lib/gcc/nios2-elf/4.1.2/../../../../nios2-elf/lib\libc.a(lib_a-strtol.o)
 .debug_aranges
                0x00001b10       0x20 c:/altera/13.0/nios2eds/bin/gnu/h-i686-mingw32/bin/../lib/gcc/nios2-elf/4.1.2/../../../../nios2-elf/lib\libc.a(lib_a-vprintf.o)
 .debug_aranges
                0x00001b30       0x20 c:/altera/13.0/nios2eds/bin/gnu/h-i686-mingw32/bin/../lib/gcc/nios2-elf/4.1.2/../../../../nios2-elf/lib\libc.a(lib_a-vsprintf.o)
 .debug_aranges
                0x00001b50       0x20 c:/altera/13.0/nios2eds/bin/gnu/h-i686-mingw32/bin/../lib/gcc/nios2-elf/4.1.2/../../../../nios2-elf/lib\libc.a(lib_a-__atexit.o)

.debug_pubnames
                0x00000000     0x55de
 *(.debug_pubnames)
 .debug_pubnames
                0x00000000       0x68 obj/default/LCD.o
 .debug_pubnames
                0x00000068       0x7c obj/default/SSS_DE2_115.o
 .debug_pubnames
                0x000000e4       0x61 obj/default/alt_error_handler.o
 .debug_pubnames
                0x00000145      0x102 obj/default/dm9000a.o
 .debug_pubnames
                0x00000247       0x73 obj/default/iniche_init.o
 .debug_pubnames
                0x000002ba       0x54 obj/default/led.o
 .debug_pubnames
                0x0000030e       0xc9 obj/default/network_utilities.o
 .debug_pubnames
                0x000003d7      0x154 obj/default/simple_socket_server.o
 .debug_pubnames
                0x0000052b       0x23 c:/altera/13.0/nios2eds/bin/gnu/h-i686-mingw32/bin/../lib/gcc/nios2-elf/4.1.2\libgcc.a(_fixunsdfsi.o)
 .debug_pubnames
                0x0000054e       0x2c c:/altera/13.0/nios2eds/bin/gnu/h-i686-mingw32/bin/../lib/gcc/nios2-elf/4.1.2\libgcc.a(_addsub_df.o)
 .debug_pubnames
                0x0000057a       0x1f c:/altera/13.0/nios2eds/bin/gnu/h-i686-mingw32/bin/../lib/gcc/nios2-elf/4.1.2\libgcc.a(_mul_df.o)
 .debug_pubnames
                0x00000599       0x1e c:/altera/13.0/nios2eds/bin/gnu/h-i686-mingw32/bin/../lib/gcc/nios2-elf/4.1.2\libgcc.a(_ge_df.o)
 .debug_pubnames
                0x000005b7       0x20 c:/altera/13.0/nios2eds/bin/gnu/h-i686-mingw32/bin/../lib/gcc/nios2-elf/4.1.2\libgcc.a(_df_to_si.o)
 .debug_pubnames
                0x000005d7       0x22 c:/altera/13.0/nios2eds/bin/gnu/h-i686-mingw32/bin/../lib/gcc/nios2-elf/4.1.2\libgcc.a(_thenan_df.o)
 .debug_pubnames
                0x000005f9       0x24 c:/altera/13.0/nios2eds/bin/gnu/h-i686-mingw32/bin/../lib/gcc/nios2-elf/4.1.2\libgcc.a(_usi_to_df.o)
 .debug_pubnames
                0x0000061d       0x1f c:/altera/13.0/nios2eds/bin/gnu/h-i686-mingw32/bin/../lib/gcc/nios2-elf/4.1.2\libgcc.a(_muldi3.o)
 .debug_pubnames
                0x0000063c       0x1f c:/altera/13.0/nios2eds/bin/gnu/h-i686-mingw32/bin/../lib/gcc/nios2-elf/4.1.2\libgcc.a(_clzsi2.o)
 .debug_pubnames
                0x0000065b       0x1f c:/altera/13.0/nios2eds/bin/gnu/h-i686-mingw32/bin/../lib/gcc/nios2-elf/4.1.2\libgcc.a(_pack_df.o)
 .debug_pubnames
                0x0000067a       0x21 c:/altera/13.0/nios2eds/bin/gnu/h-i686-mingw32/bin/../lib/gcc/nios2-elf/4.1.2\libgcc.a(_unpack_df.o)
 .debug_pubnames
                0x0000069b       0x26 c:/altera/13.0/nios2eds/bin/gnu/h-i686-mingw32/bin/../lib/gcc/nios2-elf/4.1.2\libgcc.a(_fpcmp_parts_df.o)
 .debug_pubnames
                0x000006c1       0x20 c:/altera/13.0/nios2eds/bin/gnu/h-i686-mingw32/bin/../lib/gcc/nios2-elf/4.1.2\libgcc.a(_clz.o)
 .debug_pubnames
                0x000006e1       0x2e c:/altera/13.0/nios2eds/bin/gnu/h-i686-mingw32/bin/../lib/gcc/nios2-elf/4.1.2/../../../../nios2-elf/lib\libc.a(lib_a-ctype_.o)
 .debug_pubnames
                0x0000070f       0x1b c:/altera/13.0/nios2eds/bin/gnu/h-i686-mingw32/bin/../lib/gcc/nios2-elf/4.1.2/../../../../nios2-elf/lib\libc.a(lib_a-exit.o)
 .debug_pubnames
                0x0000072a       0x2d c:/altera/13.0/nios2eds/bin/gnu/h-i686-mingw32/bin/../lib/gcc/nios2-elf/4.1.2/../../../../nios2-elf/lib\libc.a(lib_a-fprintf.o)
 .debug_pubnames
                0x00000757       0x2b c:/altera/13.0/nios2eds/bin/gnu/h-i686-mingw32/bin/../lib/gcc/nios2-elf/4.1.2/../../../../nios2-elf/lib\libc.a(lib_a-fwrite.o)
 .debug_pubnames
                0x00000782       0x27 c:/altera/13.0/nios2eds/bin/gnu/h-i686-mingw32/bin/../lib/gcc/nios2-elf/4.1.2/../../../../nios2-elf/lib\libc.a(lib_a-getc.o)
 .debug_pubnames
                0x000007a9       0x39 c:/altera/13.0/nios2eds/bin/gnu/h-i686-mingw32/bin/../lib/gcc/nios2-elf/4.1.2/../../../../nios2-elf/lib\libc.a(lib_a-impure.o)
 .debug_pubnames
                0x000007e2       0x1d c:/altera/13.0/nios2eds/bin/gnu/h-i686-mingw32/bin/../lib/gcc/nios2-elf/4.1.2/../../../../nios2-elf/lib\libc.a(lib_a-memcpy.o)
 .debug_pubnames
                0x000007ff       0x1e c:/altera/13.0/nios2eds/bin/gnu/h-i686-mingw32/bin/../lib/gcc/nios2-elf/4.1.2/../../../../nios2-elf/lib\libc.a(lib_a-memmove.o)
 .debug_pubnames
                0x0000081d       0x1d c:/altera/13.0/nios2eds/bin/gnu/h-i686-mingw32/bin/../lib/gcc/nios2-elf/4.1.2/../../../../nios2-elf/lib\libc.a(lib_a-memset.o)
 .debug_pubnames
                0x0000083a       0x2b c:/altera/13.0/nios2eds/bin/gnu/h-i686-mingw32/bin/../lib/gcc/nios2-elf/4.1.2/../../../../nios2-elf/lib\libc.a(lib_a-perror.o)
 .debug_pubnames
                0x00000865       0x2b c:/altera/13.0/nios2eds/bin/gnu/h-i686-mingw32/bin/../lib/gcc/nios2-elf/4.1.2/../../../../nios2-elf/lib\libc.a(lib_a-printf.o)
 .debug_pubnames
                0x00000890       0x27 c:/altera/13.0/nios2eds/bin/gnu/h-i686-mingw32/bin/../lib/gcc/nios2-elf/4.1.2/../../../../nios2-elf/lib\libc.a(lib_a-putc.o)
 .debug_pubnames
                0x000008b7       0x2d c:/altera/13.0/nios2eds/bin/gnu/h-i686-mingw32/bin/../lib/gcc/nios2-elf/4.1.2/../../../../nios2-elf/lib\libc.a(lib_a-putchar.o)
 .debug_pubnames
                0x000008e4       0x27 c:/altera/13.0/nios2eds/bin/gnu/h-i686-mingw32/bin/../lib/gcc/nios2-elf/4.1.2/../../../../nios2-elf/lib\libc.a(lib_a-puts.o)
 .debug_pubnames
                0x0000090b       0x2c c:/altera/13.0/nios2eds/bin/gnu/h-i686-mingw32/bin/../lib/gcc/nios2-elf/4.1.2/../../../../nios2-elf/lib\libc.a(lib_a-rget.o)
 .debug_pubnames
                0x00000937       0x1d c:/altera/13.0/nios2eds/bin/gnu/h-i686-mingw32/bin/../lib/gcc/nios2-elf/4.1.2/../../../../nios2-elf/lib\libc.a(lib_a-strchr.o)
 .debug_pubnames
                0x00000954       0x1f c:/altera/13.0/nios2eds/bin/gnu/h-i686-mingw32/bin/../lib/gcc/nios2-elf/4.1.2/../../../../nios2-elf/lib\libc.a(lib_a-strerror.o)
 .debug_pubnames
                0x00000973       0x1d c:/altera/13.0/nios2eds/bin/gnu/h-i686-mingw32/bin/../lib/gcc/nios2-elf/4.1.2/../../../../nios2-elf/lib\libc.a(lib_a-strlen.o)
 .debug_pubnames
                0x00000990       0x25 c:/altera/13.0/nios2eds/bin/gnu/h-i686-mingw32/bin/../lib/gcc/nios2-elf/4.1.2/../../../../nios2-elf/lib\libc.a(lib_a-u_strerr.o)
 .debug_pubnames
                0x000009b5       0x45 c:/altera/13.0/nios2eds/bin/gnu/h-i686-mingw32/bin/../lib/gcc/nios2-elf/4.1.2/../../../../nios2-elf/lib\libc.a(lib_a-vfprintf.o)
 .debug_pubnames
                0x000009fa       0x2c c:/altera/13.0/nios2eds/bin/gnu/h-i686-mingw32/bin/../lib/gcc/nios2-elf/4.1.2/../../../../nios2-elf/lib\libc.a(lib_a-wbuf.o)
 .debug_pubnames
                0x00000a26       0x22 c:/altera/13.0/nios2eds/bin/gnu/h-i686-mingw32/bin/../lib/gcc/nios2-elf/4.1.2/../../../../nios2-elf/lib\libc.a(lib_a-wsetup.o)
 .debug_pubnames
                0x00000a48       0x27 c:/altera/13.0/nios2eds/bin/gnu/h-i686-mingw32/bin/../lib/gcc/nios2-elf/4.1.2/../../../../nios2-elf/lib\libc.a(lib_a-__call_atexit.o)
 .debug_pubnames
                0x00000a6f       0x1e c:/altera/13.0/nios2eds/bin/gnu/h-i686-mingw32/bin/../lib/gcc/nios2-elf/4.1.2/../../../../nios2-elf/lib\libc.a(lib_a-dtoa.o)
 .debug_pubnames
                0x00000a8d       0x2b c:/altera/13.0/nios2eds/bin/gnu/h-i686-mingw32/bin/../lib/gcc/nios2-elf/4.1.2/../../../../nios2-elf/lib\libc.a(lib_a-fflush.o)
 .debug_pubnames
                0x00000ab8       0xdb c:/altera/13.0/nios2eds/bin/gnu/h-i686-mingw32/bin/../lib/gcc/nios2-elf/4.1.2/../../../../nios2-elf/lib\libc.a(lib_a-findfp.o)
 .debug_pubnames
                0x00000b93       0x29 c:/altera/13.0/nios2eds/bin/gnu/h-i686-mingw32/bin/../lib/gcc/nios2-elf/4.1.2/../../../../nios2-elf/lib\libc.a(lib_a-fputc.o)
 .debug_pubnames
                0x00000bbc       0x29 c:/altera/13.0/nios2eds/bin/gnu/h-i686-mingw32/bin/../lib/gcc/nios2-elf/4.1.2/../../../../nios2-elf/lib\libc.a(lib_a-fputs.o)
 .debug_pubnames
                0x00000be5       0x31 c:/altera/13.0/nios2eds/bin/gnu/h-i686-mingw32/bin/../lib/gcc/nios2-elf/4.1.2/../../../../nios2-elf/lib\libc.a(lib_a-freer.o)
 .debug_pubnames
                0x00000c16       0x23 c:/altera/13.0/nios2eds/bin/gnu/h-i686-mingw32/bin/../lib/gcc/nios2-elf/4.1.2/../../../../nios2-elf/lib\libc.a(lib_a-fvwrite.o)
 .debug_pubnames
                0x00000c39       0x2e c:/altera/13.0/nios2eds/bin/gnu/h-i686-mingw32/bin/../lib/gcc/nios2-elf/4.1.2/../../../../nios2-elf/lib\libc.a(lib_a-fwalk.o)
 .debug_pubnames
                0x00000c67       0xc3 c:/altera/13.0/nios2eds/bin/gnu/h-i686-mingw32/bin/../lib/gcc/nios2-elf/4.1.2/../../../../nios2-elf/lib\libc.a(lib_a-locale.o)
 .debug_pubnames
                0x00000d2a       0x23 c:/altera/13.0/nios2eds/bin/gnu/h-i686-mingw32/bin/../lib/gcc/nios2-elf/4.1.2/../../../../nios2-elf/lib\libc.a(lib_a-makebuf.o)
 .debug_pubnames
                0x00000d4d       0xce c:/altera/13.0/nios2eds/bin/gnu/h-i686-mingw32/bin/../lib/gcc/nios2-elf/4.1.2/../../../../nios2-elf/lib\libc.a(lib_a-mallocr.o)
 .debug_pubnames
                0x00000e1b       0x1d c:/altera/13.0/nios2eds/bin/gnu/h-i686-mingw32/bin/../lib/gcc/nios2-elf/4.1.2/../../../../nios2-elf/lib\libc.a(lib_a-memchr.o)
 .debug_pubnames
                0x00000e38      0x13a c:/altera/13.0/nios2eds/bin/gnu/h-i686-mingw32/bin/../lib/gcc/nios2-elf/4.1.2/../../../../nios2-elf/lib\libc.a(lib_a-mprec.o)
 .debug_pubnames
                0x00000f72       0x21 c:/altera/13.0/nios2eds/bin/gnu/h-i686-mingw32/bin/../lib/gcc/nios2-elf/4.1.2/../../../../nios2-elf/lib\libc.a(lib_a-reallocr.o)
 .debug_pubnames
                0x00000f93       0x22 c:/altera/13.0/nios2eds/bin/gnu/h-i686-mingw32/bin/../lib/gcc/nios2-elf/4.1.2/../../../../nios2-elf/lib\libc.a(lib_a-refill.o)
 .debug_pubnames
                0x00000fb5       0x1f c:/altera/13.0/nios2eds/bin/gnu/h-i686-mingw32/bin/../lib/gcc/nios2-elf/4.1.2/../../../../nios2-elf/lib\libc.a(lib_a-s_isinfd.o)
 .debug_pubnames
                0x00000fd4       0x1f c:/altera/13.0/nios2eds/bin/gnu/h-i686-mingw32/bin/../lib/gcc/nios2-elf/4.1.2/../../../../nios2-elf/lib\libc.a(lib_a-s_isnand.o)
 .debug_pubnames
                0x00000ff3       0x1e c:/altera/13.0/nios2eds/bin/gnu/h-i686-mingw32/bin/../lib/gcc/nios2-elf/4.1.2/../../../../nios2-elf/lib\libc.a(lib_a-sbrkr.o)
 .debug_pubnames
                0x00001011       0x44 c:/altera/13.0/nios2eds/bin/gnu/h-i686-mingw32/bin/../lib/gcc/nios2-elf/4.1.2/../../../../nios2-elf/lib\libc.a(lib_a-stdio.o)
 .debug_pubnames
                0x00001055       0x1d c:/altera/13.0/nios2eds/bin/gnu/h-i686-mingw32/bin/../lib/gcc/nios2-elf/4.1.2/../../../../nios2-elf/lib\libc.a(lib_a-strcmp.o)
 .debug_pubnames
                0x00001072       0x1f c:/altera/13.0/nios2eds/bin/gnu/h-i686-mingw32/bin/../lib/gcc/nios2-elf/4.1.2/../../../../nios2-elf/lib\libc.a(lib_a-writer.o)
 .debug_pubnames
                0x00001091       0x20 c:/altera/13.0/nios2eds/bin/gnu/h-i686-mingw32/bin/../lib/gcc/nios2-elf/4.1.2/../../../../nios2-elf/lib\libc.a(lib_a-callocr.o)
 .debug_pubnames
                0x000010b1       0x1f c:/altera/13.0/nios2eds/bin/gnu/h-i686-mingw32/bin/../lib/gcc/nios2-elf/4.1.2/../../../../nios2-elf/lib\libc.a(lib_a-closer.o)
 .debug_pubnames
                0x000010d0       0x2b c:/altera/13.0/nios2eds/bin/gnu/h-i686-mingw32/bin/../lib/gcc/nios2-elf/4.1.2/../../../../nios2-elf/lib\libc.a(lib_a-fclose.o)
 .debug_pubnames
                0x000010fb       0x1f c:/altera/13.0/nios2eds/bin/gnu/h-i686-mingw32/bin/../lib/gcc/nios2-elf/4.1.2/../../../../nios2-elf/lib\libc.a(lib_a-fstatr.o)
 .debug_pubnames
                0x0000111a       0x1c c:/altera/13.0/nios2eds/bin/gnu/h-i686-mingw32/bin/../lib/gcc/nios2-elf/4.1.2/../../../../nios2-elf/lib\libc.a(lib_a-int_errno.o)
 .debug_pubnames
                0x00001136       0x20 c:/altera/13.0/nios2eds/bin/gnu/h-i686-mingw32/bin/../lib/gcc/nios2-elf/4.1.2/../../../../nios2-elf/lib\libc.a(lib_a-isattyr.o)
 .debug_pubnames
                0x00001156       0x1f c:/altera/13.0/nios2eds/bin/gnu/h-i686-mingw32/bin/../lib/gcc/nios2-elf/4.1.2/../../../../nios2-elf/lib\libc.a(lib_a-lseekr.o)
 .debug_pubnames
                0x00001175       0x1e c:/altera/13.0/nios2eds/bin/gnu/h-i686-mingw32/bin/../lib/gcc/nios2-elf/4.1.2/../../../../nios2-elf/lib\libc.a(lib_a-readr.o)
 .debug_pubnames
                0x00001193       0x20 c:/altera/13.0/nios2eds/bin/gnu/h-i686-mingw32/bin/../lib/gcc/nios2-elf/4.1.2\libgcc.a(_udivdi3.o)
 .debug_pubnames
                0x000011b3       0x20 c:/altera/13.0/nios2eds/bin/gnu/h-i686-mingw32/bin/../lib/gcc/nios2-elf/4.1.2\libgcc.a(_umoddi3.o)
 .debug_pubnames
                0x000011d3       0x1f c:/altera/13.0/nios2eds/bin/gnu/h-i686-mingw32/bin/../lib/gcc/nios2-elf/4.1.2\libgcc.a(_div_df.o)
 .debug_pubnames
                0x000011f2       0x1e c:/altera/13.0/nios2eds/bin/gnu/h-i686-mingw32/bin/../lib/gcc/nios2-elf/4.1.2\libgcc.a(_eq_df.o)
 .debug_pubnames
                0x00001210       0x1e c:/altera/13.0/nios2eds/bin/gnu/h-i686-mingw32/bin/../lib/gcc/nios2-elf/4.1.2\libgcc.a(_ne_df.o)
 .debug_pubnames
                0x0000122e       0x1e c:/altera/13.0/nios2eds/bin/gnu/h-i686-mingw32/bin/../lib/gcc/nios2-elf/4.1.2\libgcc.a(_gt_df.o)
 .debug_pubnames
                0x0000124c       0x1e c:/altera/13.0/nios2eds/bin/gnu/h-i686-mingw32/bin/../lib/gcc/nios2-elf/4.1.2\libgcc.a(_lt_df.o)
 .debug_pubnames
                0x0000126a       0x22 c:/altera/13.0/nios2eds/bin/gnu/h-i686-mingw32/bin/../lib/gcc/nios2-elf/4.1.2\libgcc.a(_si_to_df.o)
 .debug_pubnames
                0x0000128c       0x48 c:/altera/13.0/nios2eds/bin/gnu/h-i686-mingw32/bin/../lib/gcc/nios2-elf/4.1.2\libgcc.a(lib2-divmod.o)
 .debug_pubnames
                0x000012d4       0x1c ../socket_simples_bsp/\libucosii_bsp.a(alt_exit.o)
 .debug_pubnames
                0x000012f0       0x58 ../socket_simples_bsp/\libucosii_bsp.a(alt_flash_dev.o)
 .debug_pubnames
                0x00001348       0x1c ../socket_simples_bsp/\libucosii_bsp.a(alt_fstat.o)
 .debug_pubnames
                0x00001364       0x27 ../socket_simples_bsp/\libucosii_bsp.a(alt_irq_register.o)
 .debug_pubnames
                0x0000138b       0x3b ../socket_simples_bsp/\libucosii_bsp.a(alt_irq_vars.o)
 .debug_pubnames
                0x000013c6       0x1d ../socket_simples_bsp/\libucosii_bsp.a(alt_isatty.o)
 .debug_pubnames
                0x000013e3       0x1c ../socket_simples_bsp/\libucosii_bsp.a(alt_lseek.o)
 .debug_pubnames
                0x000013ff       0x46 ../socket_simples_bsp/\libucosii_bsp.a(alt_main.o)
 .debug_pubnames
                0x00001445       0x1b ../socket_simples_bsp/\libucosii_bsp.a(alt_sbrk.o)
 .debug_pubnames
                0x00001460       0x1d ../socket_simples_bsp/\libucosii_bsp.a(alt_usleep.o)
 .debug_pubnames
                0x0000147d       0x41 ../socket_simples_bsp/\libucosii_bsp.a(alt_env_lock.o)
 .debug_pubnames
                0x000014be       0x48 ../socket_simples_bsp/\libucosii_bsp.a(alt_malloc_lock.o)
 .debug_pubnames
                0x00001506      0x3f8 ../socket_simples_bsp/\libucosii_bsp.a(os_core.o)
 .debug_pubnames
                0x000018fe      0x3c5 ../socket_simples_bsp/\libucosii_bsp.a(os_dbg.o)
 .debug_pubnames
                0x00001cc3       0xd0 ../socket_simples_bsp/\libucosii_bsp.a(os_flag.o)
 .debug_pubnames
                0x00001d93       0x7c ../socket_simples_bsp/\libucosii_bsp.a(os_mem.o)
 .debug_pubnames
                0x00001e0f       0xa9 ../socket_simples_bsp/\libucosii_bsp.a(os_q.o)
 .debug_pubnames
                0x00001eb8       0x8a ../socket_simples_bsp/\libucosii_bsp.a(os_sem.o)
 .debug_pubnames
                0x00001f42       0xe5 ../socket_simples_bsp/\libucosii_bsp.a(os_task.o)
 .debug_pubnames
                0x00002027       0x62 ../socket_simples_bsp/\libucosii_bsp.a(os_time.o)
 .debug_pubnames
                0x00002089       0x34 ../socket_simples_bsp/\libucosii_bsp.a(alt_sys_init.o)
 .debug_pubnames
                0x000020bd       0xac ../socket_simples_bsp/\libucosii_bsp.a(altera_avalon_cfi_flash.o)
 .debug_pubnames
                0x00002169      0x27a ../socket_simples_bsp/\libucosii_bsp.a(altera_avalon_cfi_flash_table.o)
 .debug_pubnames
                0x000023e3       0xb5 ../socket_simples_bsp/\libucosii_bsp.a(altera_avalon_epcs_flash_controller.o)
 .debug_pubnames
                0x00002498       0xa5 ../socket_simples_bsp/\libucosii_bsp.a(altera_avalon_jtag_uart_fd.o)
 .debug_pubnames
                0x0000253d       0x55 ../socket_simples_bsp/\libucosii_bsp.a(altera_avalon_jtag_uart_init.o)
 .debug_pubnames
                0x00002592       0x34 ../socket_simples_bsp/\libucosii_bsp.a(altera_avalon_jtag_uart_ioctl.o)
 .debug_pubnames
                0x000025c6       0x33 ../socket_simples_bsp/\libucosii_bsp.a(altera_avalon_jtag_uart_read.o)
 .debug_pubnames
                0x000025f9       0x34 ../socket_simples_bsp/\libucosii_bsp.a(altera_avalon_jtag_uart_write.o)
 .debug_pubnames
                0x0000262d       0x55 ../socket_simples_bsp/\libucosii_bsp.a(altera_avalon_lcd_16207.o)
 .debug_pubnames
                0x00002682       0x37 ../socket_simples_bsp/\libucosii_bsp.a(altera_avalon_lcd_16207_fd.o)
 .debug_pubnames
                0x000026b9       0x2f ../socket_simples_bsp/\libucosii_bsp.a(altera_avalon_timer_sc.o)
 .debug_pubnames
                0x000026e8       0x71 ../socket_simples_bsp/\libucosii_bsp.a(altera_avalon_uart_fd.o)
 .debug_pubnames
                0x00002759       0x4b ../socket_simples_bsp/\libucosii_bsp.a(altera_avalon_uart_init.o)
 .debug_pubnames
                0x000027a4       0x2e ../socket_simples_bsp/\libucosii_bsp.a(altera_avalon_uart_read.o)
 .debug_pubnames
                0x000027d2       0x2f ../socket_simples_bsp/\libucosii_bsp.a(altera_avalon_uart_write.o)
 .debug_pubnames
                0x00002801      0x118 ../socket_simples_bsp/\libucosii_bsp.a(epcs_commands.o)
 .debug_pubnames
                0x00002919       0x1c ../socket_simples_bsp/\libucosii_bsp.a(alt_iniche_close.o)
 .debug_pubnames
                0x00002935       0x42 ../socket_simples_bsp/\libucosii_bsp.a(alt_iniche_dev.o)
 .debug_pubnames
                0x00002977       0x1b ../socket_simples_bsp/\libucosii_bsp.a(alt_iniche_read.o)
 .debug_pubnames
                0x00002992       0x1c ../socket_simples_bsp/\libucosii_bsp.a(alt_iniche_write.o)
 .debug_pubnames
                0x000029ae       0x90 ../socket_simples_bsp/\libucosii_bsp.a(ipnet.o)
 .debug_pubnames
                0x00002a3e       0x81 ../socket_simples_bsp/\libucosii_bsp.a(ipstart.o)
 .debug_pubnames
                0x00002abf      0x108 ../socket_simples_bsp/\libucosii_bsp.a(igmp_cmn.o)
 .debug_pubnames
                0x00002bc7       0xc4 ../socket_simples_bsp/\libucosii_bsp.a(bsdsock.o)
 .debug_pubnames
                0x00002c8b       0x27 ../socket_simples_bsp/\libucosii_bsp.a(cksum.o)
 .debug_pubnames
                0x00002cb2       0xcc ../socket_simples_bsp/\libucosii_bsp.a(in_utils.o)
 .debug_pubnames
                0x00002d7e       0xb2 ../socket_simples_bsp/\libucosii_bsp.a(netmain.o)
 .debug_pubnames
                0x00002e30       0xa6 ../socket_simples_bsp/\libucosii_bsp.a(parseip.o)
 .debug_pubnames
                0x00002ed6       0x97 ../socket_simples_bsp/\libucosii_bsp.a(tk_crnos.o)
 .debug_pubnames
                0x00002f6d      0x252 ../socket_simples_bsp/\libucosii_bsp.a(dhcpclnt.o)
 .debug_pubnames
                0x000031bf       0x1f ../socket_simples_bsp/\libucosii_bsp.a(dhcputil.o)
 .debug_pubnames
                0x000031de       0xe2 ../socket_simples_bsp/\libucosii_bsp.a(pktalloc.o)
 .debug_pubnames
                0x000032c0       0x2d ../socket_simples_bsp/\libucosii_bsp.a(q.o)
 .debug_pubnames
                0x000032ed       0x3a ../socket_simples_bsp/\libucosii_bsp.a(udp_open.o)
 .debug_pubnames
                0x00003327       0xc5 ../socket_simples_bsp/\libucosii_bsp.a(brdutils.o)
 .debug_pubnames
                0x000033ec      0x10c ../socket_simples_bsp/\libucosii_bsp.a(osportco.o)
 .debug_pubnames
                0x000034f8       0xf5 ../socket_simples_bsp/\libucosii_bsp.a(targnios.o)
 .debug_pubnames
                0x000035ed      0x190 ../socket_simples_bsp/\libucosii_bsp.a(nptcp.o)
 .debug_pubnames
                0x0000377d       0x46 ../socket_simples_bsp/\libucosii_bsp.a(rawsock.o)
 .debug_pubnames
                0x000037c3      0x108 ../socket_simples_bsp/\libucosii_bsp.a(sockcall.o)
 .debug_pubnames
                0x000038cb       0xfc ../socket_simples_bsp/\libucosii_bsp.a(socket.o)
 .debug_pubnames
                0x000039c7      0x178 ../socket_simples_bsp/\libucosii_bsp.a(socket2.o)
 .debug_pubnames
                0x00003b3f       0x92 ../socket_simples_bsp/\libucosii_bsp.a(soselect.o)
 .debug_pubnames
                0x00003bd1       0xc2 ../socket_simples_bsp/\libucosii_bsp.a(tcp_in.o)
 .debug_pubnames
                0x00003c93       0x57 ../socket_simples_bsp/\libucosii_bsp.a(tcp_out.o)
 .debug_pubnames
                0x00003cea       0xb9 ../socket_simples_bsp/\libucosii_bsp.a(tcp_subr.o)
 .debug_pubnames
                0x00003da3       0x96 ../socket_simples_bsp/\libucosii_bsp.a(tcp_timr.o)
 .debug_pubnames
                0x00003e39       0x79 ../socket_simples_bsp/\libucosii_bsp.a(tcp_usr.o)
 .debug_pubnames
                0x00003eb2       0x1e ../socket_simples_bsp/\libucosii_bsp.a(tcpport.o)
 .debug_pubnames
                0x00003ed0       0x76 ../socket_simples_bsp/\libucosii_bsp.a(udpsock.o)
 .debug_pubnames
                0x00003f46       0x26 ../socket_simples_bsp/\libucosii_bsp.a(alt_alarm_start.o)
 .debug_pubnames
                0x00003f6c       0x25 ../socket_simples_bsp/\libucosii_bsp.a(alt_busy_sleep.o)
 .debug_pubnames
                0x00003f91       0x20 ../socket_simples_bsp/\libucosii_bsp.a(alt_close.o)
 .debug_pubnames
                0x00003fb1       0x27 ../socket_simples_bsp/\libucosii_bsp.a(alt_dcache_flush.o)
 .debug_pubnames
                0x00003fd8       0x78 ../socket_simples_bsp/\libucosii_bsp.a(alt_dev.o)
 .debug_pubnames
                0x00004050       0x2b ../socket_simples_bsp/\libucosii_bsp.a(alt_dev_llist_insert.o)
 .debug_pubnames
                0x0000407b       0x20 ../socket_simples_bsp/\libucosii_bsp.a(alt_do_ctors.o)
 .debug_pubnames
                0x0000409b       0x20 ../socket_simples_bsp/\libucosii_bsp.a(alt_do_dtors.o)
 .debug_pubnames
                0x000040bb       0x20 ../socket_simples_bsp/\libucosii_bsp.a(alt_errno.o)
 .debug_pubnames
                0x000040db       0x23 ../socket_simples_bsp/\libucosii_bsp.a(alt_find_dev.o)
 .debug_pubnames
                0x000040fe       0x6e ../socket_simples_bsp/\libucosii_bsp.a(alt_iic.o)
 .debug_pubnames
                0x0000416c       0x2b ../socket_simples_bsp/\libucosii_bsp.a(alt_iic_isr_register.o)
 .debug_pubnames
                0x00004197       0x26 ../socket_simples_bsp/\libucosii_bsp.a(alt_io_redirect.o)
 .debug_pubnames
                0x000041bd       0x32 ../socket_simples_bsp/\libucosii_bsp.a(alt_irq_handler.o)
 .debug_pubnames
                0x000041ef       0x1b ../socket_simples_bsp/\libucosii_bsp.a(alt_open.o)
 .debug_pubnames
                0x0000420a       0x1f ../socket_simples_bsp/\libucosii_bsp.a(alt_read.o)
 .debug_pubnames
                0x00004229       0x25 ../socket_simples_bsp/\libucosii_bsp.a(alt_release_fd.o)
 .debug_pubnames
                0x0000424e       0x27 ../socket_simples_bsp/\libucosii_bsp.a(alt_remap_cached.o)
 .debug_pubnames
                0x00004275       0x29 ../socket_simples_bsp/\libucosii_bsp.a(alt_remap_uncached.o)
 .debug_pubnames
                0x0000429e       0x68 ../socket_simples_bsp/\libucosii_bsp.a(alt_tick.o)
 .debug_pubnames
                0x00004306       0x20 ../socket_simples_bsp/\libucosii_bsp.a(alt_write.o)
 .debug_pubnames
                0x00004326       0x31 ../socket_simples_bsp/\libucosii_bsp.a(altera_nios2_qsys_irq.o)
 .debug_pubnames
                0x00004357       0xcd ../socket_simples_bsp/\libucosii_bsp.a(os_cpu_c.o)
 .debug_pubnames
                0x00004424       0x3e ../socket_simples_bsp/\libucosii_bsp.a(altera_avalon_cfi_flash_amd.o)
 .debug_pubnames
                0x00004462       0x42 ../socket_simples_bsp/\libucosii_bsp.a(altera_avalon_cfi_flash_intel.o)
 .debug_pubnames
                0x000044a4       0x2d ../socket_simples_bsp/\libucosii_bsp.a(altera_avalon_spi.o)
 .debug_pubnames
                0x000044d1       0xd4 ../socket_simples_bsp/\libucosii_bsp.a(allports.o)
 .debug_pubnames
                0x000045a5       0x6f ../socket_simples_bsp/\libucosii_bsp.a(timeouts.o)
 .debug_pubnames
                0x00004614       0x35 ../socket_simples_bsp/\libucosii_bsp.a(tk_misc.o)
 .debug_pubnames
                0x00004649       0x1c ../socket_simples_bsp/\libucosii_bsp.a(alt_iniche_fcntl.o)
 .debug_pubnames
                0x00004665      0x134 ../socket_simples_bsp/\libucosii_bsp.a(et_arp.o)
 .debug_pubnames
                0x00004799       0x58 ../socket_simples_bsp/\libucosii_bsp.a(iface.o)
 .debug_pubnames
                0x000047f1       0xea ../socket_simples_bsp/\libucosii_bsp.a(ip.o)
 .debug_pubnames
                0x000048db      0x22e ../socket_simples_bsp/\libucosii_bsp.a(ip_reasm.o)
 .debug_pubnames
                0x00004b09       0x3c ../socket_simples_bsp/\libucosii_bsp.a(ipdemux.o)
 .debug_pubnames
                0x00004b45       0x43 ../socket_simples_bsp/\libucosii_bsp.a(ipmc.o)
 .debug_pubnames
                0x00004b88       0x99 ../socket_simples_bsp/\libucosii_bsp.a(ipport.o)
 .debug_pubnames
                0x00004c21       0x87 ../socket_simples_bsp/\libucosii_bsp.a(ipraw.o)
 .debug_pubnames
                0x00004ca8       0x5d ../socket_simples_bsp/\libucosii_bsp.a(iproute.o)
 .debug_pubnames
                0x00004d05       0x7f ../socket_simples_bsp/\libucosii_bsp.a(udp.o)
 .debug_pubnames
                0x00004d84       0x23 ../socket_simples_bsp/\libucosii_bsp.a(igmp.o)
 .debug_pubnames
                0x00004da7       0x8d ../socket_simples_bsp/\libucosii_bsp.a(igmp2.o)
 .debug_pubnames
                0x00004e34       0x5f ../socket_simples_bsp/\libucosii_bsp.a(ipopt.o)
 .debug_pubnames
                0x00004e93       0x35 ../socket_simples_bsp/\libucosii_bsp.a(u_mctest.o)
 .debug_pubnames
                0x00004ec8       0x33 ../socket_simples_bsp/\libucosii_bsp.a(dhcsetup.o)
 .debug_pubnames
                0x00004efb       0xb1 ../socket_simples_bsp/\libucosii_bsp.a(memdev.o)
 .debug_pubnames
                0x00004fac       0x20 ../socket_simples_bsp/\libucosii_bsp.a(tcpcksum.o)
 .debug_pubnames
                0x00004fcc       0xc8 ../socket_simples_bsp/\libucosii_bsp.a(in_pcb.o)
 .debug_pubnames
                0x00005094      0x278 ../socket_simples_bsp/\libucosii_bsp.a(vfsfiles.o)
 .debug_pubnames
                0x0000530c       0x1f ../socket_simples_bsp/\libucosii_bsp.a(vfsport.o)
 .debug_pubnames
                0x0000532b       0x20 ../socket_simples_bsp/\libucosii_bsp.a(alt_fcntl.o)
 .debug_pubnames
                0x0000534b       0x24 ../socket_simples_bsp/\libucosii_bsp.a(alt_find_file.o)
 .debug_pubnames
                0x0000536f       0x21 ../socket_simples_bsp/\libucosii_bsp.a(alt_get_fd.o)
 .debug_pubnames
                0x00005390       0x66 ../socket_simples_bsp/\libucosii_bsp.a(icmp.o)
 .debug_pubnames
                0x000053f6       0x2a c:/altera/13.0/nios2eds/bin/gnu/h-i686-mingw32/bin/../lib/gcc/nios2-elf/4.1.2/../../../../nios2-elf/lib\libc.a(lib_a-atexit.o)
 .debug_pubnames
                0x00005420       0x27 c:/altera/13.0/nios2eds/bin/gnu/h-i686-mingw32/bin/../lib/gcc/nios2-elf/4.1.2/../../../../nios2-elf/lib\libc.a(lib_a-atoi.o)
 .debug_pubnames
                0x00005447       0x1d c:/altera/13.0/nios2eds/bin/gnu/h-i686-mingw32/bin/../lib/gcc/nios2-elf/4.1.2/../../../../nios2-elf/lib\libc.a(lib_a-calloc.o)
 .debug_pubnames
                0x00005464       0x26 c:/altera/13.0/nios2eds/bin/gnu/h-i686-mingw32/bin/../lib/gcc/nios2-elf/4.1.2/../../../../nios2-elf/lib\libc.a(lib_a-malloc.o)
 .debug_pubnames
                0x0000548a       0x1d c:/altera/13.0/nios2eds/bin/gnu/h-i686-mingw32/bin/../lib/gcc/nios2-elf/4.1.2/../../../../nios2-elf/lib\libc.a(lib_a-memcmp.o)
 .debug_pubnames
                0x000054a7       0x2d c:/altera/13.0/nios2eds/bin/gnu/h-i686-mingw32/bin/../lib/gcc/nios2-elf/4.1.2/../../../../nios2-elf/lib\libc.a(lib_a-sprintf.o)
 .debug_pubnames
                0x000054d4       0x1d c:/altera/13.0/nios2eds/bin/gnu/h-i686-mingw32/bin/../lib/gcc/nios2-elf/4.1.2/../../../../nios2-elf/lib\libc.a(lib_a-strcpy.o)
 .debug_pubnames
                0x000054f1       0x1e c:/altera/13.0/nios2eds/bin/gnu/h-i686-mingw32/bin/../lib/gcc/nios2-elf/4.1.2/../../../../nios2-elf/lib\libc.a(lib_a-strncmp.o)
 .debug_pubnames
                0x0000550f       0x1e c:/altera/13.0/nios2eds/bin/gnu/h-i686-mingw32/bin/../lib/gcc/nios2-elf/4.1.2/../../../../nios2-elf/lib\libc.a(lib_a-strncpy.o)
 .debug_pubnames
                0x0000552d       0x2b c:/altera/13.0/nios2eds/bin/gnu/h-i686-mingw32/bin/../lib/gcc/nios2-elf/4.1.2/../../../../nios2-elf/lib\libc.a(lib_a-strtol.o)
 .debug_pubnames
                0x00005558       0x2d c:/altera/13.0/nios2eds/bin/gnu/h-i686-mingw32/bin/../lib/gcc/nios2-elf/4.1.2/../../../../nios2-elf/lib\libc.a(lib_a-vprintf.o)
 .debug_pubnames
                0x00005585       0x2f c:/altera/13.0/nios2eds/bin/gnu/h-i686-mingw32/bin/../lib/gcc/nios2-elf/4.1.2/../../../../nios2-elf/lib\libc.a(lib_a-vsprintf.o)
 .debug_pubnames
                0x000055b4       0x2a c:/altera/13.0/nios2eds/bin/gnu/h-i686-mingw32/bin/../lib/gcc/nios2-elf/4.1.2/../../../../nios2-elf/lib\libc.a(lib_a-__atexit.o)

.debug_info     0x00000000    0x7dc37
 *(.debug_info .gnu.linkonce.wi.*)
 .debug_info    0x00000000       0x81 ../socket_simples_bsp//obj/HAL/src/crt0.o
 .debug_info    0x00000081      0x232 obj/default/LCD.o
 .debug_info    0x000002b3      0x72b obj/default/SSS_DE2_115.o
 .debug_info    0x000009de      0xd72 obj/default/alt_error_handler.o
 .debug_info    0x00001750     0x125f obj/default/dm9000a.o
 .debug_info    0x000029af      0xfee obj/default/iniche_init.o
 .debug_info    0x0000399d      0x478 obj/default/led.o
 .debug_info    0x00003e15     0x1b9f obj/default/network_utilities.o
 .debug_info    0x000059b4      0x9d6 obj/default/simple_socket_server.o
 .debug_info    0x0000638a        0x0 obj/default/tse_my_system.o
 .debug_info    0x0000638a       0xce c:/altera/13.0/nios2eds/bin/gnu/h-i686-mingw32/bin/../lib/gcc/nios2-elf/4.1.2\libgcc.a(_fixunsdfsi.o)
 .debug_info    0x00006458      0x493 c:/altera/13.0/nios2eds/bin/gnu/h-i686-mingw32/bin/../lib/gcc/nios2-elf/4.1.2\libgcc.a(_addsub_df.o)
 .debug_info    0x000068eb      0x488 c:/altera/13.0/nios2eds/bin/gnu/h-i686-mingw32/bin/../lib/gcc/nios2-elf/4.1.2\libgcc.a(_mul_df.o)
 .debug_info    0x00006d73      0x29d c:/altera/13.0/nios2eds/bin/gnu/h-i686-mingw32/bin/../lib/gcc/nios2-elf/4.1.2\libgcc.a(_ge_df.o)
 .debug_info    0x00007010      0x2cd c:/altera/13.0/nios2eds/bin/gnu/h-i686-mingw32/bin/../lib/gcc/nios2-elf/4.1.2\libgcc.a(_df_to_si.o)
 .debug_info    0x000072dd      0x164 c:/altera/13.0/nios2eds/bin/gnu/h-i686-mingw32/bin/../lib/gcc/nios2-elf/4.1.2\libgcc.a(_thenan_df.o)
 .debug_info    0x00007441      0x213 c:/altera/13.0/nios2eds/bin/gnu/h-i686-mingw32/bin/../lib/gcc/nios2-elf/4.1.2\libgcc.a(_usi_to_df.o)
 .debug_info    0x00007654      0x215 c:/altera/13.0/nios2eds/bin/gnu/h-i686-mingw32/bin/../lib/gcc/nios2-elf/4.1.2\libgcc.a(_muldi3.o)
 .debug_info    0x00007869      0x130 c:/altera/13.0/nios2eds/bin/gnu/h-i686-mingw32/bin/../lib/gcc/nios2-elf/4.1.2\libgcc.a(_clzsi2.o)
 .debug_info    0x00007999      0x2fc c:/altera/13.0/nios2eds/bin/gnu/h-i686-mingw32/bin/../lib/gcc/nios2-elf/4.1.2\libgcc.a(_pack_df.o)
 .debug_info    0x00007c95      0x268 c:/altera/13.0/nios2eds/bin/gnu/h-i686-mingw32/bin/../lib/gcc/nios2-elf/4.1.2\libgcc.a(_unpack_df.o)
 .debug_info    0x00007efd      0x21b c:/altera/13.0/nios2eds/bin/gnu/h-i686-mingw32/bin/../lib/gcc/nios2-elf/4.1.2\libgcc.a(_fpcmp_parts_df.o)
 .debug_info    0x00008118       0xc9 c:/altera/13.0/nios2eds/bin/gnu/h-i686-mingw32/bin/../lib/gcc/nios2-elf/4.1.2\libgcc.a(_clz.o)
 .debug_info    0x000081e1       0xa0 c:/altera/13.0/nios2eds/bin/gnu/h-i686-mingw32/bin/../lib/gcc/nios2-elf/4.1.2/../../../../nios2-elf/lib\libc.a(lib_a-ctype_.o)
 .debug_info    0x00008281      0x93f c:/altera/13.0/nios2eds/bin/gnu/h-i686-mingw32/bin/../lib/gcc/nios2-elf/4.1.2/../../../../nios2-elf/lib\libc.a(lib_a-exit.o)
 .debug_info    0x00008bc0      0x9e1 c:/altera/13.0/nios2eds/bin/gnu/h-i686-mingw32/bin/../lib/gcc/nios2-elf/4.1.2/../../../../nios2-elf/lib\libc.a(lib_a-fprintf.o)
 .debug_info    0x000095a1      0xa83 c:/altera/13.0/nios2eds/bin/gnu/h-i686-mingw32/bin/../lib/gcc/nios2-elf/4.1.2/../../../../nios2-elf/lib\libc.a(lib_a-fwrite.o)
 .debug_info    0x0000a024      0x9a7 c:/altera/13.0/nios2eds/bin/gnu/h-i686-mingw32/bin/../lib/gcc/nios2-elf/4.1.2/../../../../nios2-elf/lib\libc.a(lib_a-getc.o)
 .debug_info    0x0000a9cb      0x93d c:/altera/13.0/nios2eds/bin/gnu/h-i686-mingw32/bin/../lib/gcc/nios2-elf/4.1.2/../../../../nios2-elf/lib\libc.a(lib_a-impure.o)
 .debug_info    0x0000b308      0x106 c:/altera/13.0/nios2eds/bin/gnu/h-i686-mingw32/bin/../lib/gcc/nios2-elf/4.1.2/../../../../nios2-elf/lib\libc.a(lib_a-memcpy.o)
 .debug_info    0x0000b40e      0x13e c:/altera/13.0/nios2eds/bin/gnu/h-i686-mingw32/bin/../lib/gcc/nios2-elf/4.1.2/../../../../nios2-elf/lib\libc.a(lib_a-memmove.o)
 .debug_info    0x0000b54c      0x113 c:/altera/13.0/nios2eds/bin/gnu/h-i686-mingw32/bin/../lib/gcc/nios2-elf/4.1.2/../../../../nios2-elf/lib\libc.a(lib_a-memset.o)
 .debug_info    0x0000b65f      0x97b c:/altera/13.0/nios2eds/bin/gnu/h-i686-mingw32/bin/../lib/gcc/nios2-elf/4.1.2/../../../../nios2-elf/lib\libc.a(lib_a-perror.o)
 .debug_info    0x0000bfda      0x9d1 c:/altera/13.0/nios2eds/bin/gnu/h-i686-mingw32/bin/../lib/gcc/nios2-elf/4.1.2/../../../../nios2-elf/lib\libc.a(lib_a-printf.o)
 .debug_info    0x0000c9ab      0x9c1 c:/altera/13.0/nios2eds/bin/gnu/h-i686-mingw32/bin/../lib/gcc/nios2-elf/4.1.2/../../../../nios2-elf/lib\libc.a(lib_a-putc.o)
 .debug_info    0x0000d36c      0x972 c:/altera/13.0/nios2eds/bin/gnu/h-i686-mingw32/bin/../lib/gcc/nios2-elf/4.1.2/../../../../nios2-elf/lib\libc.a(lib_a-putchar.o)
 .debug_info    0x0000dcde      0xa25 c:/altera/13.0/nios2eds/bin/gnu/h-i686-mingw32/bin/../lib/gcc/nios2-elf/4.1.2/../../../../nios2-elf/lib\libc.a(lib_a-puts.o)
 .debug_info    0x0000e703      0x987 c:/altera/13.0/nios2eds/bin/gnu/h-i686-mingw32/bin/../lib/gcc/nios2-elf/4.1.2/../../../../nios2-elf/lib\libc.a(lib_a-rget.o)
 .debug_info    0x0000f08a      0x118 c:/altera/13.0/nios2eds/bin/gnu/h-i686-mingw32/bin/../lib/gcc/nios2-elf/4.1.2/../../../../nios2-elf/lib\libc.a(lib_a-strchr.o)
 .debug_info    0x0000f1a2       0xbb c:/altera/13.0/nios2eds/bin/gnu/h-i686-mingw32/bin/../lib/gcc/nios2-elf/4.1.2/../../../../nios2-elf/lib\libc.a(lib_a-strerror.o)
 .debug_info    0x0000f25d       0xdb c:/altera/13.0/nios2eds/bin/gnu/h-i686-mingw32/bin/../lib/gcc/nios2-elf/4.1.2/../../../../nios2-elf/lib\libc.a(lib_a-strlen.o)
 .debug_info    0x0000f338       0x63 c:/altera/13.0/nios2eds/bin/gnu/h-i686-mingw32/bin/../lib/gcc/nios2-elf/4.1.2/../../../../nios2-elf/lib\libc.a(lib_a-u_strerr.o)
 .debug_info    0x0000f39b     0x10d5 c:/altera/13.0/nios2eds/bin/gnu/h-i686-mingw32/bin/../lib/gcc/nios2-elf/4.1.2/../../../../nios2-elf/lib\libc.a(lib_a-vfprintf.o)
 .debug_info    0x00010470      0x9ae c:/altera/13.0/nios2eds/bin/gnu/h-i686-mingw32/bin/../lib/gcc/nios2-elf/4.1.2/../../../../nios2-elf/lib\libc.a(lib_a-wbuf.o)
 .debug_info    0x00010e1e      0x95d c:/altera/13.0/nios2eds/bin/gnu/h-i686-mingw32/bin/../lib/gcc/nios2-elf/4.1.2/../../../../nios2-elf/lib\libc.a(lib_a-wsetup.o)
 .debug_info    0x0001177b      0x9e2 c:/altera/13.0/nios2eds/bin/gnu/h-i686-mingw32/bin/../lib/gcc/nios2-elf/4.1.2/../../../../nios2-elf/lib\libc.a(lib_a-__call_atexit.o)
 .debug_info    0x0001215d      0xd6f c:/altera/13.0/nios2eds/bin/gnu/h-i686-mingw32/bin/../lib/gcc/nios2-elf/4.1.2/../../../../nios2-elf/lib\libc.a(lib_a-dtoa.o)
 .debug_info    0x00012ecc      0x9fe c:/altera/13.0/nios2eds/bin/gnu/h-i686-mingw32/bin/../lib/gcc/nios2-elf/4.1.2/../../../../nios2-elf/lib\libc.a(lib_a-fflush.o)
 .debug_info    0x000138ca      0xb72 c:/altera/13.0/nios2eds/bin/gnu/h-i686-mingw32/bin/../lib/gcc/nios2-elf/4.1.2/../../../../nios2-elf/lib\libc.a(lib_a-findfp.o)
 .debug_info    0x0001443c      0x9bd c:/altera/13.0/nios2eds/bin/gnu/h-i686-mingw32/bin/../lib/gcc/nios2-elf/4.1.2/../../../../nios2-elf/lib\libc.a(lib_a-fputc.o)
 .debug_info    0x00014df9      0xa40 c:/altera/13.0/nios2eds/bin/gnu/h-i686-mingw32/bin/../lib/gcc/nios2-elf/4.1.2/../../../../nios2-elf/lib\libc.a(lib_a-fputs.o)
 .debug_info    0x00015839      0xbc9 c:/altera/13.0/nios2eds/bin/gnu/h-i686-mingw32/bin/../lib/gcc/nios2-elf/4.1.2/../../../../nios2-elf/lib\libc.a(lib_a-freer.o)
 .debug_info    0x00016402      0xa88 c:/altera/13.0/nios2eds/bin/gnu/h-i686-mingw32/bin/../lib/gcc/nios2-elf/4.1.2/../../../../nios2-elf/lib\libc.a(lib_a-fvwrite.o)
 .debug_info    0x00016e8a      0xaed c:/altera/13.0/nios2eds/bin/gnu/h-i686-mingw32/bin/../lib/gcc/nios2-elf/4.1.2/../../../../nios2-elf/lib\libc.a(lib_a-fwalk.o)
 .debug_info    0x00017977      0xb97 c:/altera/13.0/nios2eds/bin/gnu/h-i686-mingw32/bin/../lib/gcc/nios2-elf/4.1.2/../../../../nios2-elf/lib\libc.a(lib_a-locale.o)
 .debug_info    0x0001850e      0xb1a c:/altera/13.0/nios2eds/bin/gnu/h-i686-mingw32/bin/../lib/gcc/nios2-elf/4.1.2/../../../../nios2-elf/lib\libc.a(lib_a-makebuf.o)
 .debug_info    0x00019028      0xcd0 c:/altera/13.0/nios2eds/bin/gnu/h-i686-mingw32/bin/../lib/gcc/nios2-elf/4.1.2/../../../../nios2-elf/lib\libc.a(lib_a-mallocr.o)
 .debug_info    0x00019cf8      0x138 c:/altera/13.0/nios2eds/bin/gnu/h-i686-mingw32/bin/../lib/gcc/nios2-elf/4.1.2/../../../../nios2-elf/lib\libc.a(lib_a-memchr.o)
 .debug_info    0x00019e30     0x1437 c:/altera/13.0/nios2eds/bin/gnu/h-i686-mingw32/bin/../lib/gcc/nios2-elf/4.1.2/../../../../nios2-elf/lib\libc.a(lib_a-mprec.o)
 .debug_info    0x0001b267      0xbd7 c:/altera/13.0/nios2eds/bin/gnu/h-i686-mingw32/bin/../lib/gcc/nios2-elf/4.1.2/../../../../nios2-elf/lib\libc.a(lib_a-reallocr.o)
 .debug_info    0x0001be3e      0x98b c:/altera/13.0/nios2eds/bin/gnu/h-i686-mingw32/bin/../lib/gcc/nios2-elf/4.1.2/../../../../nios2-elf/lib\libc.a(lib_a-refill.o)
 .debug_info    0x0001c7c9       0xd7 c:/altera/13.0/nios2eds/bin/gnu/h-i686-mingw32/bin/../lib/gcc/nios2-elf/4.1.2/../../../../nios2-elf/lib\libc.a(lib_a-s_isinfd.o)
 .debug_info    0x0001c8a0       0xd5 c:/altera/13.0/nios2eds/bin/gnu/h-i686-mingw32/bin/../lib/gcc/nios2-elf/4.1.2/../../../../nios2-elf/lib\libc.a(lib_a-s_isnand.o)
 .debug_info    0x0001c975      0x962 c:/altera/13.0/nios2eds/bin/gnu/h-i686-mingw32/bin/../lib/gcc/nios2-elf/4.1.2/../../../../nios2-elf/lib\libc.a(lib_a-sbrkr.o)
 .debug_info    0x0001d2d7      0xaac c:/altera/13.0/nios2eds/bin/gnu/h-i686-mingw32/bin/../lib/gcc/nios2-elf/4.1.2/../../../../nios2-elf/lib\libc.a(lib_a-stdio.o)
 .debug_info    0x0001dd83       0xdd c:/altera/13.0/nios2eds/bin/gnu/h-i686-mingw32/bin/../lib/gcc/nios2-elf/4.1.2/../../../../nios2-elf/lib\libc.a(lib_a-strcmp.o)
 .debug_info    0x0001de60      0x993 c:/altera/13.0/nios2eds/bin/gnu/h-i686-mingw32/bin/../lib/gcc/nios2-elf/4.1.2/../../../../nios2-elf/lib\libc.a(lib_a-writer.o)
 .debug_info    0x0001e7f3      0xa1b c:/altera/13.0/nios2eds/bin/gnu/h-i686-mingw32/bin/../lib/gcc/nios2-elf/4.1.2/../../../../nios2-elf/lib\libc.a(lib_a-callocr.o)
 .debug_info    0x0001f20e      0x958 c:/altera/13.0/nios2eds/bin/gnu/h-i686-mingw32/bin/../lib/gcc/nios2-elf/4.1.2/../../../../nios2-elf/lib\libc.a(lib_a-closer.o)
 .debug_info    0x0001fb66      0x994 c:/altera/13.0/nios2eds/bin/gnu/h-i686-mingw32/bin/../lib/gcc/nios2-elf/4.1.2/../../../../nios2-elf/lib\libc.a(lib_a-fclose.o)
 .debug_info    0x000204fa      0xafc c:/altera/13.0/nios2eds/bin/gnu/h-i686-mingw32/bin/../lib/gcc/nios2-elf/4.1.2/../../../../nios2-elf/lib\libc.a(lib_a-fstatr.o)
 .debug_info    0x00020ff6       0x8c c:/altera/13.0/nios2eds/bin/gnu/h-i686-mingw32/bin/../lib/gcc/nios2-elf/4.1.2/../../../../nios2-elf/lib\libc.a(lib_a-int_errno.o)
 .debug_info    0x00021082      0x958 c:/altera/13.0/nios2eds/bin/gnu/h-i686-mingw32/bin/../lib/gcc/nios2-elf/4.1.2/../../../../nios2-elf/lib\libc.a(lib_a-isattyr.o)
 .debug_info    0x000219da      0x981 c:/altera/13.0/nios2eds/bin/gnu/h-i686-mingw32/bin/../lib/gcc/nios2-elf/4.1.2/../../../../nios2-elf/lib\libc.a(lib_a-lseekr.o)
 .debug_info    0x0002235b      0x98c c:/altera/13.0/nios2eds/bin/gnu/h-i686-mingw32/bin/../lib/gcc/nios2-elf/4.1.2/../../../../nios2-elf/lib\libc.a(lib_a-readr.o)
 .debug_info    0x00022ce7      0x724 c:/altera/13.0/nios2eds/bin/gnu/h-i686-mingw32/bin/../lib/gcc/nios2-elf/4.1.2\libgcc.a(_udivdi3.o)
 .debug_info    0x0002340b      0x751 c:/altera/13.0/nios2eds/bin/gnu/h-i686-mingw32/bin/../lib/gcc/nios2-elf/4.1.2\libgcc.a(_umoddi3.o)
 .debug_info    0x00023b5c      0x39b c:/altera/13.0/nios2eds/bin/gnu/h-i686-mingw32/bin/../lib/gcc/nios2-elf/4.1.2\libgcc.a(_div_df.o)
 .debug_info    0x00023ef7      0x29d c:/altera/13.0/nios2eds/bin/gnu/h-i686-mingw32/bin/../lib/gcc/nios2-elf/4.1.2\libgcc.a(_eq_df.o)
 .debug_info    0x00024194      0x29d c:/altera/13.0/nios2eds/bin/gnu/h-i686-mingw32/bin/../lib/gcc/nios2-elf/4.1.2\libgcc.a(_ne_df.o)
 .debug_info    0x00024431      0x29d c:/altera/13.0/nios2eds/bin/gnu/h-i686-mingw32/bin/../lib/gcc/nios2-elf/4.1.2\libgcc.a(_gt_df.o)
 .debug_info    0x000246ce      0x29d c:/altera/13.0/nios2eds/bin/gnu/h-i686-mingw32/bin/../lib/gcc/nios2-elf/4.1.2\libgcc.a(_lt_df.o)
 .debug_info    0x0002496b      0x218 c:/altera/13.0/nios2eds/bin/gnu/h-i686-mingw32/bin/../lib/gcc/nios2-elf/4.1.2\libgcc.a(_si_to_df.o)
 .debug_info    0x00024b83      0x21c c:/altera/13.0/nios2eds/bin/gnu/h-i686-mingw32/bin/../lib/gcc/nios2-elf/4.1.2\libgcc.a(lib2-divmod.o)
 .debug_info    0x00024d9f      0x20a ../socket_simples_bsp/\libucosii_bsp.a(alt_exit.o)
 .debug_info    0x00024fa9      0x5ef ../socket_simples_bsp/\libucosii_bsp.a(alt_flash_dev.o)
 .debug_info    0x00025598      0x6b6 ../socket_simples_bsp/\libucosii_bsp.a(alt_fstat.o)
 .debug_info    0x00025c4e      0x46c ../socket_simples_bsp/\libucosii_bsp.a(alt_irq_register.o)
 .debug_info    0x000260ba      0x169 ../socket_simples_bsp/\libucosii_bsp.a(alt_irq_vars.o)
 .debug_info    0x00026223      0x6bc ../socket_simples_bsp/\libucosii_bsp.a(alt_isatty.o)
 .debug_info    0x000268df      0x4f0 ../socket_simples_bsp/\libucosii_bsp.a(alt_lseek.o)
 .debug_info    0x00026dcf      0x3df ../socket_simples_bsp/\libucosii_bsp.a(alt_main.o)
 .debug_info    0x000271ae      0x2b9 ../socket_simples_bsp/\libucosii_bsp.a(alt_sbrk.o)
 .debug_info    0x00027467      0x236 ../socket_simples_bsp/\libucosii_bsp.a(alt_usleep.o)
 .debug_info    0x0002769d     0x11d5 ../socket_simples_bsp/\libucosii_bsp.a(alt_env_lock.o)
 .debug_info    0x00028872     0x1331 ../socket_simples_bsp/\libucosii_bsp.a(alt_malloc_lock.o)
 .debug_info    0x00029ba3     0x1beb ../socket_simples_bsp/\libucosii_bsp.a(os_core.o)
 .debug_info    0x0002b78e     0x1130 ../socket_simples_bsp/\libucosii_bsp.a(os_dbg.o)
 .debug_info    0x0002c8be     0x1246 ../socket_simples_bsp/\libucosii_bsp.a(os_flag.o)
 .debug_info    0x0002db04      0x810 ../socket_simples_bsp/\libucosii_bsp.a(os_mem.o)
 .debug_info    0x0002e314     0x1080 ../socket_simples_bsp/\libucosii_bsp.a(os_q.o)
 .debug_info    0x0002f394      0xce8 ../socket_simples_bsp/\libucosii_bsp.a(os_sem.o)
 .debug_info    0x0003007c     0x135e ../socket_simples_bsp/\libucosii_bsp.a(os_task.o)
 .debug_info    0x000313da      0x9e2 ../socket_simples_bsp/\libucosii_bsp.a(os_time.o)
 .debug_info    0x00031dbc     0x12a2 ../socket_simples_bsp/\libucosii_bsp.a(alt_sys_init.o)
 .debug_info    0x0003305e      0xb4b ../socket_simples_bsp/\libucosii_bsp.a(altera_avalon_cfi_flash.o)
 .debug_info    0x00033ba9      0xe37 ../socket_simples_bsp/\libucosii_bsp.a(altera_avalon_cfi_flash_table.o)
 .debug_info    0x000349e0      0xbab ../socket_simples_bsp/\libucosii_bsp.a(altera_avalon_epcs_flash_controller.o)
 .debug_info    0x0003558b      0x9d4 ../socket_simples_bsp/\libucosii_bsp.a(altera_avalon_jtag_uart_fd.o)
 .debug_info    0x00035f5f      0x952 ../socket_simples_bsp/\libucosii_bsp.a(altera_avalon_jtag_uart_init.o)
 .debug_info    0x000368b1      0x63e ../socket_simples_bsp/\libucosii_bsp.a(altera_avalon_jtag_uart_ioctl.o)
 .debug_info    0x00036eef      0x7fa ../socket_simples_bsp/\libucosii_bsp.a(altera_avalon_jtag_uart_read.o)
 .debug_info    0x000376e9      0x7f1 ../socket_simples_bsp/\libucosii_bsp.a(altera_avalon_jtag_uart_write.o)
 .debug_info    0x00037eda      0xaa0 ../socket_simples_bsp/\libucosii_bsp.a(altera_avalon_lcd_16207.o)
 .debug_info    0x0003897a      0x838 ../socket_simples_bsp/\libucosii_bsp.a(altera_avalon_lcd_16207_fd.o)
 .debug_info    0x000391b2      0x38d ../socket_simples_bsp/\libucosii_bsp.a(altera_avalon_timer_sc.o)
 .debug_info    0x0003953f      0x874 ../socket_simples_bsp/\libucosii_bsp.a(altera_avalon_uart_fd.o)
 .debug_info    0x00039db3      0x840 ../socket_simples_bsp/\libucosii_bsp.a(altera_avalon_uart_init.o)
 .debug_info    0x0003a5f3      0x7c2 ../socket_simples_bsp/\libucosii_bsp.a(altera_avalon_uart_read.o)
 .debug_info    0x0003adb5      0x7b1 ../socket_simples_bsp/\libucosii_bsp.a(altera_avalon_uart_write.o)
 .debug_info    0x0003b566      0x63e ../socket_simples_bsp/\libucosii_bsp.a(epcs_commands.o)
 .debug_info    0x0003bba4      0x1b8 ../socket_simples_bsp/\libucosii_bsp.a(alt_iniche_close.o)
 .debug_info    0x0003bd5c      0xb5f ../socket_simples_bsp/\libucosii_bsp.a(alt_iniche_dev.o)
 .debug_info    0x0003c8bb      0x1e2 ../socket_simples_bsp/\libucosii_bsp.a(alt_iniche_read.o)
 .debug_info    0x0003ca9d      0x1e9 ../socket_simples_bsp/\libucosii_bsp.a(alt_iniche_write.o)
 .debug_info    0x0003cc86      0xc4b ../socket_simples_bsp/\libucosii_bsp.a(ipnet.o)
 .debug_info    0x0003d8d1      0xb9e ../socket_simples_bsp/\libucosii_bsp.a(ipstart.o)
 .debug_info    0x0003e46f     0x1532 ../socket_simples_bsp/\libucosii_bsp.a(igmp_cmn.o)
 .debug_info    0x0003f9a1     0x1462 ../socket_simples_bsp/\libucosii_bsp.a(bsdsock.o)
 .debug_info    0x00040e03      0x254 ../socket_simples_bsp/\libucosii_bsp.a(cksum.o)
 .debug_info    0x00041057      0x746 ../socket_simples_bsp/\libucosii_bsp.a(in_utils.o)
 .debug_info    0x0004179d      0x560 ../socket_simples_bsp/\libucosii_bsp.a(netmain.o)
 .debug_info    0x00041cfd      0x6ec ../socket_simples_bsp/\libucosii_bsp.a(parseip.o)
 .debug_info    0x000423e9      0x96d ../socket_simples_bsp/\libucosii_bsp.a(tk_crnos.o)
 .debug_info    0x00042d56     0x15fb ../socket_simples_bsp/\libucosii_bsp.a(dhcpclnt.o)
 .debug_info    0x00044351      0x1de ../socket_simples_bsp/\libucosii_bsp.a(dhcputil.o)
 .debug_info    0x0004452f      0xcaa ../socket_simples_bsp/\libucosii_bsp.a(pktalloc.o)
 .debug_info    0x000451d9      0x2ee ../socket_simples_bsp/\libucosii_bsp.a(q.o)
 .debug_info    0x000454c7      0xb29 ../socket_simples_bsp/\libucosii_bsp.a(udp_open.o)
 .debug_info    0x00045ff0       0x8f ../socket_simples_bsp/\libucosii_bsp.a(asm_cksum.o)
 .debug_info    0x0004607f      0xeaf ../socket_simples_bsp/\libucosii_bsp.a(brdutils.o)
 .debug_info    0x00046f2e      0x6e1 ../socket_simples_bsp/\libucosii_bsp.a(osportco.o)
 .debug_info    0x0004760f      0x65e ../socket_simples_bsp/\libucosii_bsp.a(targnios.o)
 .debug_info    0x00047c6d     0x2525 ../socket_simples_bsp/\libucosii_bsp.a(nptcp.o)
 .debug_info    0x0004a192     0x11dd ../socket_simples_bsp/\libucosii_bsp.a(rawsock.o)
 .debug_info    0x0004b36f     0x1c9b ../socket_simples_bsp/\libucosii_bsp.a(sockcall.o)
 .debug_info    0x0004d00a     0x1aa1 ../socket_simples_bsp/\libucosii_bsp.a(socket.o)
 .debug_info    0x0004eaab     0x1567 ../socket_simples_bsp/\libucosii_bsp.a(socket2.o)
 .debug_info    0x00050012     0x1280 ../socket_simples_bsp/\libucosii_bsp.a(soselect.o)
 .debug_info    0x00051292     0x2132 ../socket_simples_bsp/\libucosii_bsp.a(tcp_in.o)
 .debug_info    0x000533c4     0x1e21 ../socket_simples_bsp/\libucosii_bsp.a(tcp_out.o)
 .debug_info    0x000551e5     0x1e89 ../socket_simples_bsp/\libucosii_bsp.a(tcp_subr.o)
 .debug_info    0x0005706e     0x1ca4 ../socket_simples_bsp/\libucosii_bsp.a(tcp_timr.o)
 .debug_info    0x00058d12     0x1c61 ../socket_simples_bsp/\libucosii_bsp.a(tcp_usr.o)
 .debug_info    0x0005a973      0x1b4 ../socket_simples_bsp/\libucosii_bsp.a(tcpport.o)
 .debug_info    0x0005ab27     0x1337 ../socket_simples_bsp/\libucosii_bsp.a(udpsock.o)
 .debug_info    0x0005be5e      0x444 ../socket_simples_bsp/\libucosii_bsp.a(alt_alarm_start.o)
 .debug_info    0x0005c2a2      0x1ad ../socket_simples_bsp/\libucosii_bsp.a(alt_busy_sleep.o)
 .debug_info    0x0005c44f      0x4c1 ../socket_simples_bsp/\libucosii_bsp.a(alt_close.o)
 .debug_info    0x0005c910      0x1a6 ../socket_simples_bsp/\libucosii_bsp.a(alt_dcache_flush.o)
 .debug_info    0x0005cab6      0x7df ../socket_simples_bsp/\libucosii_bsp.a(alt_dev.o)
 .debug_info    0x0005d295      0x2b9 ../socket_simples_bsp/\libucosii_bsp.a(alt_dev_llist_insert.o)
 .debug_info    0x0005d54e      0x111 ../socket_simples_bsp/\libucosii_bsp.a(alt_do_ctors.o)
 .debug_info    0x0005d65f      0x110 ../socket_simples_bsp/\libucosii_bsp.a(alt_do_dtors.o)
 .debug_info    0x0005d76f      0x166 ../socket_simples_bsp/\libucosii_bsp.a(alt_errno.o)
 .debug_info    0x0005d8d5      0x46e ../socket_simples_bsp/\libucosii_bsp.a(alt_find_dev.o)
 .debug_info    0x0005dd43      0x495 ../socket_simples_bsp/\libucosii_bsp.a(alt_iic.o)
 .debug_info    0x0005e1d8      0x316 ../socket_simples_bsp/\libucosii_bsp.a(alt_iic_isr_register.o)
 .debug_info    0x0005e4ee      0x6eb ../socket_simples_bsp/\libucosii_bsp.a(alt_io_redirect.o)
 .debug_info    0x0005ebd9       0x86 ../socket_simples_bsp/\libucosii_bsp.a(alt_irq_entry.o)
 .debug_info    0x0005ec5f      0x2bc ../socket_simples_bsp/\libucosii_bsp.a(alt_irq_handler.o)
 .debug_info    0x0005ef1b      0x56c ../socket_simples_bsp/\libucosii_bsp.a(alt_open.o)
 .debug_info    0x0005f487      0x6e4 ../socket_simples_bsp/\libucosii_bsp.a(alt_read.o)
 .debug_info    0x0005fb6b      0x451 ../socket_simples_bsp/\libucosii_bsp.a(alt_release_fd.o)
 .debug_info    0x0005ffbc      0x193 ../socket_simples_bsp/\libucosii_bsp.a(alt_remap_cached.o)
 .debug_info    0x0006014f      0x197 ../socket_simples_bsp/\libucosii_bsp.a(alt_remap_uncached.o)
 .debug_info    0x000602e6      0x413 ../socket_simples_bsp/\libucosii_bsp.a(alt_tick.o)
 .debug_info    0x000606f9      0x6ed ../socket_simples_bsp/\libucosii_bsp.a(alt_write.o)
 .debug_info    0x00060de6      0x165 ../socket_simples_bsp/\libucosii_bsp.a(altera_nios2_qsys_irq.o)
 .debug_info    0x00060f4b       0x85 ../socket_simples_bsp/\libucosii_bsp.a(os_cpu_a.o)
 .debug_info    0x00060fd0     0x12d5 ../socket_simples_bsp/\libucosii_bsp.a(os_cpu_c.o)
 .debug_info    0x000622a5      0x8eb ../socket_simples_bsp/\libucosii_bsp.a(altera_avalon_cfi_flash_amd.o)
 .debug_info    0x00062b90      0x8e1 ../socket_simples_bsp/\libucosii_bsp.a(altera_avalon_cfi_flash_intel.o)
 .debug_info    0x00063471      0x2ab ../socket_simples_bsp/\libucosii_bsp.a(altera_avalon_spi.o)
 .debug_info    0x0006371c      0xda1 ../socket_simples_bsp/\libucosii_bsp.a(allports.o)
 .debug_info    0x000644bd      0x3c3 ../socket_simples_bsp/\libucosii_bsp.a(timeouts.o)
 .debug_info    0x00064880      0x222 ../socket_simples_bsp/\libucosii_bsp.a(tk_misc.o)
 .debug_info    0x00064aa2      0x20f ../socket_simples_bsp/\libucosii_bsp.a(alt_iniche_fcntl.o)
 .debug_info    0x00064cb1     0x127b ../socket_simples_bsp/\libucosii_bsp.a(et_arp.o)
 .debug_info    0x00065f2c      0xf99 ../socket_simples_bsp/\libucosii_bsp.a(iface.o)
 .debug_info    0x00066ec5     0x1706 ../socket_simples_bsp/\libucosii_bsp.a(ip.o)
 .debug_info    0x000685cb     0x186a ../socket_simples_bsp/\libucosii_bsp.a(ip_reasm.o)
 .debug_info    0x00069e35      0xdeb ../socket_simples_bsp/\libucosii_bsp.a(ipdemux.o)
 .debug_info    0x0006ac20      0xa47 ../socket_simples_bsp/\libucosii_bsp.a(ipmc.o)
 .debug_info    0x0006b667      0x2e5 ../socket_simples_bsp/\libucosii_bsp.a(ipport.o)
 .debug_info    0x0006b94c      0xf58 ../socket_simples_bsp/\libucosii_bsp.a(ipraw.o)
 .debug_info    0x0006c8a4      0xf03 ../socket_simples_bsp/\libucosii_bsp.a(iproute.o)
 .debug_info    0x0006d7a7     0x129a ../socket_simples_bsp/\libucosii_bsp.a(udp.o)
 .debug_info    0x0006ea41     0x1134 ../socket_simples_bsp/\libucosii_bsp.a(igmp.o)
 .debug_info    0x0006fb75     0x1368 ../socket_simples_bsp/\libucosii_bsp.a(igmp2.o)
 .debug_info    0x00070edd     0x10e3 ../socket_simples_bsp/\libucosii_bsp.a(ipopt.o)
 .debug_info    0x00071fc0      0xbbb ../socket_simples_bsp/\libucosii_bsp.a(u_mctest.o)
 .debug_info    0x00072b7b      0xa59 ../socket_simples_bsp/\libucosii_bsp.a(dhcsetup.o)
 .debug_info    0x000735d4      0x741 ../socket_simples_bsp/\libucosii_bsp.a(memdev.o)
 .debug_info    0x00073d15      0x3e6 ../socket_simples_bsp/\libucosii_bsp.a(tcpcksum.o)
 .debug_info    0x000740fb     0x12b5 ../socket_simples_bsp/\libucosii_bsp.a(in_pcb.o)
 .debug_info    0x000753b0      0xfe6 ../socket_simples_bsp/\libucosii_bsp.a(vfsfiles.o)
 .debug_info    0x00076396      0x1b5 ../socket_simples_bsp/\libucosii_bsp.a(vfsport.o)
 .debug_info    0x0007654b       0x8c ../socket_simples_bsp/\libucosii_bsp.a(alt_exception_entry.o)
 .debug_info    0x000765d7      0x702 ../socket_simples_bsp/\libucosii_bsp.a(alt_fcntl.o)
 .debug_info    0x00076cd9      0x475 ../socket_simples_bsp/\libucosii_bsp.a(alt_find_file.o)
 .debug_info    0x0007714e      0x607 ../socket_simples_bsp/\libucosii_bsp.a(alt_get_fd.o)
 .debug_info    0x00077755     0x1188 ../socket_simples_bsp/\libucosii_bsp.a(icmp.o)
 .debug_info    0x000788dd      0x181 c:/altera/13.0/nios2eds/bin/gnu/h-i686-mingw32/bin/../lib/gcc/nios2-elf/4.1.2/../../../../nios2-elf/lib\libc.a(lib_a-atexit.o)
 .debug_info    0x00078a5e      0x960 c:/altera/13.0/nios2eds/bin/gnu/h-i686-mingw32/bin/../lib/gcc/nios2-elf/4.1.2/../../../../nios2-elf/lib\libc.a(lib_a-atoi.o)
 .debug_info    0x000793be      0x954 c:/altera/13.0/nios2eds/bin/gnu/h-i686-mingw32/bin/../lib/gcc/nios2-elf/4.1.2/../../../../nios2-elf/lib\libc.a(lib_a-calloc.o)
 .debug_info    0x00079d12      0x96e c:/altera/13.0/nios2eds/bin/gnu/h-i686-mingw32/bin/../lib/gcc/nios2-elf/4.1.2/../../../../nios2-elf/lib\libc.a(lib_a-malloc.o)
 .debug_info    0x0007a680      0x115 c:/altera/13.0/nios2eds/bin/gnu/h-i686-mingw32/bin/../lib/gcc/nios2-elf/4.1.2/../../../../nios2-elf/lib\libc.a(lib_a-memcmp.o)
 .debug_info    0x0007a795      0xa16 c:/altera/13.0/nios2eds/bin/gnu/h-i686-mingw32/bin/../lib/gcc/nios2-elf/4.1.2/../../../../nios2-elf/lib\libc.a(lib_a-sprintf.o)
 .debug_info    0x0007b1ab      0x110 c:/altera/13.0/nios2eds/bin/gnu/h-i686-mingw32/bin/../lib/gcc/nios2-elf/4.1.2/../../../../nios2-elf/lib\libc.a(lib_a-strcpy.o)
 .debug_info    0x0007b2bb       0xf5 c:/altera/13.0/nios2eds/bin/gnu/h-i686-mingw32/bin/../lib/gcc/nios2-elf/4.1.2/../../../../nios2-elf/lib\libc.a(lib_a-strncmp.o)
 .debug_info    0x0007b3b0      0x12a c:/altera/13.0/nios2eds/bin/gnu/h-i686-mingw32/bin/../lib/gcc/nios2-elf/4.1.2/../../../../nios2-elf/lib\libc.a(lib_a-strncpy.o)
 .debug_info    0x0007b4da      0xa2a c:/altera/13.0/nios2eds/bin/gnu/h-i686-mingw32/bin/../lib/gcc/nios2-elf/4.1.2/../../../../nios2-elf/lib\libc.a(lib_a-strtol.o)
 .debug_info    0x0007bf04      0x9aa c:/altera/13.0/nios2eds/bin/gnu/h-i686-mingw32/bin/../lib/gcc/nios2-elf/4.1.2/../../../../nios2-elf/lib\libc.a(lib_a-vprintf.o)
 .debug_info    0x0007c8ae      0x9ed c:/altera/13.0/nios2eds/bin/gnu/h-i686-mingw32/bin/../lib/gcc/nios2-elf/4.1.2/../../../../nios2-elf/lib\libc.a(lib_a-vsprintf.o)
 .debug_info    0x0007d29b      0x99c c:/altera/13.0/nios2eds/bin/gnu/h-i686-mingw32/bin/../lib/gcc/nios2-elf/4.1.2/../../../../nios2-elf/lib\libc.a(lib_a-__atexit.o)

.debug_abbrev   0x00000000    0x125c3
 *(.debug_abbrev)
 .debug_abbrev  0x00000000       0x14 ../socket_simples_bsp//obj/HAL/src/crt0.o
 .debug_abbrev  0x00000014       0xa9 obj/default/LCD.o
 .debug_abbrev  0x000000bd      0x15c obj/default/SSS_DE2_115.o
 .debug_abbrev  0x00000219      0x1f1 obj/default/alt_error_handler.o
 .debug_abbrev  0x0000040a      0x231 obj/default/dm9000a.o
 .debug_abbrev  0x0000063b      0x1ae obj/default/iniche_init.o
 .debug_abbrev  0x000007e9       0xf5 obj/default/led.o
 .debug_abbrev  0x000008de      0x282 obj/default/network_utilities.o
 .debug_abbrev  0x00000b60      0x1c4 obj/default/simple_socket_server.o
 .debug_abbrev  0x00000d24        0x1 obj/default/tse_my_system.o
 .debug_abbrev  0x00000d25       0x5d c:/altera/13.0/nios2eds/bin/gnu/h-i686-mingw32/bin/../lib/gcc/nios2-elf/4.1.2\libgcc.a(_fixunsdfsi.o)
 .debug_abbrev  0x00000d82      0x1d2 c:/altera/13.0/nios2eds/bin/gnu/h-i686-mingw32/bin/../lib/gcc/nios2-elf/4.1.2\libgcc.a(_addsub_df.o)
 .debug_abbrev  0x00000f54      0x204 c:/altera/13.0/nios2eds/bin/gnu/h-i686-mingw32/bin/../lib/gcc/nios2-elf/4.1.2\libgcc.a(_mul_df.o)
 .debug_abbrev  0x00001158      0x151 c:/altera/13.0/nios2eds/bin/gnu/h-i686-mingw32/bin/../lib/gcc/nios2-elf/4.1.2\libgcc.a(_ge_df.o)
 .debug_abbrev  0x000012a9      0x176 c:/altera/13.0/nios2eds/bin/gnu/h-i686-mingw32/bin/../lib/gcc/nios2-elf/4.1.2\libgcc.a(_df_to_si.o)
 .debug_abbrev  0x0000141f       0xba c:/altera/13.0/nios2eds/bin/gnu/h-i686-mingw32/bin/../lib/gcc/nios2-elf/4.1.2\libgcc.a(_thenan_df.o)
 .debug_abbrev  0x000014d9      0x155 c:/altera/13.0/nios2eds/bin/gnu/h-i686-mingw32/bin/../lib/gcc/nios2-elf/4.1.2\libgcc.a(_usi_to_df.o)
 .debug_abbrev  0x0000162e       0xee c:/altera/13.0/nios2eds/bin/gnu/h-i686-mingw32/bin/../lib/gcc/nios2-elf/4.1.2\libgcc.a(_muldi3.o)
 .debug_abbrev  0x0000171c       0xb9 c:/altera/13.0/nios2eds/bin/gnu/h-i686-mingw32/bin/../lib/gcc/nios2-elf/4.1.2\libgcc.a(_clzsi2.o)
 .debug_abbrev  0x000017d5      0x1b1 c:/altera/13.0/nios2eds/bin/gnu/h-i686-mingw32/bin/../lib/gcc/nios2-elf/4.1.2\libgcc.a(_pack_df.o)
 .debug_abbrev  0x00001986      0x149 c:/altera/13.0/nios2eds/bin/gnu/h-i686-mingw32/bin/../lib/gcc/nios2-elf/4.1.2\libgcc.a(_unpack_df.o)
 .debug_abbrev  0x00001acf      0x132 c:/altera/13.0/nios2eds/bin/gnu/h-i686-mingw32/bin/../lib/gcc/nios2-elf/4.1.2\libgcc.a(_fpcmp_parts_df.o)
 .debug_abbrev  0x00001c01       0x61 c:/altera/13.0/nios2eds/bin/gnu/h-i686-mingw32/bin/../lib/gcc/nios2-elf/4.1.2\libgcc.a(_clz.o)
 .debug_abbrev  0x00001c62       0x61 c:/altera/13.0/nios2eds/bin/gnu/h-i686-mingw32/bin/../lib/gcc/nios2-elf/4.1.2/../../../../nios2-elf/lib\libc.a(lib_a-ctype_.o)
 .debug_abbrev  0x00001cc3      0x16e c:/altera/13.0/nios2eds/bin/gnu/h-i686-mingw32/bin/../lib/gcc/nios2-elf/4.1.2/../../../../nios2-elf/lib\libc.a(lib_a-exit.o)
 .debug_abbrev  0x00001e31      0x197 c:/altera/13.0/nios2eds/bin/gnu/h-i686-mingw32/bin/../lib/gcc/nios2-elf/4.1.2/../../../../nios2-elf/lib\libc.a(lib_a-fprintf.o)
 .debug_abbrev  0x00001fc8      0x1b1 c:/altera/13.0/nios2eds/bin/gnu/h-i686-mingw32/bin/../lib/gcc/nios2-elf/4.1.2/../../../../nios2-elf/lib\libc.a(lib_a-fwrite.o)
 .debug_abbrev  0x00002179      0x17f c:/altera/13.0/nios2eds/bin/gnu/h-i686-mingw32/bin/../lib/gcc/nios2-elf/4.1.2/../../../../nios2-elf/lib\libc.a(lib_a-getc.o)
 .debug_abbrev  0x000022f8      0x157 c:/altera/13.0/nios2eds/bin/gnu/h-i686-mingw32/bin/../lib/gcc/nios2-elf/4.1.2/../../../../nios2-elf/lib\libc.a(lib_a-impure.o)
 .debug_abbrev  0x0000244f       0xb5 c:/altera/13.0/nios2eds/bin/gnu/h-i686-mingw32/bin/../lib/gcc/nios2-elf/4.1.2/../../../../nios2-elf/lib\libc.a(lib_a-memcpy.o)
 .debug_abbrev  0x00002504       0xb5 c:/altera/13.0/nios2eds/bin/gnu/h-i686-mingw32/bin/../lib/gcc/nios2-elf/4.1.2/../../../../nios2-elf/lib\libc.a(lib_a-memmove.o)
 .debug_abbrev  0x000025b9       0xb8 c:/altera/13.0/nios2eds/bin/gnu/h-i686-mingw32/bin/../lib/gcc/nios2-elf/4.1.2/../../../../nios2-elf/lib\libc.a(lib_a-memset.o)
 .debug_abbrev  0x00002671      0x194 c:/altera/13.0/nios2eds/bin/gnu/h-i686-mingw32/bin/../lib/gcc/nios2-elf/4.1.2/../../../../nios2-elf/lib\libc.a(lib_a-perror.o)
 .debug_abbrev  0x00002805      0x191 c:/altera/13.0/nios2eds/bin/gnu/h-i686-mingw32/bin/../lib/gcc/nios2-elf/4.1.2/../../../../nios2-elf/lib\libc.a(lib_a-printf.o)
 .debug_abbrev  0x00002996      0x17f c:/altera/13.0/nios2eds/bin/gnu/h-i686-mingw32/bin/../lib/gcc/nios2-elf/4.1.2/../../../../nios2-elf/lib\libc.a(lib_a-putc.o)
 .debug_abbrev  0x00002b15      0x170 c:/altera/13.0/nios2eds/bin/gnu/h-i686-mingw32/bin/../lib/gcc/nios2-elf/4.1.2/../../../../nios2-elf/lib\libc.a(lib_a-putchar.o)
 .debug_abbrev  0x00002c85      0x1ac c:/altera/13.0/nios2eds/bin/gnu/h-i686-mingw32/bin/../lib/gcc/nios2-elf/4.1.2/../../../../nios2-elf/lib\libc.a(lib_a-puts.o)
 .debug_abbrev  0x00002e31      0x189 c:/altera/13.0/nios2eds/bin/gnu/h-i686-mingw32/bin/../lib/gcc/nios2-elf/4.1.2/../../../../nios2-elf/lib\libc.a(lib_a-rget.o)
 .debug_abbrev  0x00002fba       0x80 c:/altera/13.0/nios2eds/bin/gnu/h-i686-mingw32/bin/../lib/gcc/nios2-elf/4.1.2/../../../../nios2-elf/lib\libc.a(lib_a-strchr.o)
 .debug_abbrev  0x0000303a       0x68 c:/altera/13.0/nios2eds/bin/gnu/h-i686-mingw32/bin/../lib/gcc/nios2-elf/4.1.2/../../../../nios2-elf/lib\libc.a(lib_a-strerror.o)
 .debug_abbrev  0x000030a2       0x8b c:/altera/13.0/nios2eds/bin/gnu/h-i686-mingw32/bin/../lib/gcc/nios2-elf/4.1.2/../../../../nios2-elf/lib\libc.a(lib_a-strlen.o)
 .debug_abbrev  0x0000312d       0x5b c:/altera/13.0/nios2eds/bin/gnu/h-i686-mingw32/bin/../lib/gcc/nios2-elf/4.1.2/../../../../nios2-elf/lib\libc.a(lib_a-u_strerr.o)
 .debug_abbrev  0x00003188      0x30a c:/altera/13.0/nios2eds/bin/gnu/h-i686-mingw32/bin/../lib/gcc/nios2-elf/4.1.2/../../../../nios2-elf/lib\libc.a(lib_a-vfprintf.o)
 .debug_abbrev  0x00003492      0x198 c:/altera/13.0/nios2eds/bin/gnu/h-i686-mingw32/bin/../lib/gcc/nios2-elf/4.1.2/../../../../nios2-elf/lib\libc.a(lib_a-wbuf.o)
 .debug_abbrev  0x0000362a      0x170 c:/altera/13.0/nios2eds/bin/gnu/h-i686-mingw32/bin/../lib/gcc/nios2-elf/4.1.2/../../../../nios2-elf/lib\libc.a(lib_a-wsetup.o)
 .debug_abbrev  0x0000379a      0x1de c:/altera/13.0/nios2eds/bin/gnu/h-i686-mingw32/bin/../lib/gcc/nios2-elf/4.1.2/../../../../nios2-elf/lib\libc.a(lib_a-__call_atexit.o)
 .debug_abbrev  0x00003978      0x232 c:/altera/13.0/nios2eds/bin/gnu/h-i686-mingw32/bin/../lib/gcc/nios2-elf/4.1.2/../../../../nios2-elf/lib\libc.a(lib_a-dtoa.o)
 .debug_abbrev  0x00003baa      0x1c6 c:/altera/13.0/nios2eds/bin/gnu/h-i686-mingw32/bin/../lib/gcc/nios2-elf/4.1.2/../../../../nios2-elf/lib\libc.a(lib_a-fflush.o)
 .debug_abbrev  0x00003d70      0x24c c:/altera/13.0/nios2eds/bin/gnu/h-i686-mingw32/bin/../lib/gcc/nios2-elf/4.1.2/../../../../nios2-elf/lib\libc.a(lib_a-findfp.o)
 .debug_abbrev  0x00003fbc      0x18c c:/altera/13.0/nios2eds/bin/gnu/h-i686-mingw32/bin/../lib/gcc/nios2-elf/4.1.2/../../../../nios2-elf/lib\libc.a(lib_a-fputc.o)
 .debug_abbrev  0x00004148      0x1aa c:/altera/13.0/nios2eds/bin/gnu/h-i686-mingw32/bin/../lib/gcc/nios2-elf/4.1.2/../../../../nios2-elf/lib\libc.a(lib_a-fputs.o)
 .debug_abbrev  0x000042f2      0x1d9 c:/altera/13.0/nios2eds/bin/gnu/h-i686-mingw32/bin/../lib/gcc/nios2-elf/4.1.2/../../../../nios2-elf/lib\libc.a(lib_a-freer.o)
 .debug_abbrev  0x000044cb      0x1a3 c:/altera/13.0/nios2eds/bin/gnu/h-i686-mingw32/bin/../lib/gcc/nios2-elf/4.1.2/../../../../nios2-elf/lib\libc.a(lib_a-fvwrite.o)
 .debug_abbrev  0x0000466e      0x1e3 c:/altera/13.0/nios2eds/bin/gnu/h-i686-mingw32/bin/../lib/gcc/nios2-elf/4.1.2/../../../../nios2-elf/lib\libc.a(lib_a-fwalk.o)
 .debug_abbrev  0x00004851      0x1ed c:/altera/13.0/nios2eds/bin/gnu/h-i686-mingw32/bin/../lib/gcc/nios2-elf/4.1.2/../../../../nios2-elf/lib\libc.a(lib_a-locale.o)
 .debug_abbrev  0x00004a3e      0x197 c:/altera/13.0/nios2eds/bin/gnu/h-i686-mingw32/bin/../lib/gcc/nios2-elf/4.1.2/../../../../nios2-elf/lib\libc.a(lib_a-makebuf.o)
 .debug_abbrev  0x00004bd5      0x216 c:/altera/13.0/nios2eds/bin/gnu/h-i686-mingw32/bin/../lib/gcc/nios2-elf/4.1.2/../../../../nios2-elf/lib\libc.a(lib_a-mallocr.o)
 .debug_abbrev  0x00004deb       0xb5 c:/altera/13.0/nios2eds/bin/gnu/h-i686-mingw32/bin/../lib/gcc/nios2-elf/4.1.2/../../../../nios2-elf/lib\libc.a(lib_a-memchr.o)
 .debug_abbrev  0x00004ea0      0x297 c:/altera/13.0/nios2eds/bin/gnu/h-i686-mingw32/bin/../lib/gcc/nios2-elf/4.1.2/../../../../nios2-elf/lib\libc.a(lib_a-mprec.o)
 .debug_abbrev  0x00005137      0x1c3 c:/altera/13.0/nios2eds/bin/gnu/h-i686-mingw32/bin/../lib/gcc/nios2-elf/4.1.2/../../../../nios2-elf/lib\libc.a(lib_a-reallocr.o)
 .debug_abbrev  0x000052fa      0x187 c:/altera/13.0/nios2eds/bin/gnu/h-i686-mingw32/bin/../lib/gcc/nios2-elf/4.1.2/../../../../nios2-elf/lib\libc.a(lib_a-refill.o)
 .debug_abbrev  0x00005481       0x79 c:/altera/13.0/nios2eds/bin/gnu/h-i686-mingw32/bin/../lib/gcc/nios2-elf/4.1.2/../../../../nios2-elf/lib\libc.a(lib_a-s_isinfd.o)
 .debug_abbrev  0x000054fa       0x79 c:/altera/13.0/nios2eds/bin/gnu/h-i686-mingw32/bin/../lib/gcc/nios2-elf/4.1.2/../../../../nios2-elf/lib\libc.a(lib_a-s_isnand.o)
 .debug_abbrev  0x00005573      0x18c c:/altera/13.0/nios2eds/bin/gnu/h-i686-mingw32/bin/../lib/gcc/nios2-elf/4.1.2/../../../../nios2-elf/lib\libc.a(lib_a-sbrkr.o)
 .debug_abbrev  0x000056ff      0x1c9 c:/altera/13.0/nios2eds/bin/gnu/h-i686-mingw32/bin/../lib/gcc/nios2-elf/4.1.2/../../../../nios2-elf/lib\libc.a(lib_a-stdio.o)
 .debug_abbrev  0x000058c8       0x80 c:/altera/13.0/nios2eds/bin/gnu/h-i686-mingw32/bin/../lib/gcc/nios2-elf/4.1.2/../../../../nios2-elf/lib\libc.a(lib_a-strcmp.o)
 .debug_abbrev  0x00005948      0x184 c:/altera/13.0/nios2eds/bin/gnu/h-i686-mingw32/bin/../lib/gcc/nios2-elf/4.1.2/../../../../nios2-elf/lib\libc.a(lib_a-writer.o)
 .debug_abbrev  0x00005acc      0x1b8 c:/altera/13.0/nios2eds/bin/gnu/h-i686-mingw32/bin/../lib/gcc/nios2-elf/4.1.2/../../../../nios2-elf/lib\libc.a(lib_a-callocr.o)
 .debug_abbrev  0x00005c84      0x17f c:/altera/13.0/nios2eds/bin/gnu/h-i686-mingw32/bin/../lib/gcc/nios2-elf/4.1.2/../../../../nios2-elf/lib\libc.a(lib_a-closer.o)
 .debug_abbrev  0x00005e03      0x1a7 c:/altera/13.0/nios2eds/bin/gnu/h-i686-mingw32/bin/../lib/gcc/nios2-elf/4.1.2/../../../../nios2-elf/lib\libc.a(lib_a-fclose.o)
 .debug_abbrev  0x00005faa      0x18e c:/altera/13.0/nios2eds/bin/gnu/h-i686-mingw32/bin/../lib/gcc/nios2-elf/4.1.2/../../../../nios2-elf/lib\libc.a(lib_a-fstatr.o)
 .debug_abbrev  0x00006138       0x3b c:/altera/13.0/nios2eds/bin/gnu/h-i686-mingw32/bin/../lib/gcc/nios2-elf/4.1.2/../../../../nios2-elf/lib\libc.a(lib_a-int_errno.o)
 .debug_abbrev  0x00006173      0x17f c:/altera/13.0/nios2eds/bin/gnu/h-i686-mingw32/bin/../lib/gcc/nios2-elf/4.1.2/../../../../nios2-elf/lib\libc.a(lib_a-isattyr.o)
 .debug_abbrev  0x000062f2      0x18e c:/altera/13.0/nios2eds/bin/gnu/h-i686-mingw32/bin/../lib/gcc/nios2-elf/4.1.2/../../../../nios2-elf/lib\libc.a(lib_a-lseekr.o)
 .debug_abbrev  0x00006480      0x17f c:/altera/13.0/nios2eds/bin/gnu/h-i686-mingw32/bin/../lib/gcc/nios2-elf/4.1.2/../../../../nios2-elf/lib\libc.a(lib_a-readr.o)
 .debug_abbrev  0x000065ff      0x16b c:/altera/13.0/nios2eds/bin/gnu/h-i686-mingw32/bin/../lib/gcc/nios2-elf/4.1.2\libgcc.a(_udivdi3.o)
 .debug_abbrev  0x0000676a      0x18e c:/altera/13.0/nios2eds/bin/gnu/h-i686-mingw32/bin/../lib/gcc/nios2-elf/4.1.2\libgcc.a(_umoddi3.o)
 .debug_abbrev  0x000068f8      0x1e3 c:/altera/13.0/nios2eds/bin/gnu/h-i686-mingw32/bin/../lib/gcc/nios2-elf/4.1.2\libgcc.a(_div_df.o)
 .debug_abbrev  0x00006adb      0x151 c:/altera/13.0/nios2eds/bin/gnu/h-i686-mingw32/bin/../lib/gcc/nios2-elf/4.1.2\libgcc.a(_eq_df.o)
 .debug_abbrev  0x00006c2c      0x151 c:/altera/13.0/nios2eds/bin/gnu/h-i686-mingw32/bin/../lib/gcc/nios2-elf/4.1.2\libgcc.a(_ne_df.o)
 .debug_abbrev  0x00006d7d      0x151 c:/altera/13.0/nios2eds/bin/gnu/h-i686-mingw32/bin/../lib/gcc/nios2-elf/4.1.2\libgcc.a(_gt_df.o)
 .debug_abbrev  0x00006ece      0x151 c:/altera/13.0/nios2eds/bin/gnu/h-i686-mingw32/bin/../lib/gcc/nios2-elf/4.1.2\libgcc.a(_lt_df.o)
 .debug_abbrev  0x0000701f      0x13f c:/altera/13.0/nios2eds/bin/gnu/h-i686-mingw32/bin/../lib/gcc/nios2-elf/4.1.2\libgcc.a(_si_to_df.o)
 .debug_abbrev  0x0000715e       0xe0 c:/altera/13.0/nios2eds/bin/gnu/h-i686-mingw32/bin/../lib/gcc/nios2-elf/4.1.2\libgcc.a(lib2-divmod.o)
 .debug_abbrev  0x0000723e       0xaa ../socket_simples_bsp/\libucosii_bsp.a(alt_exit.o)
 .debug_abbrev  0x000072e8      0x128 ../socket_simples_bsp/\libucosii_bsp.a(alt_flash_dev.o)
 .debug_abbrev  0x00007410      0x102 ../socket_simples_bsp/\libucosii_bsp.a(alt_fstat.o)
 .debug_abbrev  0x00007512      0x180 ../socket_simples_bsp/\libucosii_bsp.a(alt_irq_register.o)
 .debug_abbrev  0x00007692       0x44 ../socket_simples_bsp/\libucosii_bsp.a(alt_irq_vars.o)
 .debug_abbrev  0x000076d6      0x102 ../socket_simples_bsp/\libucosii_bsp.a(alt_isatty.o)
 .debug_abbrev  0x000077d8      0x102 ../socket_simples_bsp/\libucosii_bsp.a(alt_lseek.o)
 .debug_abbrev  0x000078da      0x120 ../socket_simples_bsp/\libucosii_bsp.a(alt_main.o)
 .debug_abbrev  0x000079fa      0x115 ../socket_simples_bsp/\libucosii_bsp.a(alt_sbrk.o)
 .debug_abbrev  0x00007b0f       0xb7 ../socket_simples_bsp/\libucosii_bsp.a(alt_usleep.o)
 .debug_abbrev  0x00007bc6      0x1b3 ../socket_simples_bsp/\libucosii_bsp.a(alt_env_lock.o)
 .debug_abbrev  0x00007d79      0x234 ../socket_simples_bsp/\libucosii_bsp.a(alt_malloc_lock.o)
 .debug_abbrev  0x00007fad      0x2aa ../socket_simples_bsp/\libucosii_bsp.a(os_core.o)
 .debug_abbrev  0x00008257      0x114 ../socket_simples_bsp/\libucosii_bsp.a(os_dbg.o)
 .debug_abbrev  0x0000836b      0x21b ../socket_simples_bsp/\libucosii_bsp.a(os_flag.o)
 .debug_abbrev  0x00008586      0x235 ../socket_simples_bsp/\libucosii_bsp.a(os_mem.o)
 .debug_abbrev  0x000087bb      0x20d ../socket_simples_bsp/\libucosii_bsp.a(os_q.o)
 .debug_abbrev  0x000089c8      0x20d ../socket_simples_bsp/\libucosii_bsp.a(os_sem.o)
 .debug_abbrev  0x00008bd5      0x20e ../socket_simples_bsp/\libucosii_bsp.a(os_task.o)
 .debug_abbrev  0x00008de3      0x1de ../socket_simples_bsp/\libucosii_bsp.a(os_time.o)
 .debug_abbrev  0x00008fc1      0x1c8 ../socket_simples_bsp/\libucosii_bsp.a(alt_sys_init.o)
 .debug_abbrev  0x00009189      0x1bf ../socket_simples_bsp/\libucosii_bsp.a(altera_avalon_cfi_flash.o)
 .debug_abbrev  0x00009348      0x185 ../socket_simples_bsp/\libucosii_bsp.a(altera_avalon_cfi_flash_table.o)
 .debug_abbrev  0x000094cd      0x1bf ../socket_simples_bsp/\libucosii_bsp.a(altera_avalon_epcs_flash_controller.o)
 .debug_abbrev  0x0000968c      0x13c ../socket_simples_bsp/\libucosii_bsp.a(altera_avalon_jtag_uart_fd.o)
 .debug_abbrev  0x000097c8      0x21e ../socket_simples_bsp/\libucosii_bsp.a(altera_avalon_jtag_uart_init.o)
 .debug_abbrev  0x000099e6      0x135 ../socket_simples_bsp/\libucosii_bsp.a(altera_avalon_jtag_uart_ioctl.o)
 .debug_abbrev  0x00009b1b      0x1ee ../socket_simples_bsp/\libucosii_bsp.a(altera_avalon_jtag_uart_read.o)
 .debug_abbrev  0x00009d09      0x1ea ../socket_simples_bsp/\libucosii_bsp.a(altera_avalon_jtag_uart_write.o)
 .debug_abbrev  0x00009ef3      0x235 ../socket_simples_bsp/\libucosii_bsp.a(altera_avalon_lcd_16207.o)
 .debug_abbrev  0x0000a128      0x12f ../socket_simples_bsp/\libucosii_bsp.a(altera_avalon_lcd_16207_fd.o)
 .debug_abbrev  0x0000a257      0x137 ../socket_simples_bsp/\libucosii_bsp.a(altera_avalon_timer_sc.o)
 .debug_abbrev  0x0000a38e      0x124 ../socket_simples_bsp/\libucosii_bsp.a(altera_avalon_uart_fd.o)
 .debug_abbrev  0x0000a4b2      0x204 ../socket_simples_bsp/\libucosii_bsp.a(altera_avalon_uart_init.o)
 .debug_abbrev  0x0000a6b6      0x1b9 ../socket_simples_bsp/\libucosii_bsp.a(altera_avalon_uart_read.o)
 .debug_abbrev  0x0000a86f      0x1c0 ../socket_simples_bsp/\libucosii_bsp.a(altera_avalon_uart_write.o)
 .debug_abbrev  0x0000aa2f      0x145 ../socket_simples_bsp/\libucosii_bsp.a(epcs_commands.o)
 .debug_abbrev  0x0000ab74       0x77 ../socket_simples_bsp/\libucosii_bsp.a(alt_iniche_close.o)
 .debug_abbrev  0x0000abeb      0x11f ../socket_simples_bsp/\libucosii_bsp.a(alt_iniche_dev.o)
 .debug_abbrev  0x0000ad0a       0x7e ../socket_simples_bsp/\libucosii_bsp.a(alt_iniche_read.o)
 .debug_abbrev  0x0000ad88       0x85 ../socket_simples_bsp/\libucosii_bsp.a(alt_iniche_write.o)
 .debug_abbrev  0x0000ae0d      0x184 ../socket_simples_bsp/\libucosii_bsp.a(ipnet.o)
 .debug_abbrev  0x0000af91      0x18b ../socket_simples_bsp/\libucosii_bsp.a(ipstart.o)
 .debug_abbrev  0x0000b11c      0x191 ../socket_simples_bsp/\libucosii_bsp.a(igmp_cmn.o)
 .debug_abbrev  0x0000b2ad      0x1a3 ../socket_simples_bsp/\libucosii_bsp.a(bsdsock.o)
 .debug_abbrev  0x0000b450       0x96 ../socket_simples_bsp/\libucosii_bsp.a(cksum.o)
 .debug_abbrev  0x0000b4e6      0x18b ../socket_simples_bsp/\libucosii_bsp.a(in_utils.o)
 .debug_abbrev  0x0000b671      0x152 ../socket_simples_bsp/\libucosii_bsp.a(netmain.o)
 .debug_abbrev  0x0000b7c3      0x154 ../socket_simples_bsp/\libucosii_bsp.a(parseip.o)
 .debug_abbrev  0x0000b917      0x144 ../socket_simples_bsp/\libucosii_bsp.a(tk_crnos.o)
 .debug_abbrev  0x0000ba5b      0x217 ../socket_simples_bsp/\libucosii_bsp.a(dhcpclnt.o)
 .debug_abbrev  0x0000bc72       0x8f ../socket_simples_bsp/\libucosii_bsp.a(dhcputil.o)
 .debug_abbrev  0x0000bd01      0x196 ../socket_simples_bsp/\libucosii_bsp.a(pktalloc.o)
 .debug_abbrev  0x0000be97       0xcb ../socket_simples_bsp/\libucosii_bsp.a(q.o)
 .debug_abbrev  0x0000bf62      0x144 ../socket_simples_bsp/\libucosii_bsp.a(udp_open.o)
 .debug_abbrev  0x0000c0a6       0x14 ../socket_simples_bsp/\libucosii_bsp.a(asm_cksum.o)
 .debug_abbrev  0x0000c0ba      0x242 ../socket_simples_bsp/\libucosii_bsp.a(brdutils.o)
 .debug_abbrev  0x0000c2fc      0x194 ../socket_simples_bsp/\libucosii_bsp.a(osportco.o)
 .debug_abbrev  0x0000c490      0x199 ../socket_simples_bsp/\libucosii_bsp.a(targnios.o)
 .debug_abbrev  0x0000c629      0x1dc ../socket_simples_bsp/\libucosii_bsp.a(nptcp.o)
 .debug_abbrev  0x0000c805      0x136 ../socket_simples_bsp/\libucosii_bsp.a(rawsock.o)
 .debug_abbrev  0x0000c93b      0x1de ../socket_simples_bsp/\libucosii_bsp.a(sockcall.o)
 .debug_abbrev  0x0000cb19      0x1ef ../socket_simples_bsp/\libucosii_bsp.a(socket.o)
 .debug_abbrev  0x0000cd08      0x1ac ../socket_simples_bsp/\libucosii_bsp.a(socket2.o)
 .debug_abbrev  0x0000ceb4      0x17f ../socket_simples_bsp/\libucosii_bsp.a(soselect.o)
 .debug_abbrev  0x0000d033      0x1ca ../socket_simples_bsp/\libucosii_bsp.a(tcp_in.o)
 .debug_abbrev  0x0000d1fd      0x1a4 ../socket_simples_bsp/\libucosii_bsp.a(tcp_out.o)
 .debug_abbrev  0x0000d3a1      0x1c3 ../socket_simples_bsp/\libucosii_bsp.a(tcp_subr.o)
 .debug_abbrev  0x0000d564      0x19e ../socket_simples_bsp/\libucosii_bsp.a(tcp_timr.o)
 .debug_abbrev  0x0000d702      0x175 ../socket_simples_bsp/\libucosii_bsp.a(tcp_usr.o)
 .debug_abbrev  0x0000d877       0x77 ../socket_simples_bsp/\libucosii_bsp.a(tcpport.o)
 .debug_abbrev  0x0000d8ee      0x190 ../socket_simples_bsp/\libucosii_bsp.a(udpsock.o)
 .debug_abbrev  0x0000da7e      0x172 ../socket_simples_bsp/\libucosii_bsp.a(alt_alarm_start.o)
 .debug_abbrev  0x0000dbf0       0x6c ../socket_simples_bsp/\libucosii_bsp.a(alt_busy_sleep.o)
 .debug_abbrev  0x0000dc5c      0x102 ../socket_simples_bsp/\libucosii_bsp.a(alt_close.o)
 .debug_abbrev  0x0000dd5e       0x7a ../socket_simples_bsp/\libucosii_bsp.a(alt_dcache_flush.o)
 .debug_abbrev  0x0000ddd8      0x10a ../socket_simples_bsp/\libucosii_bsp.a(alt_dev.o)
 .debug_abbrev  0x0000dee2       0xf6 ../socket_simples_bsp/\libucosii_bsp.a(alt_dev_llist_insert.o)
 .debug_abbrev  0x0000dfd8       0x76 ../socket_simples_bsp/\libucosii_bsp.a(alt_do_ctors.o)
 .debug_abbrev  0x0000e04e       0x76 ../socket_simples_bsp/\libucosii_bsp.a(alt_do_dtors.o)
 .debug_abbrev  0x0000e0c4       0x5e ../socket_simples_bsp/\libucosii_bsp.a(alt_errno.o)
 .debug_abbrev  0x0000e122       0xd6 ../socket_simples_bsp/\libucosii_bsp.a(alt_find_dev.o)
 .debug_abbrev  0x0000e1f8      0x134 ../socket_simples_bsp/\libucosii_bsp.a(alt_iic.o)
 .debug_abbrev  0x0000e32c      0x14e ../socket_simples_bsp/\libucosii_bsp.a(alt_iic_isr_register.o)
 .debug_abbrev  0x0000e47a       0xf7 ../socket_simples_bsp/\libucosii_bsp.a(alt_io_redirect.o)
 .debug_abbrev  0x0000e571       0x12 ../socket_simples_bsp/\libucosii_bsp.a(alt_irq_entry.o)
 .debug_abbrev  0x0000e583      0x124 ../socket_simples_bsp/\libucosii_bsp.a(alt_irq_handler.o)
 .debug_abbrev  0x0000e6a7      0x119 ../socket_simples_bsp/\libucosii_bsp.a(alt_open.o)
 .debug_abbrev  0x0000e7c0      0x102 ../socket_simples_bsp/\libucosii_bsp.a(alt_read.o)
 .debug_abbrev  0x0000e8c2       0xd3 ../socket_simples_bsp/\libucosii_bsp.a(alt_release_fd.o)
 .debug_abbrev  0x0000e995       0x74 ../socket_simples_bsp/\libucosii_bsp.a(alt_remap_cached.o)
 .debug_abbrev  0x0000ea09       0x74 ../socket_simples_bsp/\libucosii_bsp.a(alt_remap_uncached.o)
 .debug_abbrev  0x0000ea7d      0x150 ../socket_simples_bsp/\libucosii_bsp.a(alt_tick.o)
 .debug_abbrev  0x0000ebcd      0x107 ../socket_simples_bsp/\libucosii_bsp.a(alt_write.o)
 .debug_abbrev  0x0000ecd4       0x3f ../socket_simples_bsp/\libucosii_bsp.a(altera_nios2_qsys_irq.o)
 .debug_abbrev  0x0000ed13       0x14 ../socket_simples_bsp/\libucosii_bsp.a(os_cpu_a.o)
 .debug_abbrev  0x0000ed27      0x1d0 ../socket_simples_bsp/\libucosii_bsp.a(os_cpu_c.o)
 .debug_abbrev  0x0000eef7      0x14d ../socket_simples_bsp/\libucosii_bsp.a(altera_avalon_cfi_flash_amd.o)
 .debug_abbrev  0x0000f044      0x14d ../socket_simples_bsp/\libucosii_bsp.a(altera_avalon_cfi_flash_intel.o)
 .debug_abbrev  0x0000f191       0x7c ../socket_simples_bsp/\libucosii_bsp.a(altera_avalon_spi.o)
 .debug_abbrev  0x0000f20d      0x173 ../socket_simples_bsp/\libucosii_bsp.a(allports.o)
 .debug_abbrev  0x0000f380      0x151 ../socket_simples_bsp/\libucosii_bsp.a(timeouts.o)
 .debug_abbrev  0x0000f4d1       0xa4 ../socket_simples_bsp/\libucosii_bsp.a(tk_misc.o)
 .debug_abbrev  0x0000f575       0x92 ../socket_simples_bsp/\libucosii_bsp.a(alt_iniche_fcntl.o)
 .debug_abbrev  0x0000f607      0x1eb ../socket_simples_bsp/\libucosii_bsp.a(et_arp.o)
 .debug_abbrev  0x0000f7f2      0x13d ../socket_simples_bsp/\libucosii_bsp.a(iface.o)
 .debug_abbrev  0x0000f92f      0x1ed ../socket_simples_bsp/\libucosii_bsp.a(ip.o)
 .debug_abbrev  0x0000fb1c      0x1ca ../socket_simples_bsp/\libucosii_bsp.a(ip_reasm.o)
 .debug_abbrev  0x0000fce6      0x166 ../socket_simples_bsp/\libucosii_bsp.a(ipdemux.o)
 .debug_abbrev  0x0000fe4c      0x114 ../socket_simples_bsp/\libucosii_bsp.a(ipmc.o)
 .debug_abbrev  0x0000ff60       0xe9 ../socket_simples_bsp/\libucosii_bsp.a(ipport.o)
 .debug_abbrev  0x00010049      0x19c ../socket_simples_bsp/\libucosii_bsp.a(ipraw.o)
 .debug_abbrev  0x000101e5      0x156 ../socket_simples_bsp/\libucosii_bsp.a(iproute.o)
 .debug_abbrev  0x0001033b      0x1c0 ../socket_simples_bsp/\libucosii_bsp.a(udp.o)
 .debug_abbrev  0x000104fb      0x10e ../socket_simples_bsp/\libucosii_bsp.a(igmp.o)
 .debug_abbrev  0x00010609      0x17a ../socket_simples_bsp/\libucosii_bsp.a(igmp2.o)
 .debug_abbrev  0x00010783      0x189 ../socket_simples_bsp/\libucosii_bsp.a(ipopt.o)
 .debug_abbrev  0x0001090c      0x15a ../socket_simples_bsp/\libucosii_bsp.a(u_mctest.o)
 .debug_abbrev  0x00010a66      0x12e ../socket_simples_bsp/\libucosii_bsp.a(dhcsetup.o)
 .debug_abbrev  0x00010b94      0x175 ../socket_simples_bsp/\libucosii_bsp.a(memdev.o)
 .debug_abbrev  0x00010d09       0xad ../socket_simples_bsp/\libucosii_bsp.a(tcpcksum.o)
 .debug_abbrev  0x00010db6      0x19f ../socket_simples_bsp/\libucosii_bsp.a(in_pcb.o)
 .debug_abbrev  0x00010f55      0x1b6 ../socket_simples_bsp/\libucosii_bsp.a(vfsfiles.o)
 .debug_abbrev  0x0001110b       0x77 ../socket_simples_bsp/\libucosii_bsp.a(vfsport.o)
 .debug_abbrev  0x00011182       0x12 ../socket_simples_bsp/\libucosii_bsp.a(alt_exception_entry.o)
 .debug_abbrev  0x00011194      0x107 ../socket_simples_bsp/\libucosii_bsp.a(alt_fcntl.o)
 .debug_abbrev  0x0001129b       0xd6 ../socket_simples_bsp/\libucosii_bsp.a(alt_find_file.o)
 .debug_abbrev  0x00011371      0x173 ../socket_simples_bsp/\libucosii_bsp.a(alt_get_fd.o)
 .debug_abbrev  0x000114e4      0x15d ../socket_simples_bsp/\libucosii_bsp.a(icmp.o)
 .debug_abbrev  0x00011641       0xb7 c:/altera/13.0/nios2eds/bin/gnu/h-i686-mingw32/bin/../lib/gcc/nios2-elf/4.1.2/../../../../nios2-elf/lib\libc.a(lib_a-atexit.o)
 .debug_abbrev  0x000116f8      0x176 c:/altera/13.0/nios2eds/bin/gnu/h-i686-mingw32/bin/../lib/gcc/nios2-elf/4.1.2/../../../../nios2-elf/lib\libc.a(lib_a-atoi.o)
 .debug_abbrev  0x0001186e      0x17f c:/altera/13.0/nios2eds/bin/gnu/h-i686-mingw32/bin/../lib/gcc/nios2-elf/4.1.2/../../../../nios2-elf/lib\libc.a(lib_a-calloc.o)
 .debug_abbrev  0x000119ed      0x187 c:/altera/13.0/nios2eds/bin/gnu/h-i686-mingw32/bin/../lib/gcc/nios2-elf/4.1.2/../../../../nios2-elf/lib\libc.a(lib_a-malloc.o)
 .debug_abbrev  0x00011b74       0x7c c:/altera/13.0/nios2eds/bin/gnu/h-i686-mingw32/bin/../lib/gcc/nios2-elf/4.1.2/../../../../nios2-elf/lib\libc.a(lib_a-memcmp.o)
 .debug_abbrev  0x00011bf0      0x191 c:/altera/13.0/nios2eds/bin/gnu/h-i686-mingw32/bin/../lib/gcc/nios2-elf/4.1.2/../../../../nios2-elf/lib\libc.a(lib_a-sprintf.o)
 .debug_abbrev  0x00011d81       0x8f c:/altera/13.0/nios2eds/bin/gnu/h-i686-mingw32/bin/../lib/gcc/nios2-elf/4.1.2/../../../../nios2-elf/lib\libc.a(lib_a-strcpy.o)
 .debug_abbrev  0x00011e10       0x8d c:/altera/13.0/nios2eds/bin/gnu/h-i686-mingw32/bin/../lib/gcc/nios2-elf/4.1.2/../../../../nios2-elf/lib\libc.a(lib_a-strncmp.o)
 .debug_abbrev  0x00011e9d       0x9c c:/altera/13.0/nios2eds/bin/gnu/h-i686-mingw32/bin/../lib/gcc/nios2-elf/4.1.2/../../../../nios2-elf/lib\libc.a(lib_a-strncpy.o)
 .debug_abbrev  0x00011f39      0x1c7 c:/altera/13.0/nios2eds/bin/gnu/h-i686-mingw32/bin/../lib/gcc/nios2-elf/4.1.2/../../../../nios2-elf/lib\libc.a(lib_a-strtol.o)
 .debug_abbrev  0x00012100      0x170 c:/altera/13.0/nios2eds/bin/gnu/h-i686-mingw32/bin/../lib/gcc/nios2-elf/4.1.2/../../../../nios2-elf/lib\libc.a(lib_a-vprintf.o)
 .debug_abbrev  0x00012270      0x1a5 c:/altera/13.0/nios2eds/bin/gnu/h-i686-mingw32/bin/../lib/gcc/nios2-elf/4.1.2/../../../../nios2-elf/lib\libc.a(lib_a-vsprintf.o)
 .debug_abbrev  0x00012415      0x1ae c:/altera/13.0/nios2eds/bin/gnu/h-i686-mingw32/bin/../lib/gcc/nios2-elf/4.1.2/../../../../nios2-elf/lib\libc.a(lib_a-__atexit.o)

.debug_line     0x00000000    0x41b61
 *(.debug_line)
 .debug_line    0x00000000       0x57 ../socket_simples_bsp//obj/HAL/src/crt0.o
 .debug_line    0x00000057      0x343 obj/default/LCD.o
 .debug_line    0x0000039a      0x517 obj/default/SSS_DE2_115.o
 .debug_line    0x000008b1      0x716 obj/default/alt_error_handler.o
 .debug_line    0x00000fc7      0xacf obj/default/dm9000a.o
 .debug_line    0x00001a96      0x688 obj/default/iniche_init.o
 .debug_line    0x0000211e      0x416 obj/default/led.o
 .debug_line    0x00002534      0x7de obj/default/network_utilities.o
 .debug_line    0x00002d12      0x798 obj/default/simple_socket_server.o
 .debug_line    0x000034aa       0x24 obj/default/tse_my_system.o
 .debug_line    0x000034ce       0xff c:/altera/13.0/nios2eds/bin/gnu/h-i686-mingw32/bin/../lib/gcc/nios2-elf/4.1.2\libgcc.a(_fixunsdfsi.o)
 .debug_line    0x000035cd      0x430 c:/altera/13.0/nios2eds/bin/gnu/h-i686-mingw32/bin/../lib/gcc/nios2-elf/4.1.2\libgcc.a(_addsub_df.o)
 .debug_line    0x000039fd      0x3e5 c:/altera/13.0/nios2eds/bin/gnu/h-i686-mingw32/bin/../lib/gcc/nios2-elf/4.1.2\libgcc.a(_mul_df.o)
 .debug_line    0x00003de2      0x129 c:/altera/13.0/nios2eds/bin/gnu/h-i686-mingw32/bin/../lib/gcc/nios2-elf/4.1.2\libgcc.a(_ge_df.o)
 .debug_line    0x00003f0b      0x149 c:/altera/13.0/nios2eds/bin/gnu/h-i686-mingw32/bin/../lib/gcc/nios2-elf/4.1.2\libgcc.a(_df_to_si.o)
 .debug_line    0x00004054       0x94 c:/altera/13.0/nios2eds/bin/gnu/h-i686-mingw32/bin/../lib/gcc/nios2-elf/4.1.2\libgcc.a(_thenan_df.o)
 .debug_line    0x000040e8      0x189 c:/altera/13.0/nios2eds/bin/gnu/h-i686-mingw32/bin/../lib/gcc/nios2-elf/4.1.2\libgcc.a(_usi_to_df.o)
 .debug_line    0x00004271      0x11f c:/altera/13.0/nios2eds/bin/gnu/h-i686-mingw32/bin/../lib/gcc/nios2-elf/4.1.2\libgcc.a(_muldi3.o)
 .debug_line    0x00004390      0x105 c:/altera/13.0/nios2eds/bin/gnu/h-i686-mingw32/bin/../lib/gcc/nios2-elf/4.1.2\libgcc.a(_clzsi2.o)
 .debug_line    0x00004495      0x222 c:/altera/13.0/nios2eds/bin/gnu/h-i686-mingw32/bin/../lib/gcc/nios2-elf/4.1.2\libgcc.a(_pack_df.o)
 .debug_line    0x000046b7      0x1e4 c:/altera/13.0/nios2eds/bin/gnu/h-i686-mingw32/bin/../lib/gcc/nios2-elf/4.1.2\libgcc.a(_unpack_df.o)
 .debug_line    0x0000489b      0x187 c:/altera/13.0/nios2eds/bin/gnu/h-i686-mingw32/bin/../lib/gcc/nios2-elf/4.1.2\libgcc.a(_fpcmp_parts_df.o)
 .debug_line    0x00004a22       0xaa c:/altera/13.0/nios2eds/bin/gnu/h-i686-mingw32/bin/../lib/gcc/nios2-elf/4.1.2\libgcc.a(_clz.o)
 .debug_line    0x00004acc       0x7e c:/altera/13.0/nios2eds/bin/gnu/h-i686-mingw32/bin/../lib/gcc/nios2-elf/4.1.2/../../../../nios2-elf/lib\libc.a(lib_a-ctype_.o)
 .debug_line    0x00004b4a      0x232 c:/altera/13.0/nios2eds/bin/gnu/h-i686-mingw32/bin/../lib/gcc/nios2-elf/4.1.2/../../../../nios2-elf/lib\libc.a(lib_a-exit.o)
 .debug_line    0x00004d7c      0x27e c:/altera/13.0/nios2eds/bin/gnu/h-i686-mingw32/bin/../lib/gcc/nios2-elf/4.1.2/../../../../nios2-elf/lib\libc.a(lib_a-fprintf.o)
 .debug_line    0x00004ffa      0x2d3 c:/altera/13.0/nios2eds/bin/gnu/h-i686-mingw32/bin/../lib/gcc/nios2-elf/4.1.2/../../../../nios2-elf/lib\libc.a(lib_a-fwrite.o)
 .debug_line    0x000052cd      0x29e c:/altera/13.0/nios2eds/bin/gnu/h-i686-mingw32/bin/../lib/gcc/nios2-elf/4.1.2/../../../../nios2-elf/lib\libc.a(lib_a-getc.o)
 .debug_line    0x0000556b      0x224 c:/altera/13.0/nios2eds/bin/gnu/h-i686-mingw32/bin/../lib/gcc/nios2-elf/4.1.2/../../../../nios2-elf/lib\libc.a(lib_a-impure.o)
 .debug_line    0x0000578f      0x1a9 c:/altera/13.0/nios2eds/bin/gnu/h-i686-mingw32/bin/../lib/gcc/nios2-elf/4.1.2/../../../../nios2-elf/lib\libc.a(lib_a-memcpy.o)
 .debug_line    0x00005938      0x301 c:/altera/13.0/nios2eds/bin/gnu/h-i686-mingw32/bin/../lib/gcc/nios2-elf/4.1.2/../../../../nios2-elf/lib\libc.a(lib_a-memmove.o)
 .debug_line    0x00005c39      0x2f8 c:/altera/13.0/nios2eds/bin/gnu/h-i686-mingw32/bin/../lib/gcc/nios2-elf/4.1.2/../../../../nios2-elf/lib\libc.a(lib_a-memset.o)
 .debug_line    0x00005f31      0x29e c:/altera/13.0/nios2eds/bin/gnu/h-i686-mingw32/bin/../lib/gcc/nios2-elf/4.1.2/../../../../nios2-elf/lib\libc.a(lib_a-perror.o)
 .debug_line    0x000061cf      0x295 c:/altera/13.0/nios2eds/bin/gnu/h-i686-mingw32/bin/../lib/gcc/nios2-elf/4.1.2/../../../../nios2-elf/lib\libc.a(lib_a-printf.o)
 .debug_line    0x00006464      0x2be c:/altera/13.0/nios2eds/bin/gnu/h-i686-mingw32/bin/../lib/gcc/nios2-elf/4.1.2/../../../../nios2-elf/lib\libc.a(lib_a-putc.o)
 .debug_line    0x00006722      0x25e c:/altera/13.0/nios2eds/bin/gnu/h-i686-mingw32/bin/../lib/gcc/nios2-elf/4.1.2/../../../../nios2-elf/lib\libc.a(lib_a-putchar.o)
 .debug_line    0x00006980      0x2f1 c:/altera/13.0/nios2eds/bin/gnu/h-i686-mingw32/bin/../lib/gcc/nios2-elf/4.1.2/../../../../nios2-elf/lib\libc.a(lib_a-puts.o)
 .debug_line    0x00006c71      0x287 c:/altera/13.0/nios2eds/bin/gnu/h-i686-mingw32/bin/../lib/gcc/nios2-elf/4.1.2/../../../../nios2-elf/lib\libc.a(lib_a-rget.o)
 .debug_line    0x00006ef8      0x2be c:/altera/13.0/nios2eds/bin/gnu/h-i686-mingw32/bin/../lib/gcc/nios2-elf/4.1.2/../../../../nios2-elf/lib\libc.a(lib_a-strchr.o)
 .debug_line    0x000071b6      0x4db c:/altera/13.0/nios2eds/bin/gnu/h-i686-mingw32/bin/../lib/gcc/nios2-elf/4.1.2/../../../../nios2-elf/lib\libc.a(lib_a-strerror.o)
 .debug_line    0x00007691      0x264 c:/altera/13.0/nios2eds/bin/gnu/h-i686-mingw32/bin/../lib/gcc/nios2-elf/4.1.2/../../../../nios2-elf/lib\libc.a(lib_a-strlen.o)
 .debug_line    0x000078f5       0x91 c:/altera/13.0/nios2eds/bin/gnu/h-i686-mingw32/bin/../lib/gcc/nios2-elf/4.1.2/../../../../nios2-elf/lib\libc.a(lib_a-u_strerr.o)
 .debug_line    0x00007986     0x1106 c:/altera/13.0/nios2eds/bin/gnu/h-i686-mingw32/bin/../lib/gcc/nios2-elf/4.1.2/../../../../nios2-elf/lib\libc.a(lib_a-vfprintf.o)
 .debug_line    0x00008a8c      0x34a c:/altera/13.0/nios2eds/bin/gnu/h-i686-mingw32/bin/../lib/gcc/nios2-elf/4.1.2/../../../../nios2-elf/lib\libc.a(lib_a-wbuf.o)
 .debug_line    0x00008dd6      0x2ea c:/altera/13.0/nios2eds/bin/gnu/h-i686-mingw32/bin/../lib/gcc/nios2-elf/4.1.2/../../../../nios2-elf/lib\libc.a(lib_a-wsetup.o)
 .debug_line    0x000090c0      0x361 c:/altera/13.0/nios2eds/bin/gnu/h-i686-mingw32/bin/../lib/gcc/nios2-elf/4.1.2/../../../../nios2-elf/lib\libc.a(lib_a-__call_atexit.o)
 .debug_line    0x00009421     0x12c0 c:/altera/13.0/nios2eds/bin/gnu/h-i686-mingw32/bin/../lib/gcc/nios2-elf/4.1.2/../../../../nios2-elf/lib\libc.a(lib_a-dtoa.o)
 .debug_line    0x0000a6e1      0x407 c:/altera/13.0/nios2eds/bin/gnu/h-i686-mingw32/bin/../lib/gcc/nios2-elf/4.1.2/../../../../nios2-elf/lib\libc.a(lib_a-fflush.o)
 .debug_line    0x0000aae8      0x5fb c:/altera/13.0/nios2eds/bin/gnu/h-i686-mingw32/bin/../lib/gcc/nios2-elf/4.1.2/../../../../nios2-elf/lib\libc.a(lib_a-findfp.o)
 .debug_line    0x0000b0e3      0x27f c:/altera/13.0/nios2eds/bin/gnu/h-i686-mingw32/bin/../lib/gcc/nios2-elf/4.1.2/../../../../nios2-elf/lib\libc.a(lib_a-fputc.o)
 .debug_line    0x0000b362      0x2c2 c:/altera/13.0/nios2eds/bin/gnu/h-i686-mingw32/bin/../lib/gcc/nios2-elf/4.1.2/../../../../nios2-elf/lib\libc.a(lib_a-fputs.o)
 .debug_line    0x0000b624      0x5e5 c:/altera/13.0/nios2eds/bin/gnu/h-i686-mingw32/bin/../lib/gcc/nios2-elf/4.1.2/../../../../nios2-elf/lib\libc.a(lib_a-freer.o)
 .debug_line    0x0000bc09      0x63b c:/altera/13.0/nios2eds/bin/gnu/h-i686-mingw32/bin/../lib/gcc/nios2-elf/4.1.2/../../../../nios2-elf/lib\libc.a(lib_a-fvwrite.o)
 .debug_line    0x0000c244      0x344 c:/altera/13.0/nios2eds/bin/gnu/h-i686-mingw32/bin/../lib/gcc/nios2-elf/4.1.2/../../../../nios2-elf/lib\libc.a(lib_a-fwalk.o)
 .debug_line    0x0000c588      0x2c2 c:/altera/13.0/nios2eds/bin/gnu/h-i686-mingw32/bin/../lib/gcc/nios2-elf/4.1.2/../../../../nios2-elf/lib\libc.a(lib_a-locale.o)
 .debug_line    0x0000c84a      0x3bd c:/altera/13.0/nios2eds/bin/gnu/h-i686-mingw32/bin/../lib/gcc/nios2-elf/4.1.2/../../../../nios2-elf/lib\libc.a(lib_a-makebuf.o)
 .debug_line    0x0000cc07      0x804 c:/altera/13.0/nios2eds/bin/gnu/h-i686-mingw32/bin/../lib/gcc/nios2-elf/4.1.2/../../../../nios2-elf/lib\libc.a(lib_a-mallocr.o)
 .debug_line    0x0000d40b      0x2fa c:/altera/13.0/nios2eds/bin/gnu/h-i686-mingw32/bin/../lib/gcc/nios2-elf/4.1.2/../../../../nios2-elf/lib\libc.a(lib_a-memchr.o)
 .debug_line    0x0000d705     0x123d c:/altera/13.0/nios2eds/bin/gnu/h-i686-mingw32/bin/../lib/gcc/nios2-elf/4.1.2/../../../../nios2-elf/lib\libc.a(lib_a-mprec.o)
 .debug_line    0x0000e942      0x584 c:/altera/13.0/nios2eds/bin/gnu/h-i686-mingw32/bin/../lib/gcc/nios2-elf/4.1.2/../../../../nios2-elf/lib\libc.a(lib_a-reallocr.o)
 .debug_line    0x0000eec6      0x3be c:/altera/13.0/nios2eds/bin/gnu/h-i686-mingw32/bin/../lib/gcc/nios2-elf/4.1.2/../../../../nios2-elf/lib\libc.a(lib_a-refill.o)
 .debug_line    0x0000f284      0x21c c:/altera/13.0/nios2eds/bin/gnu/h-i686-mingw32/bin/../lib/gcc/nios2-elf/4.1.2/../../../../nios2-elf/lib\libc.a(lib_a-s_isinfd.o)
 .debug_line    0x0000f4a0      0x214 c:/altera/13.0/nios2eds/bin/gnu/h-i686-mingw32/bin/../lib/gcc/nios2-elf/4.1.2/../../../../nios2-elf/lib\libc.a(lib_a-s_isnand.o)
 .debug_line    0x0000f6b4      0x290 c:/altera/13.0/nios2eds/bin/gnu/h-i686-mingw32/bin/../lib/gcc/nios2-elf/4.1.2/../../../../nios2-elf/lib\libc.a(lib_a-sbrkr.o)
 .debug_line    0x0000f944      0x386 c:/altera/13.0/nios2eds/bin/gnu/h-i686-mingw32/bin/../lib/gcc/nios2-elf/4.1.2/../../../../nios2-elf/lib\libc.a(lib_a-stdio.o)
 .debug_line    0x0000fcca      0x2cc c:/altera/13.0/nios2eds/bin/gnu/h-i686-mingw32/bin/../lib/gcc/nios2-elf/4.1.2/../../../../nios2-elf/lib\libc.a(lib_a-strcmp.o)
 .debug_line    0x0000ff96      0x291 c:/altera/13.0/nios2eds/bin/gnu/h-i686-mingw32/bin/../lib/gcc/nios2-elf/4.1.2/../../../../nios2-elf/lib\libc.a(lib_a-writer.o)
 .debug_line    0x00010227      0x256 c:/altera/13.0/nios2eds/bin/gnu/h-i686-mingw32/bin/../lib/gcc/nios2-elf/4.1.2/../../../../nios2-elf/lib\libc.a(lib_a-callocr.o)
 .debug_line    0x0001047d      0x291 c:/altera/13.0/nios2eds/bin/gnu/h-i686-mingw32/bin/../lib/gcc/nios2-elf/4.1.2/../../../../nios2-elf/lib\libc.a(lib_a-closer.o)
 .debug_line    0x0001070e      0x2e2 c:/altera/13.0/nios2eds/bin/gnu/h-i686-mingw32/bin/../lib/gcc/nios2-elf/4.1.2/../../../../nios2-elf/lib\libc.a(lib_a-fclose.o)
 .debug_line    0x000109f0      0x25e c:/altera/13.0/nios2eds/bin/gnu/h-i686-mingw32/bin/../lib/gcc/nios2-elf/4.1.2/../../../../nios2-elf/lib\libc.a(lib_a-fstatr.o)
 .debug_line    0x00010c4e      0x1d9 c:/altera/13.0/nios2eds/bin/gnu/h-i686-mingw32/bin/../lib/gcc/nios2-elf/4.1.2/../../../../nios2-elf/lib\libc.a(lib_a-int_errno.o)
 .debug_line    0x00010e27      0x292 c:/altera/13.0/nios2eds/bin/gnu/h-i686-mingw32/bin/../lib/gcc/nios2-elf/4.1.2/../../../../nios2-elf/lib\libc.a(lib_a-isattyr.o)
 .debug_line    0x000110b9      0x291 c:/altera/13.0/nios2eds/bin/gnu/h-i686-mingw32/bin/../lib/gcc/nios2-elf/4.1.2/../../../../nios2-elf/lib\libc.a(lib_a-lseekr.o)
 .debug_line    0x0001134a      0x290 c:/altera/13.0/nios2eds/bin/gnu/h-i686-mingw32/bin/../lib/gcc/nios2-elf/4.1.2/../../../../nios2-elf/lib\libc.a(lib_a-readr.o)
 .debug_line    0x000115da      0x2f2 c:/altera/13.0/nios2eds/bin/gnu/h-i686-mingw32/bin/../lib/gcc/nios2-elf/4.1.2\libgcc.a(_udivdi3.o)
 .debug_line    0x000118cc      0x37d c:/altera/13.0/nios2eds/bin/gnu/h-i686-mingw32/bin/../lib/gcc/nios2-elf/4.1.2\libgcc.a(_umoddi3.o)
 .debug_line    0x00011c49      0x301 c:/altera/13.0/nios2eds/bin/gnu/h-i686-mingw32/bin/../lib/gcc/nios2-elf/4.1.2\libgcc.a(_div_df.o)
 .debug_line    0x00011f4a      0x129 c:/altera/13.0/nios2eds/bin/gnu/h-i686-mingw32/bin/../lib/gcc/nios2-elf/4.1.2\libgcc.a(_eq_df.o)
 .debug_line    0x00012073      0x129 c:/altera/13.0/nios2eds/bin/gnu/h-i686-mingw32/bin/../lib/gcc/nios2-elf/4.1.2\libgcc.a(_ne_df.o)
 .debug_line    0x0001219c      0x129 c:/altera/13.0/nios2eds/bin/gnu/h-i686-mingw32/bin/../lib/gcc/nios2-elf/4.1.2\libgcc.a(_gt_df.o)
 .debug_line    0x000122c5      0x129 c:/altera/13.0/nios2eds/bin/gnu/h-i686-mingw32/bin/../lib/gcc/nios2-elf/4.1.2\libgcc.a(_lt_df.o)
 .debug_line    0x000123ee      0x175 c:/altera/13.0/nios2eds/bin/gnu/h-i686-mingw32/bin/../lib/gcc/nios2-elf/4.1.2\libgcc.a(_si_to_df.o)
 .debug_line    0x00012563      0x24f c:/altera/13.0/nios2eds/bin/gnu/h-i686-mingw32/bin/../lib/gcc/nios2-elf/4.1.2\libgcc.a(lib2-divmod.o)
 .debug_line    0x000127b2      0x270 ../socket_simples_bsp/\libucosii_bsp.a(alt_exit.o)
 .debug_line    0x00012a22      0x2c2 ../socket_simples_bsp/\libucosii_bsp.a(alt_flash_dev.o)
 .debug_line    0x00012ce4      0x2fb ../socket_simples_bsp/\libucosii_bsp.a(alt_fstat.o)
 .debug_line    0x00012fdf      0x367 ../socket_simples_bsp/\libucosii_bsp.a(alt_irq_register.o)
 .debug_line    0x00013346       0x72 ../socket_simples_bsp/\libucosii_bsp.a(alt_irq_vars.o)
 .debug_line    0x000133b8      0x2fc ../socket_simples_bsp/\libucosii_bsp.a(alt_isatty.o)
 .debug_line    0x000136b4      0x2fb ../socket_simples_bsp/\libucosii_bsp.a(alt_lseek.o)
 .debug_line    0x000139af      0x343 ../socket_simples_bsp/\libucosii_bsp.a(alt_main.o)
 .debug_line    0x00013cf2      0x25b ../socket_simples_bsp/\libucosii_bsp.a(alt_sbrk.o)
 .debug_line    0x00013f4d      0x2a7 ../socket_simples_bsp/\libucosii_bsp.a(alt_usleep.o)
 .debug_line    0x000141f4      0x2b9 ../socket_simples_bsp/\libucosii_bsp.a(alt_env_lock.o)
 .debug_line    0x000144ad      0x375 ../socket_simples_bsp/\libucosii_bsp.a(alt_malloc_lock.o)
 .debug_line    0x00014822     0x165d ../socket_simples_bsp/\libucosii_bsp.a(os_core.o)
 .debug_line    0x00015e7f      0x382 ../socket_simples_bsp/\libucosii_bsp.a(os_dbg.o)
 .debug_line    0x00016201     0x11e1 ../socket_simples_bsp/\libucosii_bsp.a(os_flag.o)
 .debug_line    0x000173e2      0x784 ../socket_simples_bsp/\libucosii_bsp.a(os_mem.o)
 .debug_line    0x00017b66      0xe65 ../socket_simples_bsp/\libucosii_bsp.a(os_q.o)
 .debug_line    0x000189cb      0xa1d ../socket_simples_bsp/\libucosii_bsp.a(os_sem.o)
 .debug_line    0x000193e8     0x1126 ../socket_simples_bsp/\libucosii_bsp.a(os_task.o)
 .debug_line    0x0001a50e      0x529 ../socket_simples_bsp/\libucosii_bsp.a(os_time.o)
 .debug_line    0x0001aa37      0x3fe ../socket_simples_bsp/\libucosii_bsp.a(alt_sys_init.o)
 .debug_line    0x0001ae35      0x56d ../socket_simples_bsp/\libucosii_bsp.a(altera_avalon_cfi_flash.o)
 .debug_line    0x0001b3a2      0x973 ../socket_simples_bsp/\libucosii_bsp.a(altera_avalon_cfi_flash_table.o)
 .debug_line    0x0001bd15      0x6e9 ../socket_simples_bsp/\libucosii_bsp.a(altera_avalon_epcs_flash_controller.o)
 .debug_line    0x0001c3fe      0x313 ../socket_simples_bsp/\libucosii_bsp.a(altera_avalon_jtag_uart_fd.o)
 .debug_line    0x0001c711      0x592 ../socket_simples_bsp/\libucosii_bsp.a(altera_avalon_jtag_uart_init.o)
 .debug_line    0x0001cca3      0x350 ../socket_simples_bsp/\libucosii_bsp.a(altera_avalon_jtag_uart_ioctl.o)
 .debug_line    0x0001cff3      0x48e ../socket_simples_bsp/\libucosii_bsp.a(altera_avalon_jtag_uart_read.o)
 .debug_line    0x0001d481      0x49c ../socket_simples_bsp/\libucosii_bsp.a(altera_avalon_jtag_uart_write.o)
 .debug_line    0x0001d91d      0x93a ../socket_simples_bsp/\libucosii_bsp.a(altera_avalon_lcd_16207.o)
 .debug_line    0x0001e257      0x2b3 ../socket_simples_bsp/\libucosii_bsp.a(altera_avalon_lcd_16207_fd.o)
 .debug_line    0x0001e50a      0x2ad ../socket_simples_bsp/\libucosii_bsp.a(altera_avalon_timer_sc.o)
 .debug_line    0x0001e7b7      0x2f1 ../socket_simples_bsp/\libucosii_bsp.a(altera_avalon_uart_fd.o)
 .debug_line    0x0001eaa8      0x561 ../socket_simples_bsp/\libucosii_bsp.a(altera_avalon_uart_init.o)
 .debug_line    0x0001f009      0x4ad ../socket_simples_bsp/\libucosii_bsp.a(altera_avalon_uart_read.o)
 .debug_line    0x0001f4b6      0x48f ../socket_simples_bsp/\libucosii_bsp.a(altera_avalon_uart_write.o)
 .debug_line    0x0001f945      0x405 ../socket_simples_bsp/\libucosii_bsp.a(epcs_commands.o)
 .debug_line    0x0001fd4a      0x341 ../socket_simples_bsp/\libucosii_bsp.a(alt_iniche_close.o)
 .debug_line    0x0002008b      0x3e4 ../socket_simples_bsp/\libucosii_bsp.a(alt_iniche_dev.o)
 .debug_line    0x0002046f      0x340 ../socket_simples_bsp/\libucosii_bsp.a(alt_iniche_read.o)
 .debug_line    0x000207af      0x351 ../socket_simples_bsp/\libucosii_bsp.a(alt_iniche_write.o)
 .debug_line    0x00020b00      0x7a0 ../socket_simples_bsp/\libucosii_bsp.a(ipnet.o)
 .debug_line    0x000212a0      0x4e1 ../socket_simples_bsp/\libucosii_bsp.a(ipstart.o)
 .debug_line    0x00021781      0x916 ../socket_simples_bsp/\libucosii_bsp.a(igmp_cmn.o)
 .debug_line    0x00022097      0x6c1 ../socket_simples_bsp/\libucosii_bsp.a(bsdsock.o)
 .debug_line    0x00022758      0x304 ../socket_simples_bsp/\libucosii_bsp.a(cksum.o)
 .debug_line    0x00022a5c      0x7a3 ../socket_simples_bsp/\libucosii_bsp.a(in_utils.o)
 .debug_line    0x000231ff      0x439 ../socket_simples_bsp/\libucosii_bsp.a(netmain.o)
 .debug_line    0x00023638      0x647 ../socket_simples_bsp/\libucosii_bsp.a(parseip.o)
 .debug_line    0x00023c7f      0x5a2 ../socket_simples_bsp/\libucosii_bsp.a(tk_crnos.o)
 .debug_line    0x00024221     0x1063 ../socket_simples_bsp/\libucosii_bsp.a(dhcpclnt.o)
 .debug_line    0x00025284      0x2f9 ../socket_simples_bsp/\libucosii_bsp.a(dhcputil.o)
 .debug_line    0x0002557d      0x643 ../socket_simples_bsp/\libucosii_bsp.a(pktalloc.o)
 .debug_line    0x00025bc0      0x3d5 ../socket_simples_bsp/\libucosii_bsp.a(q.o)
 .debug_line    0x00025f95      0x468 ../socket_simples_bsp/\libucosii_bsp.a(udp_open.o)
 .debug_line    0x000263fd       0xaf ../socket_simples_bsp/\libucosii_bsp.a(asm_cksum.o)
 .debug_line    0x000264ac      0x46c ../socket_simples_bsp/\libucosii_bsp.a(brdutils.o)
 .debug_line    0x00026918      0x4f9 ../socket_simples_bsp/\libucosii_bsp.a(osportco.o)
 .debug_line    0x00026e11      0x638 ../socket_simples_bsp/\libucosii_bsp.a(targnios.o)
 .debug_line    0x00027449      0xf1d ../socket_simples_bsp/\libucosii_bsp.a(nptcp.o)
 .debug_line    0x00028366      0x842 ../socket_simples_bsp/\libucosii_bsp.a(rawsock.o)
 .debug_line    0x00028ba8      0xe30 ../socket_simples_bsp/\libucosii_bsp.a(sockcall.o)
 .debug_line    0x000299d8     0x12b2 ../socket_simples_bsp/\libucosii_bsp.a(socket.o)
 .debug_line    0x0002ac8a      0xbe6 ../socket_simples_bsp/\libucosii_bsp.a(socket2.o)
 .debug_line    0x0002b870      0x727 ../socket_simples_bsp/\libucosii_bsp.a(soselect.o)
 .debug_line    0x0002bf97     0x15e8 ../socket_simples_bsp/\libucosii_bsp.a(tcp_in.o)
 .debug_line    0x0002d57f      0xa53 ../socket_simples_bsp/\libucosii_bsp.a(tcp_out.o)
 .debug_line    0x0002dfd2      0x7bd ../socket_simples_bsp/\libucosii_bsp.a(tcp_subr.o)
 .debug_line    0x0002e78f      0x60d ../socket_simples_bsp/\libucosii_bsp.a(tcp_timr.o)
 .debug_line    0x0002ed9c      0x89c ../socket_simples_bsp/\libucosii_bsp.a(tcp_usr.o)
 .debug_line    0x0002f638      0x339 ../socket_simples_bsp/\libucosii_bsp.a(tcpport.o)
 .debug_line    0x0002f971      0x953 ../socket_simples_bsp/\libucosii_bsp.a(udpsock.o)
 .debug_line    0x000302c4      0x2d6 ../socket_simples_bsp/\libucosii_bsp.a(alt_alarm_start.o)
 .debug_line    0x0003059a      0x253 ../socket_simples_bsp/\libucosii_bsp.a(alt_busy_sleep.o)
 .debug_line    0x000307ed      0x2f3 ../socket_simples_bsp/\libucosii_bsp.a(alt_close.o)
 .debug_line    0x00030ae0      0x1db ../socket_simples_bsp/\libucosii_bsp.a(alt_dcache_flush.o)
 .debug_line    0x00030cbb      0x2b4 ../socket_simples_bsp/\libucosii_bsp.a(alt_dev.o)
 .debug_line    0x00030f6f      0x254 ../socket_simples_bsp/\libucosii_bsp.a(alt_dev_llist_insert.o)
 .debug_line    0x000311c3       0x83 ../socket_simples_bsp/\libucosii_bsp.a(alt_do_ctors.o)
 .debug_line    0x00031246       0x83 ../socket_simples_bsp/\libucosii_bsp.a(alt_do_dtors.o)
 .debug_line    0x000312c9      0x1a4 ../socket_simples_bsp/\libucosii_bsp.a(alt_errno.o)
 .debug_line    0x0003146d      0x2d4 ../socket_simples_bsp/\libucosii_bsp.a(alt_find_dev.o)
 .debug_line    0x00031741      0x2c2 ../socket_simples_bsp/\libucosii_bsp.a(alt_iic.o)
 .debug_line    0x00031a03      0x243 ../socket_simples_bsp/\libucosii_bsp.a(alt_iic_isr_register.o)
 .debug_line    0x00031c46      0x31d ../socket_simples_bsp/\libucosii_bsp.a(alt_io_redirect.o)
 .debug_line    0x00031f63       0x6b ../socket_simples_bsp/\libucosii_bsp.a(alt_irq_entry.o)
 .debug_line    0x00031fce      0x2be ../socket_simples_bsp/\libucosii_bsp.a(alt_irq_handler.o)
 .debug_line    0x0003228c      0x359 ../socket_simples_bsp/\libucosii_bsp.a(alt_open.o)
 .debug_line    0x000325e5      0x322 ../socket_simples_bsp/\libucosii_bsp.a(alt_read.o)
 .debug_line    0x00032907      0x273 ../socket_simples_bsp/\libucosii_bsp.a(alt_release_fd.o)
 .debug_line    0x00032b7a      0x1b3 ../socket_simples_bsp/\libucosii_bsp.a(alt_remap_cached.o)
 .debug_line    0x00032d2d      0x1bd ../socket_simples_bsp/\libucosii_bsp.a(alt_remap_uncached.o)
 .debug_line    0x00032eea      0x310 ../socket_simples_bsp/\libucosii_bsp.a(alt_tick.o)
 .debug_line    0x000331fa      0x323 ../socket_simples_bsp/\libucosii_bsp.a(alt_write.o)
 .debug_line    0x0003351d      0x1c8 ../socket_simples_bsp/\libucosii_bsp.a(altera_nios2_qsys_irq.o)
 .debug_line    0x000336e5       0x86 ../socket_simples_bsp/\libucosii_bsp.a(os_cpu_a.o)
 .debug_line    0x0003376b      0x32a ../socket_simples_bsp/\libucosii_bsp.a(os_cpu_c.o)
 .debug_line    0x00033a95      0x43f ../socket_simples_bsp/\libucosii_bsp.a(altera_avalon_cfi_flash_amd.o)
 .debug_line    0x00033ed4      0x431 ../socket_simples_bsp/\libucosii_bsp.a(altera_avalon_cfi_flash_intel.o)
 .debug_line    0x00034305      0x1ef ../socket_simples_bsp/\libucosii_bsp.a(altera_avalon_spi.o)
 .debug_line    0x000344f4      0x519 ../socket_simples_bsp/\libucosii_bsp.a(allports.o)
 .debug_line    0x00034a0d      0x47d ../socket_simples_bsp/\libucosii_bsp.a(timeouts.o)
 .debug_line    0x00034e8a      0x36a ../socket_simples_bsp/\libucosii_bsp.a(tk_misc.o)
 .debug_line    0x000351f4      0x389 ../socket_simples_bsp/\libucosii_bsp.a(alt_iniche_fcntl.o)
 .debug_line    0x0003557d      0xc9c ../socket_simples_bsp/\libucosii_bsp.a(et_arp.o)
 .debug_line    0x00036219      0x473 ../socket_simples_bsp/\libucosii_bsp.a(iface.o)
 .debug_line    0x0003668c      0xf8f ../socket_simples_bsp/\libucosii_bsp.a(ip.o)
 .debug_line    0x0003761b      0xf76 ../socket_simples_bsp/\libucosii_bsp.a(ip_reasm.o)
 .debug_line    0x00038591      0x780 ../socket_simples_bsp/\libucosii_bsp.a(ipdemux.o)
 .debug_line    0x00038d11      0x462 ../socket_simples_bsp/\libucosii_bsp.a(ipmc.o)
 .debug_line    0x00039173      0x332 ../socket_simples_bsp/\libucosii_bsp.a(ipport.o)
 .debug_line    0x000394a5      0x5b3 ../socket_simples_bsp/\libucosii_bsp.a(ipraw.o)
 .debug_line    0x00039a58      0x5b5 ../socket_simples_bsp/\libucosii_bsp.a(iproute.o)
 .debug_line    0x0003a00d      0x7f0 ../socket_simples_bsp/\libucosii_bsp.a(udp.o)
 .debug_line    0x0003a7fd      0x434 ../socket_simples_bsp/\libucosii_bsp.a(igmp.o)
 .debug_line    0x0003ac31      0x627 ../socket_simples_bsp/\libucosii_bsp.a(igmp2.o)
 .debug_line    0x0003b258      0x70b ../socket_simples_bsp/\libucosii_bsp.a(ipopt.o)
 .debug_line    0x0003b963      0x5f5 ../socket_simples_bsp/\libucosii_bsp.a(u_mctest.o)
 .debug_line    0x0003bf58      0x439 ../socket_simples_bsp/\libucosii_bsp.a(dhcsetup.o)
 .debug_line    0x0003c391      0x443 ../socket_simples_bsp/\libucosii_bsp.a(memdev.o)
 .debug_line    0x0003c7d4      0x3b3 ../socket_simples_bsp/\libucosii_bsp.a(tcpcksum.o)
 .debug_line    0x0003cb87      0x767 ../socket_simples_bsp/\libucosii_bsp.a(in_pcb.o)
 .debug_line    0x0003d2ee      0xff1 ../socket_simples_bsp/\libucosii_bsp.a(vfsfiles.o)
 .debug_line    0x0003e2df      0x2be ../socket_simples_bsp/\libucosii_bsp.a(vfsport.o)
 .debug_line    0x0003e59d       0xab ../socket_simples_bsp/\libucosii_bsp.a(alt_exception_entry.o)
 .debug_line    0x0003e648      0x352 ../socket_simples_bsp/\libucosii_bsp.a(alt_fcntl.o)
 .debug_line    0x0003e99a      0x2e5 ../socket_simples_bsp/\libucosii_bsp.a(alt_find_file.o)
 .debug_line    0x0003ec7f      0x315 ../socket_simples_bsp/\libucosii_bsp.a(alt_get_fd.o)
 .debug_line    0x0003ef94      0x952 ../socket_simples_bsp/\libucosii_bsp.a(icmp.o)
 .debug_line    0x0003f8e6      0x1fa c:/altera/13.0/nios2eds/bin/gnu/h-i686-mingw32/bin/../lib/gcc/nios2-elf/4.1.2/../../../../nios2-elf/lib\libc.a(lib_a-atexit.o)
 .debug_line    0x0003fae0      0x204 c:/altera/13.0/nios2eds/bin/gnu/h-i686-mingw32/bin/../lib/gcc/nios2-elf/4.1.2/../../../../nios2-elf/lib\libc.a(lib_a-atoi.o)
 .debug_line    0x0003fce4      0x206 c:/altera/13.0/nios2eds/bin/gnu/h-i686-mingw32/bin/../lib/gcc/nios2-elf/4.1.2/../../../../nios2-elf/lib\libc.a(lib_a-calloc.o)
 .debug_line    0x0003feea      0x245 c:/altera/13.0/nios2eds/bin/gnu/h-i686-mingw32/bin/../lib/gcc/nios2-elf/4.1.2/../../../../nios2-elf/lib\libc.a(lib_a-malloc.o)
 .debug_line    0x0004012f      0x296 c:/altera/13.0/nios2eds/bin/gnu/h-i686-mingw32/bin/../lib/gcc/nios2-elf/4.1.2/../../../../nios2-elf/lib\libc.a(lib_a-memcmp.o)
 .debug_line    0x000403c5      0x31c c:/altera/13.0/nios2eds/bin/gnu/h-i686-mingw32/bin/../lib/gcc/nios2-elf/4.1.2/../../../../nios2-elf/lib\libc.a(lib_a-sprintf.o)
 .debug_line    0x000406e1      0x27e c:/altera/13.0/nios2eds/bin/gnu/h-i686-mingw32/bin/../lib/gcc/nios2-elf/4.1.2/../../../../nios2-elf/lib\libc.a(lib_a-strcpy.o)
 .debug_line    0x0004095f      0x2f5 c:/altera/13.0/nios2eds/bin/gnu/h-i686-mingw32/bin/../lib/gcc/nios2-elf/4.1.2/../../../../nios2-elf/lib\libc.a(lib_a-strncmp.o)
 .debug_line    0x00040c54      0x2c7 c:/altera/13.0/nios2eds/bin/gnu/h-i686-mingw32/bin/../lib/gcc/nios2-elf/4.1.2/../../../../nios2-elf/lib\libc.a(lib_a-strncpy.o)
 .debug_line    0x00040f1b      0x3fd c:/altera/13.0/nios2eds/bin/gnu/h-i686-mingw32/bin/../lib/gcc/nios2-elf/4.1.2/../../../../nios2-elf/lib\libc.a(lib_a-strtol.o)
 .debug_line    0x00041318      0x269 c:/altera/13.0/nios2eds/bin/gnu/h-i686-mingw32/bin/../lib/gcc/nios2-elf/4.1.2/../../../../nios2-elf/lib\libc.a(lib_a-vprintf.o)
 .debug_line    0x00041581      0x2d3 c:/altera/13.0/nios2eds/bin/gnu/h-i686-mingw32/bin/../lib/gcc/nios2-elf/4.1.2/../../../../nios2-elf/lib\libc.a(lib_a-vsprintf.o)
 .debug_line    0x00041854      0x30d c:/altera/13.0/nios2eds/bin/gnu/h-i686-mingw32/bin/../lib/gcc/nios2-elf/4.1.2/../../../../nios2-elf/lib\libc.a(lib_a-__atexit.o)

.debug_frame    0x00000000     0x6774
 *(.debug_frame)
 .debug_frame   0x00000000       0xbc obj/default/LCD.o
 .debug_frame   0x000000bc       0x48 obj/default/SSS_DE2_115.o
 .debug_frame   0x00000104       0x64 obj/default/alt_error_handler.o
 .debug_frame   0x00000168      0x19c obj/default/dm9000a.o
 .debug_frame   0x00000304       0x84 obj/default/iniche_init.o
 .debug_frame   0x00000388       0x64 obj/default/led.o
 .debug_frame   0x000003ec       0xbc obj/default/network_utilities.o
 .debug_frame   0x000004a8       0xfc obj/default/simple_socket_server.o
 .debug_frame   0x000005a4       0x30 c:/altera/13.0/nios2eds/bin/gnu/h-i686-mingw32/bin/../lib/gcc/nios2-elf/4.1.2\libgcc.a(_fixunsdfsi.o)
 .debug_frame   0x000005d4       0x70 c:/altera/13.0/nios2eds/bin/gnu/h-i686-mingw32/bin/../lib/gcc/nios2-elf/4.1.2\libgcc.a(_addsub_df.o)
 .debug_frame   0x00000644       0x3c c:/altera/13.0/nios2eds/bin/gnu/h-i686-mingw32/bin/../lib/gcc/nios2-elf/4.1.2\libgcc.a(_mul_df.o)
 .debug_frame   0x00000680       0x2c c:/altera/13.0/nios2eds/bin/gnu/h-i686-mingw32/bin/../lib/gcc/nios2-elf/4.1.2\libgcc.a(_ge_df.o)
 .debug_frame   0x000006ac       0x28 c:/altera/13.0/nios2eds/bin/gnu/h-i686-mingw32/bin/../lib/gcc/nios2-elf/4.1.2\libgcc.a(_df_to_si.o)
 .debug_frame   0x000006d4       0x38 c:/altera/13.0/nios2eds/bin/gnu/h-i686-mingw32/bin/../lib/gcc/nios2-elf/4.1.2\libgcc.a(_usi_to_df.o)
 .debug_frame   0x0000070c       0x2c c:/altera/13.0/nios2eds/bin/gnu/h-i686-mingw32/bin/../lib/gcc/nios2-elf/4.1.2\libgcc.a(_muldi3.o)
 .debug_frame   0x00000738       0x20 c:/altera/13.0/nios2eds/bin/gnu/h-i686-mingw32/bin/../lib/gcc/nios2-elf/4.1.2\libgcc.a(_clzsi2.o)
 .debug_frame   0x00000758       0x2c c:/altera/13.0/nios2eds/bin/gnu/h-i686-mingw32/bin/../lib/gcc/nios2-elf/4.1.2\libgcc.a(_pack_df.o)
 .debug_frame   0x00000784       0x20 c:/altera/13.0/nios2eds/bin/gnu/h-i686-mingw32/bin/../lib/gcc/nios2-elf/4.1.2\libgcc.a(_unpack_df.o)
 .debug_frame   0x000007a4       0x20 c:/altera/13.0/nios2eds/bin/gnu/h-i686-mingw32/bin/../lib/gcc/nios2-elf/4.1.2\libgcc.a(_fpcmp_parts_df.o)
 .debug_frame   0x000007c4       0x28 c:/altera/13.0/nios2eds/bin/gnu/h-i686-mingw32/bin/../lib/gcc/nios2-elf/4.1.2/../../../../nios2-elf/lib\libc.a(lib_a-exit.o)
 .debug_frame   0x000007ec       0x40 c:/altera/13.0/nios2eds/bin/gnu/h-i686-mingw32/bin/../lib/gcc/nios2-elf/4.1.2/../../../../nios2-elf/lib\libc.a(lib_a-fprintf.o)
 .debug_frame   0x0000082c       0x48 c:/altera/13.0/nios2eds/bin/gnu/h-i686-mingw32/bin/../lib/gcc/nios2-elf/4.1.2/../../../../nios2-elf/lib\libc.a(lib_a-fwrite.o)
 .debug_frame   0x00000874       0x48 c:/altera/13.0/nios2eds/bin/gnu/h-i686-mingw32/bin/../lib/gcc/nios2-elf/4.1.2/../../../../nios2-elf/lib\libc.a(lib_a-getc.o)
 .debug_frame   0x000008bc       0x20 c:/altera/13.0/nios2eds/bin/gnu/h-i686-mingw32/bin/../lib/gcc/nios2-elf/4.1.2/../../../../nios2-elf/lib\libc.a(lib_a-memcpy.o)
 .debug_frame   0x000008dc       0x20 c:/altera/13.0/nios2eds/bin/gnu/h-i686-mingw32/bin/../lib/gcc/nios2-elf/4.1.2/../../../../nios2-elf/lib\libc.a(lib_a-memmove.o)
 .debug_frame   0x000008fc       0x20 c:/altera/13.0/nios2eds/bin/gnu/h-i686-mingw32/bin/../lib/gcc/nios2-elf/4.1.2/../../../../nios2-elf/lib\libc.a(lib_a-memset.o)
 .debug_frame   0x0000091c       0x38 c:/altera/13.0/nios2eds/bin/gnu/h-i686-mingw32/bin/../lib/gcc/nios2-elf/4.1.2/../../../../nios2-elf/lib\libc.a(lib_a-perror.o)
 .debug_frame   0x00000954       0x40 c:/altera/13.0/nios2eds/bin/gnu/h-i686-mingw32/bin/../lib/gcc/nios2-elf/4.1.2/../../../../nios2-elf/lib\libc.a(lib_a-printf.o)
 .debug_frame   0x00000994       0x4c c:/altera/13.0/nios2eds/bin/gnu/h-i686-mingw32/bin/../lib/gcc/nios2-elf/4.1.2/../../../../nios2-elf/lib\libc.a(lib_a-putc.o)
 .debug_frame   0x000009e0       0x30 c:/altera/13.0/nios2eds/bin/gnu/h-i686-mingw32/bin/../lib/gcc/nios2-elf/4.1.2/../../../../nios2-elf/lib\libc.a(lib_a-putchar.o)
 .debug_frame   0x00000a10       0x3c c:/altera/13.0/nios2eds/bin/gnu/h-i686-mingw32/bin/../lib/gcc/nios2-elf/4.1.2/../../../../nios2-elf/lib\libc.a(lib_a-puts.o)
 .debug_frame   0x00000a4c       0x38 c:/altera/13.0/nios2eds/bin/gnu/h-i686-mingw32/bin/../lib/gcc/nios2-elf/4.1.2/../../../../nios2-elf/lib\libc.a(lib_a-rget.o)
 .debug_frame   0x00000a84       0x20 c:/altera/13.0/nios2eds/bin/gnu/h-i686-mingw32/bin/../lib/gcc/nios2-elf/4.1.2/../../../../nios2-elf/lib\libc.a(lib_a-strchr.o)
 .debug_frame   0x00000aa4       0x28 c:/altera/13.0/nios2eds/bin/gnu/h-i686-mingw32/bin/../lib/gcc/nios2-elf/4.1.2/../../../../nios2-elf/lib\libc.a(lib_a-strerror.o)
 .debug_frame   0x00000acc       0x20 c:/altera/13.0/nios2eds/bin/gnu/h-i686-mingw32/bin/../lib/gcc/nios2-elf/4.1.2/../../../../nios2-elf/lib\libc.a(lib_a-strlen.o)
 .debug_frame   0x00000aec       0x20 c:/altera/13.0/nios2eds/bin/gnu/h-i686-mingw32/bin/../lib/gcc/nios2-elf/4.1.2/../../../../nios2-elf/lib\libc.a(lib_a-u_strerr.o)
 .debug_frame   0x00000b0c       0x64 c:/altera/13.0/nios2eds/bin/gnu/h-i686-mingw32/bin/../lib/gcc/nios2-elf/4.1.2/../../../../nios2-elf/lib\libc.a(lib_a-vfprintf.o)
 .debug_frame   0x00000b70       0x3c c:/altera/13.0/nios2eds/bin/gnu/h-i686-mingw32/bin/../lib/gcc/nios2-elf/4.1.2/../../../../nios2-elf/lib\libc.a(lib_a-wbuf.o)
 .debug_frame   0x00000bac       0x2c c:/altera/13.0/nios2eds/bin/gnu/h-i686-mingw32/bin/../lib/gcc/nios2-elf/4.1.2/../../../../nios2-elf/lib\libc.a(lib_a-wsetup.o)
 .debug_frame   0x00000bd8       0x4c c:/altera/13.0/nios2eds/bin/gnu/h-i686-mingw32/bin/../lib/gcc/nios2-elf/4.1.2/../../../../nios2-elf/lib\libc.a(lib_a-__call_atexit.o)
 .debug_frame   0x00000c24       0x64 c:/altera/13.0/nios2eds/bin/gnu/h-i686-mingw32/bin/../lib/gcc/nios2-elf/4.1.2/../../../../nios2-elf/lib\libc.a(lib_a-dtoa.o)
 .debug_frame   0x00000c88       0x40 c:/altera/13.0/nios2eds/bin/gnu/h-i686-mingw32/bin/../lib/gcc/nios2-elf/4.1.2/../../../../nios2-elf/lib\libc.a(lib_a-fflush.o)
 .debug_frame   0x00000cc8      0x118 c:/altera/13.0/nios2eds/bin/gnu/h-i686-mingw32/bin/../lib/gcc/nios2-elf/4.1.2/../../../../nios2-elf/lib\libc.a(lib_a-findfp.o)
 .debug_frame   0x00000de0       0x4c c:/altera/13.0/nios2eds/bin/gnu/h-i686-mingw32/bin/../lib/gcc/nios2-elf/4.1.2/../../../../nios2-elf/lib\libc.a(lib_a-fputc.o)
 .debug_frame   0x00000e2c       0x3c c:/altera/13.0/nios2eds/bin/gnu/h-i686-mingw32/bin/../lib/gcc/nios2-elf/4.1.2/../../../../nios2-elf/lib\libc.a(lib_a-fputs.o)
 .debug_frame   0x00000e68       0x4c c:/altera/13.0/nios2eds/bin/gnu/h-i686-mingw32/bin/../lib/gcc/nios2-elf/4.1.2/../../../../nios2-elf/lib\libc.a(lib_a-freer.o)
 .debug_frame   0x00000eb4       0x38 c:/altera/13.0/nios2eds/bin/gnu/h-i686-mingw32/bin/../lib/gcc/nios2-elf/4.1.2/../../../../nios2-elf/lib\libc.a(lib_a-fvwrite.o)
 .debug_frame   0x00000eec       0x60 c:/altera/13.0/nios2eds/bin/gnu/h-i686-mingw32/bin/../lib/gcc/nios2-elf/4.1.2/../../../../nios2-elf/lib\libc.a(lib_a-fwalk.o)
 .debug_frame   0x00000f4c       0x70 c:/altera/13.0/nios2eds/bin/gnu/h-i686-mingw32/bin/../lib/gcc/nios2-elf/4.1.2/../../../../nios2-elf/lib\libc.a(lib_a-locale.o)
 .debug_frame   0x00000fbc       0x2c c:/altera/13.0/nios2eds/bin/gnu/h-i686-mingw32/bin/../lib/gcc/nios2-elf/4.1.2/../../../../nios2-elf/lib\libc.a(lib_a-makebuf.o)
 .debug_frame   0x00000fe8       0x38 c:/altera/13.0/nios2eds/bin/gnu/h-i686-mingw32/bin/../lib/gcc/nios2-elf/4.1.2/../../../../nios2-elf/lib\libc.a(lib_a-mallocr.o)
 .debug_frame   0x00001020       0x20 c:/altera/13.0/nios2eds/bin/gnu/h-i686-mingw32/bin/../lib/gcc/nios2-elf/4.1.2/../../../../nios2-elf/lib\libc.a(lib_a-memchr.o)
 .debug_frame   0x00001040      0x218 c:/altera/13.0/nios2eds/bin/gnu/h-i686-mingw32/bin/../lib/gcc/nios2-elf/4.1.2/../../../../nios2-elf/lib\libc.a(lib_a-mprec.o)
 .debug_frame   0x00001258       0x38 c:/altera/13.0/nios2eds/bin/gnu/h-i686-mingw32/bin/../lib/gcc/nios2-elf/4.1.2/../../../../nios2-elf/lib\libc.a(lib_a-reallocr.o)
 .debug_frame   0x00001290       0x3c c:/altera/13.0/nios2eds/bin/gnu/h-i686-mingw32/bin/../lib/gcc/nios2-elf/4.1.2/../../../../nios2-elf/lib\libc.a(lib_a-refill.o)
 .debug_frame   0x000012cc       0x20 c:/altera/13.0/nios2eds/bin/gnu/h-i686-mingw32/bin/../lib/gcc/nios2-elf/4.1.2/../../../../nios2-elf/lib\libc.a(lib_a-s_isinfd.o)
 .debug_frame   0x000012ec       0x20 c:/altera/13.0/nios2eds/bin/gnu/h-i686-mingw32/bin/../lib/gcc/nios2-elf/4.1.2/../../../../nios2-elf/lib\libc.a(lib_a-s_isnand.o)
 .debug_frame   0x0000130c       0x2c c:/altera/13.0/nios2eds/bin/gnu/h-i686-mingw32/bin/../lib/gcc/nios2-elf/4.1.2/../../../../nios2-elf/lib\libc.a(lib_a-sbrkr.o)
 .debug_frame   0x00001338       0x78 c:/altera/13.0/nios2eds/bin/gnu/h-i686-mingw32/bin/../lib/gcc/nios2-elf/4.1.2/../../../../nios2-elf/lib\libc.a(lib_a-stdio.o)
 .debug_frame   0x000013b0       0x20 c:/altera/13.0/nios2eds/bin/gnu/h-i686-mingw32/bin/../lib/gcc/nios2-elf/4.1.2/../../../../nios2-elf/lib\libc.a(lib_a-strcmp.o)
 .debug_frame   0x000013d0       0x2c c:/altera/13.0/nios2eds/bin/gnu/h-i686-mingw32/bin/../lib/gcc/nios2-elf/4.1.2/../../../../nios2-elf/lib\libc.a(lib_a-writer.o)
 .debug_frame   0x000013fc       0x28 c:/altera/13.0/nios2eds/bin/gnu/h-i686-mingw32/bin/../lib/gcc/nios2-elf/4.1.2/../../../../nios2-elf/lib\libc.a(lib_a-callocr.o)
 .debug_frame   0x00001424       0x2c c:/altera/13.0/nios2eds/bin/gnu/h-i686-mingw32/bin/../lib/gcc/nios2-elf/4.1.2/../../../../nios2-elf/lib\libc.a(lib_a-closer.o)
 .debug_frame   0x00001450       0x3c c:/altera/13.0/nios2eds/bin/gnu/h-i686-mingw32/bin/../lib/gcc/nios2-elf/4.1.2/../../../../nios2-elf/lib\libc.a(lib_a-fclose.o)
 .debug_frame   0x0000148c       0x2c c:/altera/13.0/nios2eds/bin/gnu/h-i686-mingw32/bin/../lib/gcc/nios2-elf/4.1.2/../../../../nios2-elf/lib\libc.a(lib_a-fstatr.o)
 .debug_frame   0x000014b8       0x2c c:/altera/13.0/nios2eds/bin/gnu/h-i686-mingw32/bin/../lib/gcc/nios2-elf/4.1.2/../../../../nios2-elf/lib\libc.a(lib_a-isattyr.o)
 .debug_frame   0x000014e4       0x2c c:/altera/13.0/nios2eds/bin/gnu/h-i686-mingw32/bin/../lib/gcc/nios2-elf/4.1.2/../../../../nios2-elf/lib\libc.a(lib_a-lseekr.o)
 .debug_frame   0x00001510       0x2c c:/altera/13.0/nios2eds/bin/gnu/h-i686-mingw32/bin/../lib/gcc/nios2-elf/4.1.2/../../../../nios2-elf/lib\libc.a(lib_a-readr.o)
 .debug_frame   0x0000153c       0x38 c:/altera/13.0/nios2eds/bin/gnu/h-i686-mingw32/bin/../lib/gcc/nios2-elf/4.1.2\libgcc.a(_udivdi3.o)
 .debug_frame   0x00001574       0x38 c:/altera/13.0/nios2eds/bin/gnu/h-i686-mingw32/bin/../lib/gcc/nios2-elf/4.1.2\libgcc.a(_umoddi3.o)
 .debug_frame   0x000015ac       0x30 c:/altera/13.0/nios2eds/bin/gnu/h-i686-mingw32/bin/../lib/gcc/nios2-elf/4.1.2\libgcc.a(_div_df.o)
 .debug_frame   0x000015dc       0x2c c:/altera/13.0/nios2eds/bin/gnu/h-i686-mingw32/bin/../lib/gcc/nios2-elf/4.1.2\libgcc.a(_eq_df.o)
 .debug_frame   0x00001608       0x2c c:/altera/13.0/nios2eds/bin/gnu/h-i686-mingw32/bin/../lib/gcc/nios2-elf/4.1.2\libgcc.a(_ne_df.o)
 .debug_frame   0x00001634       0x2c c:/altera/13.0/nios2eds/bin/gnu/h-i686-mingw32/bin/../lib/gcc/nios2-elf/4.1.2\libgcc.a(_gt_df.o)
 .debug_frame   0x00001660       0x2c c:/altera/13.0/nios2eds/bin/gnu/h-i686-mingw32/bin/../lib/gcc/nios2-elf/4.1.2\libgcc.a(_lt_df.o)
 .debug_frame   0x0000168c       0x30 c:/altera/13.0/nios2eds/bin/gnu/h-i686-mingw32/bin/../lib/gcc/nios2-elf/4.1.2\libgcc.a(_si_to_df.o)
 .debug_frame   0x000016bc       0x70 c:/altera/13.0/nios2eds/bin/gnu/h-i686-mingw32/bin/../lib/gcc/nios2-elf/4.1.2\libgcc.a(lib2-divmod.o)
 .debug_frame   0x0000172c       0x48 ../socket_simples_bsp/\libucosii_bsp.a(alt_exit.o)
 .debug_frame   0x00001774       0x48 ../socket_simples_bsp/\libucosii_bsp.a(alt_flash_dev.o)
 .debug_frame   0x000017bc       0x48 ../socket_simples_bsp/\libucosii_bsp.a(alt_fstat.o)
 .debug_frame   0x00001804       0x2c ../socket_simples_bsp/\libucosii_bsp.a(alt_irq_register.o)
 .debug_frame   0x00001830       0x48 ../socket_simples_bsp/\libucosii_bsp.a(alt_isatty.o)
 .debug_frame   0x00001878       0x48 ../socket_simples_bsp/\libucosii_bsp.a(alt_lseek.o)
 .debug_frame   0x000018c0       0x2c ../socket_simples_bsp/\libucosii_bsp.a(alt_main.o)
 .debug_frame   0x000018ec       0x2c ../socket_simples_bsp/\libucosii_bsp.a(alt_sbrk.o)
 .debug_frame   0x00001918       0x30 ../socket_simples_bsp/\libucosii_bsp.a(alt_usleep.o)
 .debug_frame   0x00001948       0x4c ../socket_simples_bsp/\libucosii_bsp.a(alt_env_lock.o)
 .debug_frame   0x00001994       0x4c ../socket_simples_bsp/\libucosii_bsp.a(alt_malloc_lock.o)
 .debug_frame   0x000019e0      0x3e4 ../socket_simples_bsp/\libucosii_bsp.a(os_core.o)
 .debug_frame   0x00001dc4       0x2c ../socket_simples_bsp/\libucosii_bsp.a(os_dbg.o)
 .debug_frame   0x00001df0      0x180 ../socket_simples_bsp/\libucosii_bsp.a(os_flag.o)
 .debug_frame   0x00001f70       0xd4 ../socket_simples_bsp/\libucosii_bsp.a(os_mem.o)
 .debug_frame   0x00002044      0x144 ../socket_simples_bsp/\libucosii_bsp.a(os_q.o)
 .debug_frame   0x00002188       0xf0 ../socket_simples_bsp/\libucosii_bsp.a(os_sem.o)
 .debug_frame   0x00002278      0x160 ../socket_simples_bsp/\libucosii_bsp.a(os_task.o)
 .debug_frame   0x000023d8       0xa0 ../socket_simples_bsp/\libucosii_bsp.a(os_time.o)
 .debug_frame   0x00002478       0x64 ../socket_simples_bsp/\libucosii_bsp.a(alt_sys_init.o)
 .debug_frame   0x000024dc       0xd4 ../socket_simples_bsp/\libucosii_bsp.a(altera_avalon_cfi_flash.o)
 .debug_frame   0x000025b0      0x210 ../socket_simples_bsp/\libucosii_bsp.a(altera_avalon_cfi_flash_table.o)
 .debug_frame   0x000027c0      0x128 ../socket_simples_bsp/\libucosii_bsp.a(altera_avalon_epcs_flash_controller.o)
 .debug_frame   0x000028e8       0x80 ../socket_simples_bsp/\libucosii_bsp.a(altera_avalon_jtag_uart_fd.o)
 .debug_frame   0x00002968       0x80 ../socket_simples_bsp/\libucosii_bsp.a(altera_avalon_jtag_uart_init.o)
 .debug_frame   0x000029e8       0x2c ../socket_simples_bsp/\libucosii_bsp.a(altera_avalon_jtag_uart_ioctl.o)
 .debug_frame   0x00002a14       0x2c ../socket_simples_bsp/\libucosii_bsp.a(altera_avalon_jtag_uart_read.o)
 .debug_frame   0x00002a40       0x2c ../socket_simples_bsp/\libucosii_bsp.a(altera_avalon_jtag_uart_write.o)
 .debug_frame   0x00002a6c      0x114 ../socket_simples_bsp/\libucosii_bsp.a(altera_avalon_lcd_16207.o)
 .debug_frame   0x00002b80       0x2c ../socket_simples_bsp/\libucosii_bsp.a(altera_avalon_lcd_16207_fd.o)
 .debug_frame   0x00002bac       0x48 ../socket_simples_bsp/\libucosii_bsp.a(altera_avalon_timer_sc.o)
 .debug_frame   0x00002bf4       0x64 ../socket_simples_bsp/\libucosii_bsp.a(altera_avalon_uart_fd.o)
 .debug_frame   0x00002c58       0x9c ../socket_simples_bsp/\libucosii_bsp.a(altera_avalon_uart_init.o)
 .debug_frame   0x00002cf4       0x48 ../socket_simples_bsp/\libucosii_bsp.a(altera_avalon_uart_read.o)
 .debug_frame   0x00002d3c       0x48 ../socket_simples_bsp/\libucosii_bsp.a(altera_avalon_uart_write.o)
 .debug_frame   0x00002d84      0x160 ../socket_simples_bsp/\libucosii_bsp.a(epcs_commands.o)
 .debug_frame   0x00002ee4       0x2c ../socket_simples_bsp/\libucosii_bsp.a(alt_iniche_close.o)
 .debug_frame   0x00002f10       0x2c ../socket_simples_bsp/\libucosii_bsp.a(alt_iniche_dev.o)
 .debug_frame   0x00002f3c       0x2c ../socket_simples_bsp/\libucosii_bsp.a(alt_iniche_read.o)
 .debug_frame   0x00002f68       0x2c ../socket_simples_bsp/\libucosii_bsp.a(alt_iniche_write.o)
 .debug_frame   0x00002f94       0xb8 ../socket_simples_bsp/\libucosii_bsp.a(ipnet.o)
 .debug_frame   0x0000304c       0x80 ../socket_simples_bsp/\libucosii_bsp.a(ipstart.o)
 .debug_frame   0x000030cc       0xf8 ../socket_simples_bsp/\libucosii_bsp.a(igmp_cmn.o)
 .debug_frame   0x000031c4      0x12c ../socket_simples_bsp/\libucosii_bsp.a(bsdsock.o)
 .debug_frame   0x000032f0       0x48 ../socket_simples_bsp/\libucosii_bsp.a(cksum.o)
 .debug_frame   0x00003338      0x164 ../socket_simples_bsp/\libucosii_bsp.a(in_utils.o)
 .debug_frame   0x0000349c       0x64 ../socket_simples_bsp/\libucosii_bsp.a(netmain.o)
 .debug_frame   0x00003500      0x10c ../socket_simples_bsp/\libucosii_bsp.a(parseip.o)
 .debug_frame   0x0000360c       0xd4 ../socket_simples_bsp/\libucosii_bsp.a(tk_crnos.o)
 .debug_frame   0x000036e0      0x250 ../socket_simples_bsp/\libucosii_bsp.a(dhcpclnt.o)
 .debug_frame   0x00003930       0x2c ../socket_simples_bsp/\libucosii_bsp.a(dhcputil.o)
 .debug_frame   0x0000395c       0xb8 ../socket_simples_bsp/\libucosii_bsp.a(pktalloc.o)
 .debug_frame   0x00003a14       0x64 ../socket_simples_bsp/\libucosii_bsp.a(q.o)
 .debug_frame   0x00003a78       0x48 ../socket_simples_bsp/\libucosii_bsp.a(udp_open.o)
 .debug_frame   0x00003ac0       0xf0 ../socket_simples_bsp/\libucosii_bsp.a(brdutils.o)
 .debug_frame   0x00003bb0       0x9c ../socket_simples_bsp/\libucosii_bsp.a(osportco.o)
 .debug_frame   0x00003c4c      0x110 ../socket_simples_bsp/\libucosii_bsp.a(targnios.o)
 .debug_frame   0x00003d5c      0x208 ../socket_simples_bsp/\libucosii_bsp.a(nptcp.o)
 .debug_frame   0x00003f64       0x68 ../socket_simples_bsp/\libucosii_bsp.a(rawsock.o)
 .debug_frame   0x00003fcc      0x224 ../socket_simples_bsp/\libucosii_bsp.a(sockcall.o)
 .debug_frame   0x000041f0      0x1d4 ../socket_simples_bsp/\libucosii_bsp.a(socket.o)
 .debug_frame   0x000043c4      0x294 ../socket_simples_bsp/\libucosii_bsp.a(socket2.o)
 .debug_frame   0x00004658      0x110 ../socket_simples_bsp/\libucosii_bsp.a(soselect.o)
 .debug_frame   0x00004768       0xd8 ../socket_simples_bsp/\libucosii_bsp.a(tcp_in.o)
 .debug_frame   0x00004840       0x68 ../socket_simples_bsp/\libucosii_bsp.a(tcp_out.o)
 .debug_frame   0x000048a8      0x10c ../socket_simples_bsp/\libucosii_bsp.a(tcp_subr.o)
 .debug_frame   0x000049b4       0x64 ../socket_simples_bsp/\libucosii_bsp.a(tcp_timr.o)
 .debug_frame   0x00004a18       0x80 ../socket_simples_bsp/\libucosii_bsp.a(tcp_usr.o)
 .debug_frame   0x00004a98       0x2c ../socket_simples_bsp/\libucosii_bsp.a(tcpport.o)
 .debug_frame   0x00004ac4       0xbc ../socket_simples_bsp/\libucosii_bsp.a(udpsock.o)
 .debug_frame   0x00004b80       0x2c ../socket_simples_bsp/\libucosii_bsp.a(alt_alarm_start.o)
 .debug_frame   0x00004bac       0x2c ../socket_simples_bsp/\libucosii_bsp.a(alt_busy_sleep.o)
 .debug_frame   0x00004bd8       0x48 ../socket_simples_bsp/\libucosii_bsp.a(alt_close.o)
 .debug_frame   0x00004c20       0x2c ../socket_simples_bsp/\libucosii_bsp.a(alt_dcache_flush.o)
 .debug_frame   0x00004c4c       0x2c ../socket_simples_bsp/\libucosii_bsp.a(alt_dev.o)
 .debug_frame   0x00004c78       0x48 ../socket_simples_bsp/\libucosii_bsp.a(alt_dev_llist_insert.o)
 .debug_frame   0x00004cc0       0x2c ../socket_simples_bsp/\libucosii_bsp.a(alt_do_ctors.o)
 .debug_frame   0x00004cec       0x2c ../socket_simples_bsp/\libucosii_bsp.a(alt_do_dtors.o)
 .debug_frame   0x00004d18       0x2c ../socket_simples_bsp/\libucosii_bsp.a(alt_find_dev.o)
 .debug_frame   0x00004d44       0x80 ../socket_simples_bsp/\libucosii_bsp.a(alt_iic.o)
 .debug_frame   0x00004dc4       0x2c ../socket_simples_bsp/\libucosii_bsp.a(alt_iic_isr_register.o)
 .debug_frame   0x00004df0       0x48 ../socket_simples_bsp/\libucosii_bsp.a(alt_io_redirect.o)
 .debug_frame   0x00004e38       0x2c ../socket_simples_bsp/\libucosii_bsp.a(alt_irq_handler.o)
 .debug_frame   0x00004e64       0x64 ../socket_simples_bsp/\libucosii_bsp.a(alt_open.o)
 .debug_frame   0x00004ec8       0x48 ../socket_simples_bsp/\libucosii_bsp.a(alt_read.o)
 .debug_frame   0x00004f10       0x2c ../socket_simples_bsp/\libucosii_bsp.a(alt_release_fd.o)
 .debug_frame   0x00004f3c       0x2c ../socket_simples_bsp/\libucosii_bsp.a(alt_remap_cached.o)
 .debug_frame   0x00004f68       0x2c ../socket_simples_bsp/\libucosii_bsp.a(alt_remap_uncached.o)
 .debug_frame   0x00004f94       0x48 ../socket_simples_bsp/\libucosii_bsp.a(alt_tick.o)
 .debug_frame   0x00004fdc       0x48 ../socket_simples_bsp/\libucosii_bsp.a(alt_write.o)
 .debug_frame   0x00005024       0x2c ../socket_simples_bsp/\libucosii_bsp.a(altera_nios2_qsys_irq.o)
 .debug_frame   0x00005050      0x128 ../socket_simples_bsp/\libucosii_bsp.a(os_cpu_c.o)
 .debug_frame   0x00005178       0x80 ../socket_simples_bsp/\libucosii_bsp.a(altera_avalon_cfi_flash_amd.o)
 .debug_frame   0x000051f8       0x80 ../socket_simples_bsp/\libucosii_bsp.a(altera_avalon_cfi_flash_intel.o)
 .debug_frame   0x00005278       0x2c ../socket_simples_bsp/\libucosii_bsp.a(altera_avalon_spi.o)
 .debug_frame   0x000052a4       0xe0 ../socket_simples_bsp/\libucosii_bsp.a(allports.o)
 .debug_frame   0x00005384       0x88 ../socket_simples_bsp/\libucosii_bsp.a(timeouts.o)
 .debug_frame   0x0000540c       0x48 ../socket_simples_bsp/\libucosii_bsp.a(tk_misc.o)
 .debug_frame   0x00005454       0x2c ../socket_simples_bsp/\libucosii_bsp.a(alt_iniche_fcntl.o)
 .debug_frame   0x00005480      0x160 ../socket_simples_bsp/\libucosii_bsp.a(et_arp.o)
 .debug_frame   0x000055e0       0x80 ../socket_simples_bsp/\libucosii_bsp.a(iface.o)
 .debug_frame   0x00005660      0x160 ../socket_simples_bsp/\libucosii_bsp.a(ip.o)
 .debug_frame   0x000057c0      0x1d4 ../socket_simples_bsp/\libucosii_bsp.a(ip_reasm.o)
 .debug_frame   0x00005994       0x68 ../socket_simples_bsp/\libucosii_bsp.a(ipdemux.o)
 .debug_frame   0x000059fc       0x64 ../socket_simples_bsp/\libucosii_bsp.a(ipmc.o)
 .debug_frame   0x00005a60       0x64 ../socket_simples_bsp/\libucosii_bsp.a(ipport.o)
 .debug_frame   0x00005ac4       0xb8 ../socket_simples_bsp/\libucosii_bsp.a(ipraw.o)
 .debug_frame   0x00005b7c       0x64 ../socket_simples_bsp/\libucosii_bsp.a(iproute.o)
 .debug_frame   0x00005be0       0xd4 ../socket_simples_bsp/\libucosii_bsp.a(udp.o)
 .debug_frame   0x00005cb4       0x2c ../socket_simples_bsp/\libucosii_bsp.a(igmp.o)
 .debug_frame   0x00005ce0       0x9c ../socket_simples_bsp/\libucosii_bsp.a(igmp2.o)
 .debug_frame   0x00005d7c       0x84 ../socket_simples_bsp/\libucosii_bsp.a(ipopt.o)
 .debug_frame   0x00005e00       0x4c ../socket_simples_bsp/\libucosii_bsp.a(u_mctest.o)
 .debug_frame   0x00005e4c       0x48 ../socket_simples_bsp/\libucosii_bsp.a(dhcsetup.o)
 .debug_frame   0x00005e94      0x10c ../socket_simples_bsp/\libucosii_bsp.a(memdev.o)
 .debug_frame   0x00005fa0       0x2c ../socket_simples_bsp/\libucosii_bsp.a(tcpcksum.o)
 .debug_frame   0x00005fcc       0xf0 ../socket_simples_bsp/\libucosii_bsp.a(in_pcb.o)
 .debug_frame   0x000060bc      0x320 ../socket_simples_bsp/\libucosii_bsp.a(vfsfiles.o)
 .debug_frame   0x000063dc       0x2c ../socket_simples_bsp/\libucosii_bsp.a(vfsport.o)
 .debug_frame   0x00006408       0x48 ../socket_simples_bsp/\libucosii_bsp.a(alt_fcntl.o)
 .debug_frame   0x00006450       0x2c ../socket_simples_bsp/\libucosii_bsp.a(alt_find_file.o)
 .debug_frame   0x0000647c       0x2c ../socket_simples_bsp/\libucosii_bsp.a(alt_get_fd.o)
 .debug_frame   0x000064a8       0x84 ../socket_simples_bsp/\libucosii_bsp.a(icmp.o)
 .debug_frame   0x0000652c       0x20 c:/altera/13.0/nios2eds/bin/gnu/h-i686-mingw32/bin/../lib/gcc/nios2-elf/4.1.2/../../../../nios2-elf/lib\libc.a(lib_a-atexit.o)
 .debug_frame   0x0000654c       0x30 c:/altera/13.0/nios2eds/bin/gnu/h-i686-mingw32/bin/../lib/gcc/nios2-elf/4.1.2/../../../../nios2-elf/lib\libc.a(lib_a-atoi.o)
 .debug_frame   0x0000657c       0x20 c:/altera/13.0/nios2eds/bin/gnu/h-i686-mingw32/bin/../lib/gcc/nios2-elf/4.1.2/../../../../nios2-elf/lib\libc.a(lib_a-calloc.o)
 .debug_frame   0x0000659c       0x30 c:/altera/13.0/nios2eds/bin/gnu/h-i686-mingw32/bin/../lib/gcc/nios2-elf/4.1.2/../../../../nios2-elf/lib\libc.a(lib_a-malloc.o)
 .debug_frame   0x000065cc       0x20 c:/altera/13.0/nios2eds/bin/gnu/h-i686-mingw32/bin/../lib/gcc/nios2-elf/4.1.2/../../../../nios2-elf/lib\libc.a(lib_a-memcmp.o)
 .debug_frame   0x000065ec       0x40 c:/altera/13.0/nios2eds/bin/gnu/h-i686-mingw32/bin/../lib/gcc/nios2-elf/4.1.2/../../../../nios2-elf/lib\libc.a(lib_a-sprintf.o)
 .debug_frame   0x0000662c       0x20 c:/altera/13.0/nios2eds/bin/gnu/h-i686-mingw32/bin/../lib/gcc/nios2-elf/4.1.2/../../../../nios2-elf/lib\libc.a(lib_a-strcpy.o)
 .debug_frame   0x0000664c       0x20 c:/altera/13.0/nios2eds/bin/gnu/h-i686-mingw32/bin/../lib/gcc/nios2-elf/4.1.2/../../../../nios2-elf/lib\libc.a(lib_a-strncmp.o)
 .debug_frame   0x0000666c       0x20 c:/altera/13.0/nios2eds/bin/gnu/h-i686-mingw32/bin/../lib/gcc/nios2-elf/4.1.2/../../../../nios2-elf/lib\libc.a(lib_a-strncpy.o)
 .debug_frame   0x0000668c       0x4c c:/altera/13.0/nios2eds/bin/gnu/h-i686-mingw32/bin/../lib/gcc/nios2-elf/4.1.2/../../../../nios2-elf/lib\libc.a(lib_a-strtol.o)
 .debug_frame   0x000066d8       0x30 c:/altera/13.0/nios2eds/bin/gnu/h-i686-mingw32/bin/../lib/gcc/nios2-elf/4.1.2/../../../../nios2-elf/lib\libc.a(lib_a-vprintf.o)
 .debug_frame   0x00006708       0x38 c:/altera/13.0/nios2eds/bin/gnu/h-i686-mingw32/bin/../lib/gcc/nios2-elf/4.1.2/../../../../nios2-elf/lib\libc.a(lib_a-vsprintf.o)
 .debug_frame   0x00006740       0x34 c:/altera/13.0/nios2eds/bin/gnu/h-i686-mingw32/bin/../lib/gcc/nios2-elf/4.1.2/../../../../nios2-elf/lib\libc.a(lib_a-__atexit.o)

.debug_str      0x00000000     0x360a
 *(.debug_str)
 .debug_str     0x00000000       0x12 obj/default/LCD.o
 .debug_str     0x00000012       0x3f obj/default/SSS_DE2_115.o
 .debug_str     0x00000051       0x4e obj/default/alt_error_handler.o
 .debug_str     0x0000009f       0x33 obj/default/dm9000a.o
 .debug_str     0x000000d2       0x1d obj/default/iniche_init.o
 .debug_str     0x000000ef       0x2b obj/default/led.o
 .debug_str     0x0000011a       0x52 obj/default/network_utilities.o
 .debug_str     0x0000016c       0x2c obj/default/simple_socket_server.o
 .debug_str     0x00000198      0x122 c:/altera/13.0/nios2eds/bin/gnu/h-i686-mingw32/bin/../lib/gcc/nios2-elf/4.1.2\libgcc.a(_fixunsdfsi.o)
                                0x168 (size before relaxing)
 .debug_str     0x000002ba      0x138 c:/altera/13.0/nios2eds/bin/gnu/h-i686-mingw32/bin/../lib/gcc/nios2-elf/4.1.2\libgcc.a(_addsub_df.o)
                                0x26c (size before relaxing)
 .debug_str     0x000003f2       0x45 c:/altera/13.0/nios2eds/bin/gnu/h-i686-mingw32/bin/../lib/gcc/nios2-elf/4.1.2\libgcc.a(_mul_df.o)
                                0x23e (size before relaxing)
 .debug_str     0x00000437        0x8 c:/altera/13.0/nios2eds/bin/gnu/h-i686-mingw32/bin/../lib/gcc/nios2-elf/4.1.2\libgcc.a(_ge_df.o)
                                0x1fb (size before relaxing)
 .debug_str     0x0000043f        0xa c:/altera/13.0/nios2eds/bin/gnu/h-i686-mingw32/bin/../lib/gcc/nios2-elf/4.1.2\libgcc.a(_df_to_si.o)
                                0x204 (size before relaxing)
 .debug_str     0x00000000      0x1a0 c:/altera/13.0/nios2eds/bin/gnu/h-i686-mingw32/bin/../lib/gcc/nios2-elf/4.1.2\libgcc.a(_thenan_df.o)
 .debug_str     0x00000449       0x1b c:/altera/13.0/nios2eds/bin/gnu/h-i686-mingw32/bin/../lib/gcc/nios2-elf/4.1.2\libgcc.a(_usi_to_df.o)
                                0x1d7 (size before relaxing)
 .debug_str     0x00000464       0x42 c:/altera/13.0/nios2eds/bin/gnu/h-i686-mingw32/bin/../lib/gcc/nios2-elf/4.1.2\libgcc.a(_muldi3.o)
                                0x1a9 (size before relaxing)
 .debug_str     0x000004a6       0x20 c:/altera/13.0/nios2eds/bin/gnu/h-i686-mingw32/bin/../lib/gcc/nios2-elf/4.1.2\libgcc.a(_clzsi2.o)
                                0x17b (size before relaxing)
 .debug_str     0x000004c6       0x10 c:/altera/13.0/nios2eds/bin/gnu/h-i686-mingw32/bin/../lib/gcc/nios2-elf/4.1.2\libgcc.a(_pack_df.o)
                                0x203 (size before relaxing)
 .debug_str     0x000004d6        0xb c:/altera/13.0/nios2eds/bin/gnu/h-i686-mingw32/bin/../lib/gcc/nios2-elf/4.1.2\libgcc.a(_unpack_df.o)
                                0x1e5 (size before relaxing)
 .debug_str     0x000004e1       0x10 c:/altera/13.0/nios2eds/bin/gnu/h-i686-mingw32/bin/../lib/gcc/nios2-elf/4.1.2\libgcc.a(_fpcmp_parts_df.o)
                                0x1c3 (size before relaxing)
 .debug_str     0x00000000      0x15e c:/altera/13.0/nios2eds/bin/gnu/h-i686-mingw32/bin/../lib/gcc/nios2-elf/4.1.2\libgcc.a(_clz.o)
 .debug_str     0x000004f1       0xdf c:/altera/13.0/nios2eds/bin/gnu/h-i686-mingw32/bin/../lib/gcc/nios2-elf/4.1.2/../../../../nios2-elf/lib\libc.a(lib_a-ctype_.o)
                                0x102 (size before relaxing)
 .debug_str     0x000005d0      0x43b c:/altera/13.0/nios2eds/bin/gnu/h-i686-mingw32/bin/../lib/gcc/nios2-elf/4.1.2/../../../../nios2-elf/lib\libc.a(lib_a-exit.o)
                                0x509 (size before relaxing)
 .debug_str     0x00000a0b       0xe5 c:/altera/13.0/nios2eds/bin/gnu/h-i686-mingw32/bin/../lib/gcc/nios2-elf/4.1.2/../../../../nios2-elf/lib\libc.a(lib_a-fprintf.o)
                                0x51c (size before relaxing)
 .debug_str     0x00000af0       0x87 c:/altera/13.0/nios2eds/bin/gnu/h-i686-mingw32/bin/../lib/gcc/nios2-elf/4.1.2/../../../../nios2-elf/lib\libc.a(lib_a-fwrite.o)
                                0x55c (size before relaxing)
 .debug_str     0x00000b77       0x45 c:/altera/13.0/nios2eds/bin/gnu/h-i686-mingw32/bin/../lib/gcc/nios2-elf/4.1.2/../../../../nios2-elf/lib\libc.a(lib_a-getc.o)
                                0x50f (size before relaxing)
 .debug_str     0x00000bbc       0xce c:/altera/13.0/nios2eds/bin/gnu/h-i686-mingw32/bin/../lib/gcc/nios2-elf/4.1.2/../../../../nios2-elf/lib\libc.a(lib_a-impure.o)
                                0x517 (size before relaxing)
 .debug_str     0x00000c8a       0xf2 c:/altera/13.0/nios2eds/bin/gnu/h-i686-mingw32/bin/../lib/gcc/nios2-elf/4.1.2/../../../../nios2-elf/lib\libc.a(lib_a-memcpy.o)
                                0x125 (size before relaxing)
 .debug_str     0x00000d7c       0x5d c:/altera/13.0/nios2eds/bin/gnu/h-i686-mingw32/bin/../lib/gcc/nios2-elf/4.1.2/../../../../nios2-elf/lib\libc.a(lib_a-memmove.o)
                                0x19a (size before relaxing)
 .debug_str     0x00000dd9       0x56 c:/altera/13.0/nios2eds/bin/gnu/h-i686-mingw32/bin/../lib/gcc/nios2-elf/4.1.2/../../../../nios2-elf/lib\libc.a(lib_a-memset.o)
                                0x17b (size before relaxing)
 .debug_str     0x00000e2f       0x4b c:/altera/13.0/nios2eds/bin/gnu/h-i686-mingw32/bin/../lib/gcc/nios2-elf/4.1.2/../../../../nios2-elf/lib\libc.a(lib_a-perror.o)
                                0x50f (size before relaxing)
 .debug_str     0x00000e7a       0x44 c:/altera/13.0/nios2eds/bin/gnu/h-i686-mingw32/bin/../lib/gcc/nios2-elf/4.1.2/../../../../nios2-elf/lib\libc.a(lib_a-printf.o)
                                0x520 (size before relaxing)
 .debug_str     0x00000ebe       0x40 c:/altera/13.0/nios2eds/bin/gnu/h-i686-mingw32/bin/../lib/gcc/nios2-elf/4.1.2/../../../../nios2-elf/lib\libc.a(lib_a-putc.o)
                                0x50f (size before relaxing)
 .debug_str     0x00000efe       0x4e c:/altera/13.0/nios2eds/bin/gnu/h-i686-mingw32/bin/../lib/gcc/nios2-elf/4.1.2/../../../../nios2-elf/lib\libc.a(lib_a-putchar.o)
                                0x50c (size before relaxing)
 .debug_str     0x00000f4c       0x40 c:/altera/13.0/nios2eds/bin/gnu/h-i686-mingw32/bin/../lib/gcc/nios2-elf/4.1.2/../../../../nios2-elf/lib\libc.a(lib_a-puts.o)
                                0x546 (size before relaxing)
 .debug_str     0x00000f8c       0x4a c:/altera/13.0/nios2eds/bin/gnu/h-i686-mingw32/bin/../lib/gcc/nios2-elf/4.1.2/../../../../nios2-elf/lib\libc.a(lib_a-rget.o)
                                0x50d (size before relaxing)
 .debug_str     0x00000fd6       0x47 c:/altera/13.0/nios2eds/bin/gnu/h-i686-mingw32/bin/../lib/gcc/nios2-elf/4.1.2/../../../../nios2-elf/lib\libc.a(lib_a-strchr.o)
                                0x172 (size before relaxing)
 .debug_str     0x0000101d       0x44 c:/altera/13.0/nios2eds/bin/gnu/h-i686-mingw32/bin/../lib/gcc/nios2-elf/4.1.2/../../../../nios2-elf/lib\libc.a(lib_a-strerror.o)
                                0x171 (size before relaxing)
 .debug_str     0x00001061       0x42 c:/altera/13.0/nios2eds/bin/gnu/h-i686-mingw32/bin/../lib/gcc/nios2-elf/4.1.2/../../../../nios2-elf/lib\libc.a(lib_a-strlen.o)
                                0x17a (size before relaxing)
 .debug_str     0x000010a3       0x4c c:/altera/13.0/nios2eds/bin/gnu/h-i686-mingw32/bin/../lib/gcc/nios2-elf/4.1.2/../../../../nios2-elf/lib\libc.a(lib_a-u_strerr.o)
                                 0xed (size before relaxing)
 .debug_str     0x000010ef      0x178 c:/altera/13.0/nios2eds/bin/gnu/h-i686-mingw32/bin/../lib/gcc/nios2-elf/4.1.2/../../../../nios2-elf/lib\libc.a(lib_a-vfprintf.o)
                                0x6f5 (size before relaxing)
 .debug_str     0x00001267       0x4a c:/altera/13.0/nios2eds/bin/gnu/h-i686-mingw32/bin/../lib/gcc/nios2-elf/4.1.2/../../../../nios2-elf/lib\libc.a(lib_a-wbuf.o)
                                0x50d (size before relaxing)
 .debug_str     0x000012b1       0x46 c:/altera/13.0/nios2eds/bin/gnu/h-i686-mingw32/bin/../lib/gcc/nios2-elf/4.1.2/../../../../nios2-elf/lib\libc.a(lib_a-wsetup.o)
                                0x509 (size before relaxing)
 .debug_str     0x000012f7       0x7b c:/altera/13.0/nios2eds/bin/gnu/h-i686-mingw32/bin/../lib/gcc/nios2-elf/4.1.2/../../../../nios2-elf/lib\libc.a(lib_a-__call_atexit.o)
                                0x54b (size before relaxing)
 .debug_str     0x00001372      0x102 c:/altera/13.0/nios2eds/bin/gnu/h-i686-mingw32/bin/../lib/gcc/nios2-elf/4.1.2/../../../../nios2-elf/lib\libc.a(lib_a-dtoa.o)
                                0x5fe (size before relaxing)
 .debug_str     0x00001474       0x52 c:/altera/13.0/nios2eds/bin/gnu/h-i686-mingw32/bin/../lib/gcc/nios2-elf/4.1.2/../../../../nios2-elf/lib\libc.a(lib_a-fflush.o)
                                0x52f (size before relaxing)
 .debug_str     0x000014c6      0x102 c:/altera/13.0/nios2eds/bin/gnu/h-i686-mingw32/bin/../lib/gcc/nios2-elf/4.1.2/../../../../nios2-elf/lib\libc.a(lib_a-findfp.o)
                                0x5f1 (size before relaxing)
 .debug_str     0x000015c8       0x48 c:/altera/13.0/nios2eds/bin/gnu/h-i686-mingw32/bin/../lib/gcc/nios2-elf/4.1.2/../../../../nios2-elf/lib\libc.a(lib_a-fputc.o)
                                0x517 (size before relaxing)
 .debug_str     0x00001610       0x48 c:/altera/13.0/nios2eds/bin/gnu/h-i686-mingw32/bin/../lib/gcc/nios2-elf/4.1.2/../../../../nios2-elf/lib\libc.a(lib_a-fputs.o)
                                0x555 (size before relaxing)
 .debug_str     0x00001658      0x15b c:/altera/13.0/nios2eds/bin/gnu/h-i686-mingw32/bin/../lib/gcc/nios2-elf/4.1.2/../../../../nios2-elf/lib\libc.a(lib_a-freer.o)
                                0x640 (size before relaxing)
 .debug_str     0x000017b3       0x66 c:/altera/13.0/nios2eds/bin/gnu/h-i686-mingw32/bin/../lib/gcc/nios2-elf/4.1.2/../../../../nios2-elf/lib\libc.a(lib_a-fvwrite.o)
                                0x560 (size before relaxing)
 .debug_str     0x00001819       0x5e c:/altera/13.0/nios2eds/bin/gnu/h-i686-mingw32/bin/../lib/gcc/nios2-elf/4.1.2/../../../../nios2-elf/lib\libc.a(lib_a-fwalk.o)
                                0x532 (size before relaxing)
 .debug_str     0x00001877      0x222 c:/altera/13.0/nios2eds/bin/gnu/h-i686-mingw32/bin/../lib/gcc/nios2-elf/4.1.2/../../../../nios2-elf/lib\libc.a(lib_a-locale.o)
                                0x6a6 (size before relaxing)
 .debug_str     0x00001a99      0x123 c:/altera/13.0/nios2eds/bin/gnu/h-i686-mingw32/bin/../lib/gcc/nios2-elf/4.1.2/../../../../nios2-elf/lib\libc.a(lib_a-makebuf.o)
                                0x603 (size before relaxing)
 .debug_str     0x00001bbc       0xe9 c:/altera/13.0/nios2eds/bin/gnu/h-i686-mingw32/bin/../lib/gcc/nios2-elf/4.1.2/../../../../nios2-elf/lib\libc.a(lib_a-mallocr.o)
                                0x6ee (size before relaxing)
 .debug_str     0x00001ca5       0x47 c:/altera/13.0/nios2eds/bin/gnu/h-i686-mingw32/bin/../lib/gcc/nios2-elf/4.1.2/../../../../nios2-elf/lib\libc.a(lib_a-memchr.o)
                                0x188 (size before relaxing)
 .debug_str     0x00001cec       0xf8 c:/altera/13.0/nios2eds/bin/gnu/h-i686-mingw32/bin/../lib/gcc/nios2-elf/4.1.2/../../../../nios2-elf/lib\libc.a(lib_a-mprec.o)
                                0x60b (size before relaxing)
 .debug_str     0x00001de4       0x59 c:/altera/13.0/nios2eds/bin/gnu/h-i686-mingw32/bin/../lib/gcc/nios2-elf/4.1.2/../../../../nios2-elf/lib\libc.a(lib_a-reallocr.o)
                                0x5c0 (size before relaxing)
 .debug_str     0x00001e3d       0x4d c:/altera/13.0/nios2eds/bin/gnu/h-i686-mingw32/bin/../lib/gcc/nios2-elf/4.1.2/../../../../nios2-elf/lib\libc.a(lib_a-refill.o)
                                0x517 (size before relaxing)
 .debug_str     0x00001e8a       0xd9 c:/altera/13.0/nios2eds/bin/gnu/h-i686-mingw32/bin/../lib/gcc/nios2-elf/4.1.2/../../../../nios2-elf/lib\libc.a(lib_a-s_isinfd.o)
                                0x187 (size before relaxing)
 .debug_str     0x00001f63       0x46 c:/altera/13.0/nios2eds/bin/gnu/h-i686-mingw32/bin/../lib/gcc/nios2-elf/4.1.2/../../../../nios2-elf/lib\libc.a(lib_a-s_isnand.o)
                                0x187 (size before relaxing)
 .debug_str     0x00001fa9       0x50 c:/altera/13.0/nios2eds/bin/gnu/h-i686-mingw32/bin/../lib/gcc/nios2-elf/4.1.2/../../../../nios2-elf/lib\libc.a(lib_a-sbrkr.o)
                                0x508 (size before relaxing)
 .debug_str     0x00001ff9       0x62 c:/altera/13.0/nios2eds/bin/gnu/h-i686-mingw32/bin/../lib/gcc/nios2-elf/4.1.2/../../../../nios2-elf/lib\libc.a(lib_a-stdio.o)
                                0x52e (size before relaxing)
 .debug_str     0x0000205b       0x42 c:/altera/13.0/nios2eds/bin/gnu/h-i686-mingw32/bin/../lib/gcc/nios2-elf/4.1.2/../../../../nios2-elf/lib\libc.a(lib_a-strcmp.o)
                                0x160 (size before relaxing)
 .debug_str     0x0000209d       0x4c c:/altera/13.0/nios2eds/bin/gnu/h-i686-mingw32/bin/../lib/gcc/nios2-elf/4.1.2/../../../../nios2-elf/lib\libc.a(lib_a-writer.o)
                                0x50b (size before relaxing)
 .debug_str     0x000020e9       0x19 c:/altera/13.0/nios2eds/bin/gnu/h-i686-mingw32/bin/../lib/gcc/nios2-elf/4.1.2/../../../../nios2-elf/lib\libc.a(lib_a-callocr.o)
                                0x53f (size before relaxing)
 .debug_str     0x00002102       0x43 c:/altera/13.0/nios2eds/bin/gnu/h-i686-mingw32/bin/../lib/gcc/nios2-elf/4.1.2/../../../../nios2-elf/lib\libc.a(lib_a-closer.o)
                                0x4fb (size before relaxing)
 .debug_str     0x00002145       0x4b c:/altera/13.0/nios2eds/bin/gnu/h-i686-mingw32/bin/../lib/gcc/nios2-elf/4.1.2/../../../../nios2-elf/lib\libc.a(lib_a-fclose.o)
                                0x513 (size before relaxing)
 .debug_str     0x00002190       0x49 c:/altera/13.0/nios2eds/bin/gnu/h-i686-mingw32/bin/../lib/gcc/nios2-elf/4.1.2/../../../../nios2-elf/lib\libc.a(lib_a-fstatr.o)
                                0x5ee (size before relaxing)
 .debug_str     0x000021d9       0x3d c:/altera/13.0/nios2eds/bin/gnu/h-i686-mingw32/bin/../lib/gcc/nios2-elf/4.1.2/../../../../nios2-elf/lib\libc.a(lib_a-int_errno.o)
                                0x160 (size before relaxing)
 .debug_str     0x00002216       0x45 c:/altera/13.0/nios2eds/bin/gnu/h-i686-mingw32/bin/../lib/gcc/nios2-elf/4.1.2/../../../../nios2-elf/lib\libc.a(lib_a-isattyr.o)
                                0x4fd (size before relaxing)
 .debug_str     0x0000225b       0x43 c:/altera/13.0/nios2eds/bin/gnu/h-i686-mingw32/bin/../lib/gcc/nios2-elf/4.1.2/../../../../nios2-elf/lib\libc.a(lib_a-lseekr.o)
                                0x509 (size before relaxing)
 .debug_str     0x0000229e       0x41 c:/altera/13.0/nios2eds/bin/gnu/h-i686-mingw32/bin/../lib/gcc/nios2-elf/4.1.2/../../../../nios2-elf/lib\libc.a(lib_a-readr.o)
                                0x509 (size before relaxing)
 .debug_str     0x000022df       0x35 c:/altera/13.0/nios2eds/bin/gnu/h-i686-mingw32/bin/../lib/gcc/nios2-elf/4.1.2\libgcc.a(_udivdi3.o)
                                0x1f4 (size before relaxing)
 .debug_str     0x00002314        0xa c:/altera/13.0/nios2eds/bin/gnu/h-i686-mingw32/bin/../lib/gcc/nios2-elf/4.1.2\libgcc.a(_umoddi3.o)
                                0x1f4 (size before relaxing)
 .debug_str     0x0000231e       0x35 c:/altera/13.0/nios2eds/bin/gnu/h-i686-mingw32/bin/../lib/gcc/nios2-elf/4.1.2\libgcc.a(_div_df.o)
                                0x22e (size before relaxing)
 .debug_str     0x00002353        0x8 c:/altera/13.0/nios2eds/bin/gnu/h-i686-mingw32/bin/../lib/gcc/nios2-elf/4.1.2\libgcc.a(_eq_df.o)
                                0x1fb (size before relaxing)
 .debug_str     0x0000235b        0x8 c:/altera/13.0/nios2eds/bin/gnu/h-i686-mingw32/bin/../lib/gcc/nios2-elf/4.1.2\libgcc.a(_ne_df.o)
                                0x1fb (size before relaxing)
 .debug_str     0x00002363        0x8 c:/altera/13.0/nios2eds/bin/gnu/h-i686-mingw32/bin/../lib/gcc/nios2-elf/4.1.2\libgcc.a(_gt_df.o)
                                0x1fb (size before relaxing)
 .debug_str     0x0000236b        0x8 c:/altera/13.0/nios2eds/bin/gnu/h-i686-mingw32/bin/../lib/gcc/nios2-elf/4.1.2\libgcc.a(_lt_df.o)
                                0x1fb (size before relaxing)
 .debug_str     0x00002373       0x11 c:/altera/13.0/nios2eds/bin/gnu/h-i686-mingw32/bin/../lib/gcc/nios2-elf/4.1.2\libgcc.a(_si_to_df.o)
                                0x1db (size before relaxing)
 .debug_str     0x00002384       0x76 c:/altera/13.0/nios2eds/bin/gnu/h-i686-mingw32/bin/../lib/gcc/nios2-elf/4.1.2\libgcc.a(lib2-divmod.o)
                                0x1b1 (size before relaxing)
 .debug_str     0x000023fa       0x1c ../socket_simples_bsp/\libucosii_bsp.a(alt_exit.o)
 .debug_str     0x00002416       0x2d ../socket_simples_bsp/\libucosii_bsp.a(alt_flash_dev.o)
 .debug_str     0x00002443       0x12 ../socket_simples_bsp/\libucosii_bsp.a(alt_fstat.o)
 .debug_str     0x00002455       0x21 ../socket_simples_bsp/\libucosii_bsp.a(alt_irq_register.o)
 .debug_str     0x00002476       0x12 ../socket_simples_bsp/\libucosii_bsp.a(alt_isatty.o)
 .debug_str     0x00002488       0x12 ../socket_simples_bsp/\libucosii_bsp.a(alt_lseek.o)
 .debug_str     0x0000249a       0x12 ../socket_simples_bsp/\libucosii_bsp.a(alt_main.o)
 .debug_str     0x000024ac       0x1a ../socket_simples_bsp/\libucosii_bsp.a(alt_sbrk.o)
 .debug_str     0x000024c6       0x12 ../socket_simples_bsp/\libucosii_bsp.a(alt_usleep.o)
 .debug_str     0x000024d8       0x36 ../socket_simples_bsp/\libucosii_bsp.a(alt_env_lock.o)
 .debug_str     0x0000250e       0x36 ../socket_simples_bsp/\libucosii_bsp.a(alt_malloc_lock.o)
 .debug_str     0x00002544       0x46 ../socket_simples_bsp/\libucosii_bsp.a(os_core.o)
 .debug_str     0x0000258a       0x2b ../socket_simples_bsp/\libucosii_bsp.a(os_dbg.o)
 .debug_str     0x000025b5       0x4e ../socket_simples_bsp/\libucosii_bsp.a(os_flag.o)
 .debug_str     0x00002603       0x2c ../socket_simples_bsp/\libucosii_bsp.a(os_mem.o)
 .debug_str     0x0000262f       0x36 ../socket_simples_bsp/\libucosii_bsp.a(os_q.o)
 .debug_str     0x00002665       0x36 ../socket_simples_bsp/\libucosii_bsp.a(os_sem.o)
 .debug_str     0x0000269b       0x23 ../socket_simples_bsp/\libucosii_bsp.a(os_task.o)
 .debug_str     0x000026be       0x1f ../socket_simples_bsp/\libucosii_bsp.a(os_time.o)
 .debug_str     0x000026dd       0x67 ../socket_simples_bsp/\libucosii_bsp.a(alt_sys_init.o)
 .debug_str     0x00002744       0x82 ../socket_simples_bsp/\libucosii_bsp.a(altera_avalon_cfi_flash.o)
 .debug_str     0x000027c6       0x6d ../socket_simples_bsp/\libucosii_bsp.a(altera_avalon_cfi_flash_table.o)
 .debug_str     0x00002833       0x90 ../socket_simples_bsp/\libucosii_bsp.a(altera_avalon_epcs_flash_controller.o)
 .debug_str     0x000028c3       0x12 ../socket_simples_bsp/\libucosii_bsp.a(altera_avalon_jtag_uart_fd.o)
 .debug_str     0x000028d5       0x1a ../socket_simples_bsp/\libucosii_bsp.a(altera_avalon_jtag_uart_init.o)
 .debug_str     0x000028ef       0x12 ../socket_simples_bsp/\libucosii_bsp.a(altera_avalon_jtag_uart_ioctl.o)
 .debug_str     0x00002901       0x22 ../socket_simples_bsp/\libucosii_bsp.a(altera_avalon_jtag_uart_read.o)
 .debug_str     0x00002923       0x22 ../socket_simples_bsp/\libucosii_bsp.a(altera_avalon_jtag_uart_write.o)
 .debug_str     0x00002945       0x25 ../socket_simples_bsp/\libucosii_bsp.a(altera_avalon_lcd_16207.o)
 .debug_str     0x0000296a       0x12 ../socket_simples_bsp/\libucosii_bsp.a(altera_avalon_lcd_16207_fd.o)
 .debug_str     0x0000297c       0x12 ../socket_simples_bsp/\libucosii_bsp.a(altera_avalon_timer_sc.o)
 .debug_str     0x0000298e       0x12 ../socket_simples_bsp/\libucosii_bsp.a(altera_avalon_uart_fd.o)
 .debug_str     0x000029a0       0x1f ../socket_simples_bsp/\libucosii_bsp.a(altera_avalon_uart_init.o)
 .debug_str     0x000029bf       0x1a ../socket_simples_bsp/\libucosii_bsp.a(altera_avalon_uart_read.o)
 .debug_str     0x000029d9       0x1a ../socket_simples_bsp/\libucosii_bsp.a(altera_avalon_uart_write.o)
 .debug_str     0x000029f3       0x2e ../socket_simples_bsp/\libucosii_bsp.a(epcs_commands.o)
 .debug_str     0x00002a21       0x12 ../socket_simples_bsp/\libucosii_bsp.a(alt_iniche_close.o)
 .debug_str     0x00002a33       0x12 ../socket_simples_bsp/\libucosii_bsp.a(alt_iniche_dev.o)
 .debug_str     0x00002a45       0x12 ../socket_simples_bsp/\libucosii_bsp.a(alt_iniche_read.o)
 .debug_str     0x00002a57       0x12 ../socket_simples_bsp/\libucosii_bsp.a(alt_iniche_write.o)
 .debug_str     0x00002a69       0x12 ../socket_simples_bsp/\libucosii_bsp.a(ipnet.o)
 .debug_str     0x00002a7b       0x12 ../socket_simples_bsp/\libucosii_bsp.a(ipstart.o)
 .debug_str     0x00002a8d       0x12 ../socket_simples_bsp/\libucosii_bsp.a(igmp_cmn.o)
 .debug_str     0x00002a9f       0x20 ../socket_simples_bsp/\libucosii_bsp.a(bsdsock.o)
 .debug_str     0x00002abf       0x12 ../socket_simples_bsp/\libucosii_bsp.a(cksum.o)
 .debug_str     0x00002ad1       0x12 ../socket_simples_bsp/\libucosii_bsp.a(in_utils.o)
 .debug_str     0x00002ae3       0x12 ../socket_simples_bsp/\libucosii_bsp.a(netmain.o)
 .debug_str     0x00002af5       0x12 ../socket_simples_bsp/\libucosii_bsp.a(parseip.o)
 .debug_str     0x00002b07       0x12 ../socket_simples_bsp/\libucosii_bsp.a(tk_crnos.o)
 .debug_str     0x00002b19       0x2e ../socket_simples_bsp/\libucosii_bsp.a(dhcpclnt.o)
 .debug_str     0x00002b47       0x12 ../socket_simples_bsp/\libucosii_bsp.a(dhcputil.o)
 .debug_str     0x00002b59       0x12 ../socket_simples_bsp/\libucosii_bsp.a(pktalloc.o)
 .debug_str     0x00002b6b       0x12 ../socket_simples_bsp/\libucosii_bsp.a(q.o)
 .debug_str     0x00002b7d       0x12 ../socket_simples_bsp/\libucosii_bsp.a(udp_open.o)
 .debug_str     0x00002b8f       0x20 ../socket_simples_bsp/\libucosii_bsp.a(brdutils.o)
 .debug_str     0x00002baf       0x22 ../socket_simples_bsp/\libucosii_bsp.a(osportco.o)
 .debug_str     0x00002bd1       0x12 ../socket_simples_bsp/\libucosii_bsp.a(targnios.o)
 .debug_str     0x00002be3       0x1e ../socket_simples_bsp/\libucosii_bsp.a(nptcp.o)
 .debug_str     0x00002c01       0x12 ../socket_simples_bsp/\libucosii_bsp.a(rawsock.o)
 .debug_str     0x00002c13       0x34 ../socket_simples_bsp/\libucosii_bsp.a(sockcall.o)
 .debug_str     0x00002c47       0x18 ../socket_simples_bsp/\libucosii_bsp.a(socket.o)
 .debug_str     0x00002c5f       0x12 ../socket_simples_bsp/\libucosii_bsp.a(socket2.o)
 .debug_str     0x00002c71       0x12 ../socket_simples_bsp/\libucosii_bsp.a(soselect.o)
 .debug_str     0x00002c83       0x12 ../socket_simples_bsp/\libucosii_bsp.a(tcp_in.o)
 .debug_str     0x00002c95       0x12 ../socket_simples_bsp/\libucosii_bsp.a(tcp_out.o)
 .debug_str     0x00002ca7       0x12 ../socket_simples_bsp/\libucosii_bsp.a(tcp_subr.o)
 .debug_str     0x00002cb9       0x12 ../socket_simples_bsp/\libucosii_bsp.a(tcp_timr.o)
 .debug_str     0x00002ccb       0x12 ../socket_simples_bsp/\libucosii_bsp.a(tcp_usr.o)
 .debug_str     0x00002cdd       0x12 ../socket_simples_bsp/\libucosii_bsp.a(tcpport.o)
 .debug_str     0x00002cef       0x1a ../socket_simples_bsp/\libucosii_bsp.a(udpsock.o)
 .debug_str     0x00002d09       0x23 ../socket_simples_bsp/\libucosii_bsp.a(alt_alarm_start.o)
 .debug_str     0x00002d2c       0x12 ../socket_simples_bsp/\libucosii_bsp.a(alt_busy_sleep.o)
 .debug_str     0x00002d3e       0x12 ../socket_simples_bsp/\libucosii_bsp.a(alt_close.o)
 .debug_str     0x00002d50       0x12 ../socket_simples_bsp/\libucosii_bsp.a(alt_dcache_flush.o)
 .debug_str     0x00002d62       0x12 ../socket_simples_bsp/\libucosii_bsp.a(alt_dev.o)
 .debug_str     0x00002d74       0x12 ../socket_simples_bsp/\libucosii_bsp.a(alt_dev_llist_insert.o)
 .debug_str     0x00002d86       0x12 ../socket_simples_bsp/\libucosii_bsp.a(alt_errno.o)
 .debug_str     0x00002d98       0x12 ../socket_simples_bsp/\libucosii_bsp.a(alt_find_dev.o)
 .debug_str     0x00002daa       0x18 ../socket_simples_bsp/\libucosii_bsp.a(alt_iic.o)
 .debug_str     0x00002dc2       0x1a ../socket_simples_bsp/\libucosii_bsp.a(alt_iic_isr_register.o)
 .debug_str     0x00002ddc       0x12 ../socket_simples_bsp/\libucosii_bsp.a(alt_io_redirect.o)
 .debug_str     0x00002dee       0x12 ../socket_simples_bsp/\libucosii_bsp.a(alt_irq_handler.o)
 .debug_str     0x00002e00       0x12 ../socket_simples_bsp/\libucosii_bsp.a(alt_open.o)
 .debug_str     0x00002e12       0x12 ../socket_simples_bsp/\libucosii_bsp.a(alt_read.o)
 .debug_str     0x00002e24       0x12 ../socket_simples_bsp/\libucosii_bsp.a(alt_release_fd.o)
 .debug_str     0x00002e36       0x12 ../socket_simples_bsp/\libucosii_bsp.a(alt_remap_cached.o)
 .debug_str     0x00002e48       0x12 ../socket_simples_bsp/\libucosii_bsp.a(alt_remap_uncached.o)
 .debug_str     0x00002e5a       0x1a ../socket_simples_bsp/\libucosii_bsp.a(alt_tick.o)
 .debug_str     0x00002e74       0x12 ../socket_simples_bsp/\libucosii_bsp.a(alt_write.o)
 .debug_str     0x00002e86       0x12 ../socket_simples_bsp/\libucosii_bsp.a(altera_nios2_qsys_irq.o)
 .debug_str     0x00002e98       0x20 ../socket_simples_bsp/\libucosii_bsp.a(os_cpu_c.o)
 .debug_str     0x00002eb8       0x76 ../socket_simples_bsp/\libucosii_bsp.a(altera_avalon_cfi_flash_amd.o)
 .debug_str     0x00002f2e       0x7d ../socket_simples_bsp/\libucosii_bsp.a(altera_avalon_cfi_flash_intel.o)
 .debug_str     0x00002fab       0x12 ../socket_simples_bsp/\libucosii_bsp.a(allports.o)
 .debug_str     0x00002fbd       0x1b ../socket_simples_bsp/\libucosii_bsp.a(timeouts.o)
 .debug_str     0x00002fd8       0x12 ../socket_simples_bsp/\libucosii_bsp.a(tk_misc.o)
 .debug_str     0x00002fea       0x12 ../socket_simples_bsp/\libucosii_bsp.a(alt_iniche_fcntl.o)
 .debug_str     0x00002ffc       0x3d ../socket_simples_bsp/\libucosii_bsp.a(et_arp.o)
 .debug_str     0x00003039       0x12 ../socket_simples_bsp/\libucosii_bsp.a(iface.o)
 .debug_str     0x0000304b       0x2c ../socket_simples_bsp/\libucosii_bsp.a(ip.o)
 .debug_str     0x00003077       0x4e ../socket_simples_bsp/\libucosii_bsp.a(ip_reasm.o)
 .debug_str     0x000030c5       0x12 ../socket_simples_bsp/\libucosii_bsp.a(ipdemux.o)
 .debug_str     0x000030d7       0x12 ../socket_simples_bsp/\libucosii_bsp.a(ipmc.o)
 .debug_str     0x000030e9       0x12 ../socket_simples_bsp/\libucosii_bsp.a(ipport.o)
 .debug_str     0x000030fb       0x12 ../socket_simples_bsp/\libucosii_bsp.a(ipraw.o)
 .debug_str     0x0000310d       0x12 ../socket_simples_bsp/\libucosii_bsp.a(iproute.o)
 .debug_str     0x0000311f       0x12 ../socket_simples_bsp/\libucosii_bsp.a(udp.o)
 .debug_str     0x00003131       0x12 ../socket_simples_bsp/\libucosii_bsp.a(igmp.o)
 .debug_str     0x00003143       0x20 ../socket_simples_bsp/\libucosii_bsp.a(igmp2.o)
 .debug_str     0x00003163       0x12 ../socket_simples_bsp/\libucosii_bsp.a(ipopt.o)
 .debug_str     0x00003175       0x12 ../socket_simples_bsp/\libucosii_bsp.a(u_mctest.o)
 .debug_str     0x00003187       0x12 ../socket_simples_bsp/\libucosii_bsp.a(dhcsetup.o)
 .debug_str     0x00003199       0x1b ../socket_simples_bsp/\libucosii_bsp.a(memdev.o)
 .debug_str     0x000031b4       0x12 ../socket_simples_bsp/\libucosii_bsp.a(tcpcksum.o)
 .debug_str     0x000031c6       0x12 ../socket_simples_bsp/\libucosii_bsp.a(in_pcb.o)
 .debug_str     0x000031d8       0x2b ../socket_simples_bsp/\libucosii_bsp.a(vfsfiles.o)
 .debug_str     0x00003203       0x12 ../socket_simples_bsp/\libucosii_bsp.a(vfsport.o)
 .debug_str     0x00003215       0x12 ../socket_simples_bsp/\libucosii_bsp.a(alt_fcntl.o)
 .debug_str     0x00003227       0x12 ../socket_simples_bsp/\libucosii_bsp.a(alt_find_file.o)
 .debug_str     0x00003239       0x12 ../socket_simples_bsp/\libucosii_bsp.a(alt_get_fd.o)
 .debug_str     0x0000324b       0x12 ../socket_simples_bsp/\libucosii_bsp.a(icmp.o)
 .debug_str     0x0000325d       0x3b c:/altera/13.0/nios2eds/bin/gnu/h-i686-mingw32/bin/../lib/gcc/nios2-elf/4.1.2/../../../../nios2-elf/lib\libc.a(lib_a-atexit.o)
                                0x1bc (size before relaxing)
 .debug_str     0x00003298       0x46 c:/altera/13.0/nios2eds/bin/gnu/h-i686-mingw32/bin/../lib/gcc/nios2-elf/4.1.2/../../../../nios2-elf/lib\libc.a(lib_a-atoi.o)
                                0x4f9 (size before relaxing)
 .debug_str     0x000032de       0x42 c:/altera/13.0/nios2eds/bin/gnu/h-i686-mingw32/bin/../lib/gcc/nios2-elf/4.1.2/../../../../nios2-elf/lib\libc.a(lib_a-calloc.o)
                                0x50d (size before relaxing)
 .debug_str     0x00003320       0x47 c:/altera/13.0/nios2eds/bin/gnu/h-i686-mingw32/bin/../lib/gcc/nios2-elf/4.1.2/../../../../nios2-elf/lib\libc.a(lib_a-malloc.o)
                                0x519 (size before relaxing)
 .debug_str     0x00003367       0x42 c:/altera/13.0/nios2eds/bin/gnu/h-i686-mingw32/bin/../lib/gcc/nios2-elf/4.1.2/../../../../nios2-elf/lib\libc.a(lib_a-memcmp.o)
                                0x167 (size before relaxing)
 .debug_str     0x000033a9       0x46 c:/altera/13.0/nios2eds/bin/gnu/h-i686-mingw32/bin/../lib/gcc/nios2-elf/4.1.2/../../../../nios2-elf/lib\libc.a(lib_a-sprintf.o)
                                0x528 (size before relaxing)
 .debug_str     0x000033ef       0x42 c:/altera/13.0/nios2eds/bin/gnu/h-i686-mingw32/bin/../lib/gcc/nios2-elf/4.1.2/../../../../nios2-elf/lib\libc.a(lib_a-strcpy.o)
                                0x182 (size before relaxing)
 .debug_str     0x00003431       0x44 c:/altera/13.0/nios2eds/bin/gnu/h-i686-mingw32/bin/../lib/gcc/nios2-elf/4.1.2/../../../../nios2-elf/lib\libc.a(lib_a-strncmp.o)
                                0x169 (size before relaxing)
 .debug_str     0x00003475       0x44 c:/altera/13.0/nios2eds/bin/gnu/h-i686-mingw32/bin/../lib/gcc/nios2-elf/4.1.2/../../../../nios2-elf/lib\libc.a(lib_a-strncpy.o)
                                0x191 (size before relaxing)
 .debug_str     0x000034b9       0x61 c:/altera/13.0/nios2eds/bin/gnu/h-i686-mingw32/bin/../lib/gcc/nios2-elf/4.1.2/../../../../nios2-elf/lib\libc.a(lib_a-strtol.o)
                                0x53b (size before relaxing)
 .debug_str     0x0000351a       0x4e c:/altera/13.0/nios2eds/bin/gnu/h-i686-mingw32/bin/../lib/gcc/nios2-elf/4.1.2/../../../../nios2-elf/lib\libc.a(lib_a-vprintf.o)
                                0x523 (size before relaxing)
 .debug_str     0x00003568       0x51 c:/altera/13.0/nios2eds/bin/gnu/h-i686-mingw32/bin/../lib/gcc/nios2-elf/4.1.2/../../../../nios2-elf/lib\libc.a(lib_a-vsprintf.o)
                                0x52b (size before relaxing)
 .debug_str     0x000035b9       0x51 c:/altera/13.0/nios2eds/bin/gnu/h-i686-mingw32/bin/../lib/gcc/nios2-elf/4.1.2/../../../../nios2-elf/lib\libc.a(lib_a-__atexit.o)
                                0x521 (size before relaxing)

.debug_loc      0x00000000    0x13e4f
 *(.debug_loc)
 .debug_loc     0x00000000      0x103 obj/default/LCD.o
 .debug_loc     0x00000103       0x56 obj/default/SSS_DE2_115.o
 .debug_loc     0x00000159       0x81 obj/default/alt_error_handler.o
 .debug_loc     0x000001da      0x25a obj/default/dm9000a.o
 .debug_loc     0x00000434       0xae obj/default/iniche_init.o
 .debug_loc     0x000004e2       0x81 obj/default/led.o
 .debug_loc     0x00000563      0x103 obj/default/network_utilities.o
 .debug_loc     0x00000666      0x15b obj/default/simple_socket_server.o
 .debug_loc     0x000007c1       0x87 c:/altera/13.0/nios2eds/bin/gnu/h-i686-mingw32/bin/../lib/gcc/nios2-elf/4.1.2\libgcc.a(_fixunsdfsi.o)
 .debug_loc     0x00000848      0x47a c:/altera/13.0/nios2eds/bin/gnu/h-i686-mingw32/bin/../lib/gcc/nios2-elf/4.1.2\libgcc.a(_addsub_df.o)
 .debug_loc     0x00000cc2      0x3b4 c:/altera/13.0/nios2eds/bin/gnu/h-i686-mingw32/bin/../lib/gcc/nios2-elf/4.1.2\libgcc.a(_mul_df.o)
 .debug_loc     0x00001076       0x70 c:/altera/13.0/nios2eds/bin/gnu/h-i686-mingw32/bin/../lib/gcc/nios2-elf/4.1.2\libgcc.a(_ge_df.o)
 .debug_loc     0x000010e6       0x8b c:/altera/13.0/nios2eds/bin/gnu/h-i686-mingw32/bin/../lib/gcc/nios2-elf/4.1.2\libgcc.a(_df_to_si.o)
 .debug_loc     0x00001171       0x5b c:/altera/13.0/nios2eds/bin/gnu/h-i686-mingw32/bin/../lib/gcc/nios2-elf/4.1.2\libgcc.a(_usi_to_df.o)
 .debug_loc     0x000011cc       0xc4 c:/altera/13.0/nios2eds/bin/gnu/h-i686-mingw32/bin/../lib/gcc/nios2-elf/4.1.2\libgcc.a(_muldi3.o)
 .debug_loc     0x00001290       0x1e c:/altera/13.0/nios2eds/bin/gnu/h-i686-mingw32/bin/../lib/gcc/nios2-elf/4.1.2\libgcc.a(_clzsi2.o)
 .debug_loc     0x000012ae      0x184 c:/altera/13.0/nios2eds/bin/gnu/h-i686-mingw32/bin/../lib/gcc/nios2-elf/4.1.2\libgcc.a(_pack_df.o)
 .debug_loc     0x00001432       0xe5 c:/altera/13.0/nios2eds/bin/gnu/h-i686-mingw32/bin/../lib/gcc/nios2-elf/4.1.2\libgcc.a(_unpack_df.o)
 .debug_loc     0x00001517       0x3d c:/altera/13.0/nios2eds/bin/gnu/h-i686-mingw32/bin/../lib/gcc/nios2-elf/4.1.2/../../../../nios2-elf/lib\libc.a(lib_a-exit.o)
 .debug_loc     0x00001554       0xf1 c:/altera/13.0/nios2eds/bin/gnu/h-i686-mingw32/bin/../lib/gcc/nios2-elf/4.1.2/../../../../nios2-elf/lib\libc.a(lib_a-fprintf.o)
 .debug_loc     0x00001645      0x18e c:/altera/13.0/nios2eds/bin/gnu/h-i686-mingw32/bin/../lib/gcc/nios2-elf/4.1.2/../../../../nios2-elf/lib\libc.a(lib_a-fwrite.o)
 .debug_loc     0x000017d3      0x10b c:/altera/13.0/nios2eds/bin/gnu/h-i686-mingw32/bin/../lib/gcc/nios2-elf/4.1.2/../../../../nios2-elf/lib\libc.a(lib_a-getc.o)
 .debug_loc     0x000018de       0xca c:/altera/13.0/nios2eds/bin/gnu/h-i686-mingw32/bin/../lib/gcc/nios2-elf/4.1.2/../../../../nios2-elf/lib\libc.a(lib_a-memcpy.o)
 .debug_loc     0x000019a8      0x117 c:/altera/13.0/nios2eds/bin/gnu/h-i686-mingw32/bin/../lib/gcc/nios2-elf/4.1.2/../../../../nios2-elf/lib\libc.a(lib_a-memmove.o)
 .debug_loc     0x00001abf       0xa1 c:/altera/13.0/nios2eds/bin/gnu/h-i686-mingw32/bin/../lib/gcc/nios2-elf/4.1.2/../../../../nios2-elf/lib\libc.a(lib_a-memset.o)
 .debug_loc     0x00001b60       0xa2 c:/altera/13.0/nios2eds/bin/gnu/h-i686-mingw32/bin/../lib/gcc/nios2-elf/4.1.2/../../../../nios2-elf/lib\libc.a(lib_a-perror.o)
 .debug_loc     0x00001c02       0xcb c:/altera/13.0/nios2eds/bin/gnu/h-i686-mingw32/bin/../lib/gcc/nios2-elf/4.1.2/../../../../nios2-elf/lib\libc.a(lib_a-printf.o)
 .debug_loc     0x00001ccd      0x20d c:/altera/13.0/nios2eds/bin/gnu/h-i686-mingw32/bin/../lib/gcc/nios2-elf/4.1.2/../../../../nios2-elf/lib\libc.a(lib_a-putc.o)
 .debug_loc     0x00001eda       0x44 c:/altera/13.0/nios2eds/bin/gnu/h-i686-mingw32/bin/../lib/gcc/nios2-elf/4.1.2/../../../../nios2-elf/lib\libc.a(lib_a-putchar.o)
 .debug_loc     0x00001f1e       0xa2 c:/altera/13.0/nios2eds/bin/gnu/h-i686-mingw32/bin/../lib/gcc/nios2-elf/4.1.2/../../../../nios2-elf/lib\libc.a(lib_a-puts.o)
 .debug_loc     0x00001fc0       0x6e c:/altera/13.0/nios2eds/bin/gnu/h-i686-mingw32/bin/../lib/gcc/nios2-elf/4.1.2/../../../../nios2-elf/lib\libc.a(lib_a-rget.o)
 .debug_loc     0x0000202e       0xf3 c:/altera/13.0/nios2eds/bin/gnu/h-i686-mingw32/bin/../lib/gcc/nios2-elf/4.1.2/../../../../nios2-elf/lib\libc.a(lib_a-strchr.o)
 .debug_loc     0x00002121      0x418 c:/altera/13.0/nios2eds/bin/gnu/h-i686-mingw32/bin/../lib/gcc/nios2-elf/4.1.2/../../../../nios2-elf/lib\libc.a(lib_a-strerror.o)
 .debug_loc     0x00002539       0x3c c:/altera/13.0/nios2eds/bin/gnu/h-i686-mingw32/bin/../lib/gcc/nios2-elf/4.1.2/../../../../nios2-elf/lib\libc.a(lib_a-strlen.o)
 .debug_loc     0x00002575     0x1e0d c:/altera/13.0/nios2eds/bin/gnu/h-i686-mingw32/bin/../lib/gcc/nios2-elf/4.1.2/../../../../nios2-elf/lib\libc.a(lib_a-vfprintf.o)
 .debug_loc     0x00004382      0x157 c:/altera/13.0/nios2eds/bin/gnu/h-i686-mingw32/bin/../lib/gcc/nios2-elf/4.1.2/../../../../nios2-elf/lib\libc.a(lib_a-wbuf.o)
 .debug_loc     0x000044d9       0x7c c:/altera/13.0/nios2eds/bin/gnu/h-i686-mingw32/bin/../lib/gcc/nios2-elf/4.1.2/../../../../nios2-elf/lib\libc.a(lib_a-wsetup.o)
 .debug_loc     0x00004555      0x1cb c:/altera/13.0/nios2eds/bin/gnu/h-i686-mingw32/bin/../lib/gcc/nios2-elf/4.1.2/../../../../nios2-elf/lib\libc.a(lib_a-__call_atexit.o)
 .debug_loc     0x00004720     0x1dfa c:/altera/13.0/nios2eds/bin/gnu/h-i686-mingw32/bin/../lib/gcc/nios2-elf/4.1.2/../../../../nios2-elf/lib\libc.a(lib_a-dtoa.o)
 .debug_loc     0x0000651a      0x1f6 c:/altera/13.0/nios2eds/bin/gnu/h-i686-mingw32/bin/../lib/gcc/nios2-elf/4.1.2/../../../../nios2-elf/lib\libc.a(lib_a-fflush.o)
 .debug_loc     0x00006710      0x19f c:/altera/13.0/nios2eds/bin/gnu/h-i686-mingw32/bin/../lib/gcc/nios2-elf/4.1.2/../../../../nios2-elf/lib\libc.a(lib_a-findfp.o)
 .debug_loc     0x000068af      0x14d c:/altera/13.0/nios2eds/bin/gnu/h-i686-mingw32/bin/../lib/gcc/nios2-elf/4.1.2/../../../../nios2-elf/lib\libc.a(lib_a-fputc.o)
 .debug_loc     0x000069fc       0xcb c:/altera/13.0/nios2eds/bin/gnu/h-i686-mingw32/bin/../lib/gcc/nios2-elf/4.1.2/../../../../nios2-elf/lib\libc.a(lib_a-fputs.o)
 .debug_loc     0x00006ac7      0x4a7 c:/altera/13.0/nios2eds/bin/gnu/h-i686-mingw32/bin/../lib/gcc/nios2-elf/4.1.2/../../../../nios2-elf/lib\libc.a(lib_a-freer.o)
 .debug_loc     0x00006f6e      0x4e4 c:/altera/13.0/nios2eds/bin/gnu/h-i686-mingw32/bin/../lib/gcc/nios2-elf/4.1.2/../../../../nios2-elf/lib\libc.a(lib_a-fvwrite.o)
 .debug_loc     0x00007452      0x1d2 c:/altera/13.0/nios2eds/bin/gnu/h-i686-mingw32/bin/../lib/gcc/nios2-elf/4.1.2/../../../../nios2-elf/lib\libc.a(lib_a-fwalk.o)
 .debug_loc     0x00007624       0xe1 c:/altera/13.0/nios2eds/bin/gnu/h-i686-mingw32/bin/../lib/gcc/nios2-elf/4.1.2/../../../../nios2-elf/lib\libc.a(lib_a-locale.o)
 .debug_loc     0x00007705      0x11c c:/altera/13.0/nios2eds/bin/gnu/h-i686-mingw32/bin/../lib/gcc/nios2-elf/4.1.2/../../../../nios2-elf/lib\libc.a(lib_a-makebuf.o)
 .debug_loc     0x00007821      0xaeb c:/altera/13.0/nios2eds/bin/gnu/h-i686-mingw32/bin/../lib/gcc/nios2-elf/4.1.2/../../../../nios2-elf/lib\libc.a(lib_a-mallocr.o)
 .debug_loc     0x0000830c      0x106 c:/altera/13.0/nios2eds/bin/gnu/h-i686-mingw32/bin/../lib/gcc/nios2-elf/4.1.2/../../../../nios2-elf/lib\libc.a(lib_a-memchr.o)
 .debug_loc     0x00008412     0x14d6 c:/altera/13.0/nios2eds/bin/gnu/h-i686-mingw32/bin/../lib/gcc/nios2-elf/4.1.2/../../../../nios2-elf/lib\libc.a(lib_a-mprec.o)
 .debug_loc     0x000098e8      0x8c0 c:/altera/13.0/nios2eds/bin/gnu/h-i686-mingw32/bin/../lib/gcc/nios2-elf/4.1.2/../../../../nios2-elf/lib\libc.a(lib_a-reallocr.o)
 .debug_loc     0x0000a1a8       0xd1 c:/altera/13.0/nios2eds/bin/gnu/h-i686-mingw32/bin/../lib/gcc/nios2-elf/4.1.2/../../../../nios2-elf/lib\libc.a(lib_a-refill.o)
 .debug_loc     0x0000a279       0x36 c:/altera/13.0/nios2eds/bin/gnu/h-i686-mingw32/bin/../lib/gcc/nios2-elf/4.1.2/../../../../nios2-elf/lib\libc.a(lib_a-s_isinfd.o)
 .debug_loc     0x0000a2af       0x18 c:/altera/13.0/nios2eds/bin/gnu/h-i686-mingw32/bin/../lib/gcc/nios2-elf/4.1.2/../../../../nios2-elf/lib\libc.a(lib_a-s_isnand.o)
 .debug_loc     0x0000a2c7       0x5b c:/altera/13.0/nios2eds/bin/gnu/h-i686-mingw32/bin/../lib/gcc/nios2-elf/4.1.2/../../../../nios2-elf/lib\libc.a(lib_a-sbrkr.o)
 .debug_loc     0x0000a322      0x21f c:/altera/13.0/nios2eds/bin/gnu/h-i686-mingw32/bin/../lib/gcc/nios2-elf/4.1.2/../../../../nios2-elf/lib\libc.a(lib_a-stdio.o)
 .debug_loc     0x0000a541       0x65 c:/altera/13.0/nios2eds/bin/gnu/h-i686-mingw32/bin/../lib/gcc/nios2-elf/4.1.2/../../../../nios2-elf/lib\libc.a(lib_a-strcmp.o)
 .debug_loc     0x0000a5a6       0x97 c:/altera/13.0/nios2eds/bin/gnu/h-i686-mingw32/bin/../lib/gcc/nios2-elf/4.1.2/../../../../nios2-elf/lib\libc.a(lib_a-writer.o)
 .debug_loc     0x0000a63d       0xe9 c:/altera/13.0/nios2eds/bin/gnu/h-i686-mingw32/bin/../lib/gcc/nios2-elf/4.1.2/../../../../nios2-elf/lib\libc.a(lib_a-callocr.o)
 .debug_loc     0x0000a726       0x5b c:/altera/13.0/nios2eds/bin/gnu/h-i686-mingw32/bin/../lib/gcc/nios2-elf/4.1.2/../../../../nios2-elf/lib\libc.a(lib_a-closer.o)
 .debug_loc     0x0000a781       0xe4 c:/altera/13.0/nios2eds/bin/gnu/h-i686-mingw32/bin/../lib/gcc/nios2-elf/4.1.2/../../../../nios2-elf/lib\libc.a(lib_a-fclose.o)
 .debug_loc     0x0000a865       0x79 c:/altera/13.0/nios2eds/bin/gnu/h-i686-mingw32/bin/../lib/gcc/nios2-elf/4.1.2/../../../../nios2-elf/lib\libc.a(lib_a-fstatr.o)
 .debug_loc     0x0000a8de       0x5b c:/altera/13.0/nios2eds/bin/gnu/h-i686-mingw32/bin/../lib/gcc/nios2-elf/4.1.2/../../../../nios2-elf/lib\libc.a(lib_a-isattyr.o)
 .debug_loc     0x0000a939       0x97 c:/altera/13.0/nios2eds/bin/gnu/h-i686-mingw32/bin/../lib/gcc/nios2-elf/4.1.2/../../../../nios2-elf/lib\libc.a(lib_a-lseekr.o)
 .debug_loc     0x0000a9d0       0x97 c:/altera/13.0/nios2eds/bin/gnu/h-i686-mingw32/bin/../lib/gcc/nios2-elf/4.1.2/../../../../nios2-elf/lib\libc.a(lib_a-readr.o)
 .debug_loc     0x0000aa67      0xc12 c:/altera/13.0/nios2eds/bin/gnu/h-i686-mingw32/bin/../lib/gcc/nios2-elf/4.1.2\libgcc.a(_udivdi3.o)
 .debug_loc     0x0000b679      0xc26 c:/altera/13.0/nios2eds/bin/gnu/h-i686-mingw32/bin/../lib/gcc/nios2-elf/4.1.2\libgcc.a(_umoddi3.o)
 .debug_loc     0x0000c29f      0x1df c:/altera/13.0/nios2eds/bin/gnu/h-i686-mingw32/bin/../lib/gcc/nios2-elf/4.1.2\libgcc.a(_div_df.o)
 .debug_loc     0x0000c47e       0x70 c:/altera/13.0/nios2eds/bin/gnu/h-i686-mingw32/bin/../lib/gcc/nios2-elf/4.1.2\libgcc.a(_eq_df.o)
 .debug_loc     0x0000c4ee       0x70 c:/altera/13.0/nios2eds/bin/gnu/h-i686-mingw32/bin/../lib/gcc/nios2-elf/4.1.2\libgcc.a(_ne_df.o)
 .debug_loc     0x0000c55e       0x70 c:/altera/13.0/nios2eds/bin/gnu/h-i686-mingw32/bin/../lib/gcc/nios2-elf/4.1.2\libgcc.a(_gt_df.o)
 .debug_loc     0x0000c5ce       0x70 c:/altera/13.0/nios2eds/bin/gnu/h-i686-mingw32/bin/../lib/gcc/nios2-elf/4.1.2\libgcc.a(_lt_df.o)
 .debug_loc     0x0000c63e       0x9a c:/altera/13.0/nios2eds/bin/gnu/h-i686-mingw32/bin/../lib/gcc/nios2-elf/4.1.2\libgcc.a(_si_to_df.o)
 .debug_loc     0x0000c6d8      0x1d2 c:/altera/13.0/nios2eds/bin/gnu/h-i686-mingw32/bin/../lib/gcc/nios2-elf/4.1.2\libgcc.a(lib2-divmod.o)
 .debug_loc     0x0000c8aa       0x56 ../socket_simples_bsp/\libucosii_bsp.a(alt_exit.o)
 .debug_loc     0x0000c900       0x56 ../socket_simples_bsp/\libucosii_bsp.a(alt_flash_dev.o)
 .debug_loc     0x0000c956       0x56 ../socket_simples_bsp/\libucosii_bsp.a(alt_fstat.o)
 .debug_loc     0x0000c9ac       0x2c ../socket_simples_bsp/\libucosii_bsp.a(alt_irq_register.o)
 .debug_loc     0x0000c9d8       0x57 ../socket_simples_bsp/\libucosii_bsp.a(alt_isatty.o)
 .debug_loc     0x0000ca2f       0x56 ../socket_simples_bsp/\libucosii_bsp.a(alt_lseek.o)
 .debug_loc     0x0000ca85       0x2b ../socket_simples_bsp/\libucosii_bsp.a(alt_main.o)
 .debug_loc     0x0000cab0       0x2b ../socket_simples_bsp/\libucosii_bsp.a(alt_sbrk.o)
 .debug_loc     0x0000cadb       0x2b ../socket_simples_bsp/\libucosii_bsp.a(alt_usleep.o)
 .debug_loc     0x0000cb06       0x57 ../socket_simples_bsp/\libucosii_bsp.a(alt_env_lock.o)
 .debug_loc     0x0000cb5d       0x57 ../socket_simples_bsp/\libucosii_bsp.a(alt_malloc_lock.o)
 .debug_loc     0x0000cbb4      0x5e2 ../socket_simples_bsp/\libucosii_bsp.a(os_core.o)
 .debug_loc     0x0000d196       0x2b ../socket_simples_bsp/\libucosii_bsp.a(os_dbg.o)
 .debug_loc     0x0000d1c1      0x232 ../socket_simples_bsp/\libucosii_bsp.a(os_flag.o)
 .debug_loc     0x0000d3f3      0x12d ../socket_simples_bsp/\libucosii_bsp.a(os_mem.o)
 .debug_loc     0x0000d520      0x1da ../socket_simples_bsp/\libucosii_bsp.a(os_q.o)
 .debug_loc     0x0000d6fa      0x158 ../socket_simples_bsp/\libucosii_bsp.a(os_sem.o)
 .debug_loc     0x0000d852      0x207 ../socket_simples_bsp/\libucosii_bsp.a(os_task.o)
 .debug_loc     0x0000da59       0xd7 ../socket_simples_bsp/\libucosii_bsp.a(os_time.o)
 .debug_loc     0x0000db30       0x81 ../socket_simples_bsp/\libucosii_bsp.a(alt_sys_init.o)
 .debug_loc     0x0000dbb1      0x12e ../socket_simples_bsp/\libucosii_bsp.a(altera_avalon_cfi_flash.o)
 .debug_loc     0x0000dcdf      0x306 ../socket_simples_bsp/\libucosii_bsp.a(altera_avalon_cfi_flash_table.o)
 .debug_loc     0x0000dfe5      0x1af ../socket_simples_bsp/\libucosii_bsp.a(altera_avalon_epcs_flash_controller.o)
 .debug_loc     0x0000e194       0xac ../socket_simples_bsp/\libucosii_bsp.a(altera_avalon_jtag_uart_fd.o)
 .debug_loc     0x0000e240       0xac ../socket_simples_bsp/\libucosii_bsp.a(altera_avalon_jtag_uart_init.o)
 .debug_loc     0x0000e2ec       0x2b ../socket_simples_bsp/\libucosii_bsp.a(altera_avalon_jtag_uart_ioctl.o)
 .debug_loc     0x0000e317       0x2c ../socket_simples_bsp/\libucosii_bsp.a(altera_avalon_jtag_uart_read.o)
 .debug_loc     0x0000e343       0x2c ../socket_simples_bsp/\libucosii_bsp.a(altera_avalon_jtag_uart_write.o)
 .debug_loc     0x0000e36f      0x184 ../socket_simples_bsp/\libucosii_bsp.a(altera_avalon_lcd_16207.o)
 .debug_loc     0x0000e4f3       0x2b ../socket_simples_bsp/\libucosii_bsp.a(altera_avalon_lcd_16207_fd.o)
 .debug_loc     0x0000e51e       0x56 ../socket_simples_bsp/\libucosii_bsp.a(altera_avalon_timer_sc.o)
 .debug_loc     0x0000e574       0x81 ../socket_simples_bsp/\libucosii_bsp.a(altera_avalon_uart_fd.o)
 .debug_loc     0x0000e5f5       0xd8 ../socket_simples_bsp/\libucosii_bsp.a(altera_avalon_uart_init.o)
 .debug_loc     0x0000e6cd       0x57 ../socket_simples_bsp/\libucosii_bsp.a(altera_avalon_uart_read.o)
 .debug_loc     0x0000e724       0x57 ../socket_simples_bsp/\libucosii_bsp.a(altera_avalon_uart_write.o)
 .debug_loc     0x0000e77b      0x204 ../socket_simples_bsp/\libucosii_bsp.a(epcs_commands.o)
 .debug_loc     0x0000e97f       0x2b ../socket_simples_bsp/\libucosii_bsp.a(alt_iniche_close.o)
 .debug_loc     0x0000e9aa       0x2b ../socket_simples_bsp/\libucosii_bsp.a(alt_iniche_dev.o)
 .debug_loc     0x0000e9d5       0x2b ../socket_simples_bsp/\libucosii_bsp.a(alt_iniche_read.o)
 .debug_loc     0x0000ea00       0x2b ../socket_simples_bsp/\libucosii_bsp.a(alt_iniche_write.o)
 .debug_loc     0x0000ea2b      0x102 ../socket_simples_bsp/\libucosii_bsp.a(ipnet.o)
 .debug_loc     0x0000eb2d       0xac ../socket_simples_bsp/\libucosii_bsp.a(ipstart.o)
 .debug_loc     0x0000ebd9      0x159 ../socket_simples_bsp/\libucosii_bsp.a(igmp_cmn.o)
 .debug_loc     0x0000ed32      0x1af ../socket_simples_bsp/\libucosii_bsp.a(bsdsock.o)
 .debug_loc     0x0000eee1       0x56 ../socket_simples_bsp/\libucosii_bsp.a(cksum.o)
 .debug_loc     0x0000ef37      0x204 ../socket_simples_bsp/\libucosii_bsp.a(in_utils.o)
 .debug_loc     0x0000f13b       0x81 ../socket_simples_bsp/\libucosii_bsp.a(netmain.o)
 .debug_loc     0x0000f1bc      0x183 ../socket_simples_bsp/\libucosii_bsp.a(parseip.o)
 .debug_loc     0x0000f33f      0x12f ../socket_simples_bsp/\libucosii_bsp.a(tk_crnos.o)
 .debug_loc     0x0000f46e      0x35c ../socket_simples_bsp/\libucosii_bsp.a(dhcpclnt.o)
 .debug_loc     0x0000f7ca       0x2b ../socket_simples_bsp/\libucosii_bsp.a(dhcputil.o)
 .debug_loc     0x0000f7f5      0x102 ../socket_simples_bsp/\libucosii_bsp.a(pktalloc.o)
 .debug_loc     0x0000f8f7       0x81 ../socket_simples_bsp/\libucosii_bsp.a(q.o)
 .debug_loc     0x0000f978       0x56 ../socket_simples_bsp/\libucosii_bsp.a(udp_open.o)
 .debug_loc     0x0000f9ce      0x158 ../socket_simples_bsp/\libucosii_bsp.a(brdutils.o)
 .debug_loc     0x0000fb26       0xd8 ../socket_simples_bsp/\libucosii_bsp.a(osportco.o)
 .debug_loc     0x0000fbfe      0x183 ../socket_simples_bsp/\libucosii_bsp.a(targnios.o)
 .debug_loc     0x0000fd81      0x306 ../socket_simples_bsp/\libucosii_bsp.a(nptcp.o)
 .debug_loc     0x00010087       0x82 ../socket_simples_bsp/\libucosii_bsp.a(rawsock.o)
 .debug_loc     0x00010109      0x332 ../socket_simples_bsp/\libucosii_bsp.a(sockcall.o)
 .debug_loc     0x0001043b      0x2b1 ../socket_simples_bsp/\libucosii_bsp.a(socket.o)
 .debug_loc     0x000106ec      0x3dd ../socket_simples_bsp/\libucosii_bsp.a(socket2.o)
 .debug_loc     0x00010ac9      0x184 ../socket_simples_bsp/\libucosii_bsp.a(soselect.o)
 .debug_loc     0x00010c4d      0x12e ../socket_simples_bsp/\libucosii_bsp.a(tcp_in.o)
 .debug_loc     0x00010d7b       0x82 ../socket_simples_bsp/\libucosii_bsp.a(tcp_out.o)
 .debug_loc     0x00010dfd      0x183 ../socket_simples_bsp/\libucosii_bsp.a(tcp_subr.o)
 .debug_loc     0x00010f80       0x81 ../socket_simples_bsp/\libucosii_bsp.a(tcp_timr.o)
 .debug_loc     0x00011001       0xac ../socket_simples_bsp/\libucosii_bsp.a(tcp_usr.o)
 .debug_loc     0x000110ad       0x2b ../socket_simples_bsp/\libucosii_bsp.a(tcpport.o)
 .debug_loc     0x000110d8      0x102 ../socket_simples_bsp/\libucosii_bsp.a(udpsock.o)
 .debug_loc     0x000111da       0x2b ../socket_simples_bsp/\libucosii_bsp.a(alt_alarm_start.o)
 .debug_loc     0x00011205       0x2b ../socket_simples_bsp/\libucosii_bsp.a(alt_busy_sleep.o)
 .debug_loc     0x00011230       0x56 ../socket_simples_bsp/\libucosii_bsp.a(alt_close.o)
 .debug_loc     0x00011286       0x2b ../socket_simples_bsp/\libucosii_bsp.a(alt_dcache_flush.o)
 .debug_loc     0x000112b1       0x2b ../socket_simples_bsp/\libucosii_bsp.a(alt_dev.o)
 .debug_loc     0x000112dc       0x56 ../socket_simples_bsp/\libucosii_bsp.a(alt_dev_llist_insert.o)
 .debug_loc     0x00011332       0x2b ../socket_simples_bsp/\libucosii_bsp.a(alt_do_ctors.o)
 .debug_loc     0x0001135d       0x2b ../socket_simples_bsp/\libucosii_bsp.a(alt_do_dtors.o)
 .debug_loc     0x00011388       0x2b ../socket_simples_bsp/\libucosii_bsp.a(alt_find_dev.o)
 .debug_loc     0x000113b3       0xac ../socket_simples_bsp/\libucosii_bsp.a(alt_iic.o)
 .debug_loc     0x0001145f       0x2b ../socket_simples_bsp/\libucosii_bsp.a(alt_iic_isr_register.o)
 .debug_loc     0x0001148a       0x56 ../socket_simples_bsp/\libucosii_bsp.a(alt_io_redirect.o)
 .debug_loc     0x000114e0       0x2b ../socket_simples_bsp/\libucosii_bsp.a(alt_irq_handler.o)
 .debug_loc     0x0001150b       0x81 ../socket_simples_bsp/\libucosii_bsp.a(alt_open.o)
 .debug_loc     0x0001158c       0x56 ../socket_simples_bsp/\libucosii_bsp.a(alt_read.o)
 .debug_loc     0x000115e2       0x2b ../socket_simples_bsp/\libucosii_bsp.a(alt_release_fd.o)
 .debug_loc     0x0001160d       0x2b ../socket_simples_bsp/\libucosii_bsp.a(alt_remap_cached.o)
 .debug_loc     0x00011638       0x2b ../socket_simples_bsp/\libucosii_bsp.a(alt_remap_uncached.o)
 .debug_loc     0x00011663       0x56 ../socket_simples_bsp/\libucosii_bsp.a(alt_tick.o)
 .debug_loc     0x000116b9       0x56 ../socket_simples_bsp/\libucosii_bsp.a(alt_write.o)
 .debug_loc     0x0001170f       0x2b ../socket_simples_bsp/\libucosii_bsp.a(altera_nios2_qsys_irq.o)
 .debug_loc     0x0001173a      0x1ae ../socket_simples_bsp/\libucosii_bsp.a(os_cpu_c.o)
 .debug_loc     0x000118e8       0xac ../socket_simples_bsp/\libucosii_bsp.a(altera_avalon_cfi_flash_amd.o)
 .debug_loc     0x00011994       0xac ../socket_simples_bsp/\libucosii_bsp.a(altera_avalon_cfi_flash_intel.o)
 .debug_loc     0x00011a40       0x2b ../socket_simples_bsp/\libucosii_bsp.a(altera_avalon_spi.o)
 .debug_loc     0x00011a6b      0x12d ../socket_simples_bsp/\libucosii_bsp.a(allports.o)
 .debug_loc     0x00011b98       0xac ../socket_simples_bsp/\libucosii_bsp.a(timeouts.o)
 .debug_loc     0x00011c44       0x56 ../socket_simples_bsp/\libucosii_bsp.a(tk_misc.o)
 .debug_loc     0x00011c9a       0x2b ../socket_simples_bsp/\libucosii_bsp.a(alt_iniche_fcntl.o)
 .debug_loc     0x00011cc5      0x204 ../socket_simples_bsp/\libucosii_bsp.a(et_arp.o)
 .debug_loc     0x00011ec9       0xac ../socket_simples_bsp/\libucosii_bsp.a(iface.o)
 .debug_loc     0x00011f75      0x207 ../socket_simples_bsp/\libucosii_bsp.a(ip.o)
 .debug_loc     0x0001217c      0x2b2 ../socket_simples_bsp/\libucosii_bsp.a(ip_reasm.o)
 .debug_loc     0x0001242e       0x81 ../socket_simples_bsp/\libucosii_bsp.a(ipdemux.o)
 .debug_loc     0x000124af       0x81 ../socket_simples_bsp/\libucosii_bsp.a(ipmc.o)
 .debug_loc     0x00012530       0x81 ../socket_simples_bsp/\libucosii_bsp.a(ipport.o)
 .debug_loc     0x000125b1      0x102 ../socket_simples_bsp/\libucosii_bsp.a(ipraw.o)
 .debug_loc     0x000126b3       0x81 ../socket_simples_bsp/\libucosii_bsp.a(iproute.o)
 .debug_loc     0x00012734      0x12f ../socket_simples_bsp/\libucosii_bsp.a(udp.o)
 .debug_loc     0x00012863       0x2b ../socket_simples_bsp/\libucosii_bsp.a(igmp.o)
 .debug_loc     0x0001288e       0xd7 ../socket_simples_bsp/\libucosii_bsp.a(igmp2.o)
 .debug_loc     0x00012965       0xac ../socket_simples_bsp/\libucosii_bsp.a(ipopt.o)
 .debug_loc     0x00012a11       0x57 ../socket_simples_bsp/\libucosii_bsp.a(u_mctest.o)
 .debug_loc     0x00012a68       0x56 ../socket_simples_bsp/\libucosii_bsp.a(dhcsetup.o)
 .debug_loc     0x00012abe      0x183 ../socket_simples_bsp/\libucosii_bsp.a(memdev.o)
 .debug_loc     0x00012c41       0x2b ../socket_simples_bsp/\libucosii_bsp.a(tcpcksum.o)
 .debug_loc     0x00012c6c      0x158 ../socket_simples_bsp/\libucosii_bsp.a(in_pcb.o)
 .debug_loc     0x00012dc4      0x4b4 ../socket_simples_bsp/\libucosii_bsp.a(vfsfiles.o)
 .debug_loc     0x00013278       0x2b ../socket_simples_bsp/\libucosii_bsp.a(vfsport.o)
 .debug_loc     0x000132a3       0x56 ../socket_simples_bsp/\libucosii_bsp.a(alt_fcntl.o)
 .debug_loc     0x000132f9       0x2b ../socket_simples_bsp/\libucosii_bsp.a(alt_find_file.o)
 .debug_loc     0x00013324       0x2b ../socket_simples_bsp/\libucosii_bsp.a(alt_get_fd.o)
 .debug_loc     0x0001334f       0xad ../socket_simples_bsp/\libucosii_bsp.a(icmp.o)
 .debug_loc     0x000133fc       0x1e c:/altera/13.0/nios2eds/bin/gnu/h-i686-mingw32/bin/../lib/gcc/nios2-elf/4.1.2/../../../../nios2-elf/lib\libc.a(lib_a-atexit.o)
 .debug_loc     0x0001341a       0x39 c:/altera/13.0/nios2eds/bin/gnu/h-i686-mingw32/bin/../lib/gcc/nios2-elf/4.1.2/../../../../nios2-elf/lib\libc.a(lib_a-atoi.o)
 .debug_loc     0x00013453       0x3c c:/altera/13.0/nios2eds/bin/gnu/h-i686-mingw32/bin/../lib/gcc/nios2-elf/4.1.2/../../../../nios2-elf/lib\libc.a(lib_a-calloc.o)
 .debug_loc     0x0001348f       0x3c c:/altera/13.0/nios2eds/bin/gnu/h-i686-mingw32/bin/../lib/gcc/nios2-elf/4.1.2/../../../../nios2-elf/lib\libc.a(lib_a-malloc.o)
 .debug_loc     0x000134cb      0x114 c:/altera/13.0/nios2eds/bin/gnu/h-i686-mingw32/bin/../lib/gcc/nios2-elf/4.1.2/../../../../nios2-elf/lib\libc.a(lib_a-memcmp.o)
 .debug_loc     0x000135df       0xc0 c:/altera/13.0/nios2eds/bin/gnu/h-i686-mingw32/bin/../lib/gcc/nios2-elf/4.1.2/../../../../nios2-elf/lib\libc.a(lib_a-sprintf.o)
 .debug_loc     0x0001369f       0x8b c:/altera/13.0/nios2eds/bin/gnu/h-i686-mingw32/bin/../lib/gcc/nios2-elf/4.1.2/../../../../nios2-elf/lib\libc.a(lib_a-strcpy.o)
 .debug_loc     0x0001372a       0x78 c:/altera/13.0/nios2eds/bin/gnu/h-i686-mingw32/bin/../lib/gcc/nios2-elf/4.1.2/../../../../nios2-elf/lib\libc.a(lib_a-strncmp.o)
 .debug_loc     0x000137a2       0xeb c:/altera/13.0/nios2eds/bin/gnu/h-i686-mingw32/bin/../lib/gcc/nios2-elf/4.1.2/../../../../nios2-elf/lib\libc.a(lib_a-strncpy.o)
 .debug_loc     0x0001388d      0x346 c:/altera/13.0/nios2eds/bin/gnu/h-i686-mingw32/bin/../lib/gcc/nios2-elf/4.1.2/../../../../nios2-elf/lib\libc.a(lib_a-strtol.o)
 .debug_loc     0x00013bd3       0x8b c:/altera/13.0/nios2eds/bin/gnu/h-i686-mingw32/bin/../lib/gcc/nios2-elf/4.1.2/../../../../nios2-elf/lib\libc.a(lib_a-vprintf.o)
 .debug_loc     0x00013c5e       0xd1 c:/altera/13.0/nios2eds/bin/gnu/h-i686-mingw32/bin/../lib/gcc/nios2-elf/4.1.2/../../../../nios2-elf/lib\libc.a(lib_a-vsprintf.o)
 .debug_loc     0x00013d2f      0x120 c:/altera/13.0/nios2eds/bin/gnu/h-i686-mingw32/bin/../lib/gcc/nios2-elf/4.1.2/../../../../nios2-elf/lib\libc.a(lib_a-__atexit.o)

.debug_macinfo
 *(.debug_macinfo)

.debug_weaknames
 *(.debug_weaknames)

.debug_funcnames
 *(.debug_funcnames)

.debug_typenames
 *(.debug_typenames)

.debug_varnames
 *(.debug_varnames)

.debug_alt_sim_info
                0x00000000       0x50
 *(.debug_alt_sim_info)
 .debug_alt_sim_info
                0x00000000       0x20 ../socket_simples_bsp//obj/HAL/src/crt0.o
 .debug_alt_sim_info
                0x00000020       0x30 ../socket_simples_bsp/\libucosii_bsp.a(alt_busy_sleep.o)
                0x01000000                __alt_data_end = 0x1000000
                0x01000000                PROVIDE (__alt_stack_pointer, __alt_data_end)
                0x00857c7c                PROVIDE (__alt_stack_limit, __alt_stack_base)
                0x00857c7c                PROVIDE (__alt_heap_start, end)
                0x01000000                PROVIDE (__alt_heap_limit, 0x1000000)
OUTPUT(socket_simples.elf elf32-littlenios2)

.debug_ranges   0x00000000      0x9a0
 .debug_ranges  0x00000000       0x30 c:/altera/13.0/nios2eds/bin/gnu/h-i686-mingw32/bin/../lib/gcc/nios2-elf/4.1.2\libgcc.a(_addsub_df.o)
 .debug_ranges  0x00000030       0x88 c:/altera/13.0/nios2eds/bin/gnu/h-i686-mingw32/bin/../lib/gcc/nios2-elf/4.1.2\libgcc.a(_mul_df.o)
 .debug_ranges  0x000000b8       0x18 c:/altera/13.0/nios2eds/bin/gnu/h-i686-mingw32/bin/../lib/gcc/nios2-elf/4.1.2\libgcc.a(_usi_to_df.o)
 .debug_ranges  0x000000d0       0x68 c:/altera/13.0/nios2eds/bin/gnu/h-i686-mingw32/bin/../lib/gcc/nios2-elf/4.1.2\libgcc.a(_muldi3.o)
 .debug_ranges  0x00000138       0x28 c:/altera/13.0/nios2eds/bin/gnu/h-i686-mingw32/bin/../lib/gcc/nios2-elf/4.1.2\libgcc.a(_clzsi2.o)
 .debug_ranges  0x00000160       0x28 c:/altera/13.0/nios2eds/bin/gnu/h-i686-mingw32/bin/../lib/gcc/nios2-elf/4.1.2\libgcc.a(_pack_df.o)
 .debug_ranges  0x00000188      0x168 c:/altera/13.0/nios2eds/bin/gnu/h-i686-mingw32/bin/../lib/gcc/nios2-elf/4.1.2/../../../../nios2-elf/lib\libc.a(lib_a-vfprintf.o)
 .debug_ranges  0x000002f0       0x18 c:/altera/13.0/nios2eds/bin/gnu/h-i686-mingw32/bin/../lib/gcc/nios2-elf/4.1.2/../../../../nios2-elf/lib\libc.a(lib_a-__call_atexit.o)
 .debug_ranges  0x00000308       0x20 c:/altera/13.0/nios2eds/bin/gnu/h-i686-mingw32/bin/../lib/gcc/nios2-elf/4.1.2/../../../../nios2-elf/lib\libc.a(lib_a-fflush.o)
 .debug_ranges  0x00000328       0x28 c:/altera/13.0/nios2eds/bin/gnu/h-i686-mingw32/bin/../lib/gcc/nios2-elf/4.1.2/../../../../nios2-elf/lib\libc.a(lib_a-fvwrite.o)
 .debug_ranges  0x00000350       0xa0 c:/altera/13.0/nios2eds/bin/gnu/h-i686-mingw32/bin/../lib/gcc/nios2-elf/4.1.2/../../../../nios2-elf/lib\libc.a(lib_a-fwalk.o)
 .debug_ranges  0x000003f0       0x70 c:/altera/13.0/nios2eds/bin/gnu/h-i686-mingw32/bin/../lib/gcc/nios2-elf/4.1.2/../../../../nios2-elf/lib\libc.a(lib_a-mallocr.o)
 .debug_ranges  0x00000460      0x110 c:/altera/13.0/nios2eds/bin/gnu/h-i686-mingw32/bin/../lib/gcc/nios2-elf/4.1.2/../../../../nios2-elf/lib\libc.a(lib_a-reallocr.o)
 .debug_ranges  0x00000570       0x38 c:/altera/13.0/nios2eds/bin/gnu/h-i686-mingw32/bin/../lib/gcc/nios2-elf/4.1.2/../../../../nios2-elf/lib\libc.a(lib_a-callocr.o)
 .debug_ranges  0x000005a8      0x188 c:/altera/13.0/nios2eds/bin/gnu/h-i686-mingw32/bin/../lib/gcc/nios2-elf/4.1.2\libgcc.a(_udivdi3.o)
 .debug_ranges  0x00000730      0x198 c:/altera/13.0/nios2eds/bin/gnu/h-i686-mingw32/bin/../lib/gcc/nios2-elf/4.1.2\libgcc.a(_umoddi3.o)
 .debug_ranges  0x000008c8       0x50 c:/altera/13.0/nios2eds/bin/gnu/h-i686-mingw32/bin/../lib/gcc/nios2-elf/4.1.2\libgcc.a(_div_df.o)
 .debug_ranges  0x00000918       0x18 ../socket_simples_bsp/\libucosii_bsp.a(altera_avalon_jtag_uart_init.o)
 .debug_ranges  0x00000930       0x18 ../socket_simples_bsp/\libucosii_bsp.a(altera_avalon_uart_init.o)
 .debug_ranges  0x00000948       0x28 ../socket_simples_bsp/\libucosii_bsp.a(alt_irq_entry.o)
 .debug_ranges  0x00000970       0x30 ../socket_simples_bsp/\libucosii_bsp.a(alt_exception_entry.o)
