Archive member included because of file (symbol)

c:/altera/13.0/nios2eds/bin/gnu/h-i686-mingw32/bin/../lib/gcc/nios2-elf/4.1.2\libgcc.a(_fixunsdfsi.o)
                              obj/default/dm9000a.o (__fixunsdfsi)
c:/altera/13.0/nios2eds/bin/gnu/h-i686-mingw32/bin/../lib/gcc/nios2-elf/4.1.2\libgcc.a(_addsub_df.o)
                              c:/altera/13.0/nios2eds/bin/gnu/h-i686-mingw32/bin/../lib/gcc/nios2-elf/4.1.2\libgcc.a(_fixunsdfsi.o) (__subdf3)
c:/altera/13.0/nios2eds/bin/gnu/h-i686-mingw32/bin/../lib/gcc/nios2-elf/4.1.2\libgcc.a(_mul_df.o)
                              obj/default/dm9000a.o (__muldf3)
c:/altera/13.0/nios2eds/bin/gnu/h-i686-mingw32/bin/../lib/gcc/nios2-elf/4.1.2\libgcc.a(_ge_df.o)
                              c:/altera/13.0/nios2eds/bin/gnu/h-i686-mingw32/bin/../lib/gcc/nios2-elf/4.1.2\libgcc.a(_fixunsdfsi.o) (__gedf2)
c:/altera/13.0/nios2eds/bin/gnu/h-i686-mingw32/bin/../lib/gcc/nios2-elf/4.1.2\libgcc.a(_df_to_si.o)
                              c:/altera/13.0/nios2eds/bin/gnu/h-i686-mingw32/bin/../lib/gcc/nios2-elf/4.1.2\libgcc.a(_fixunsdfsi.o) (__fixdfsi)
c:/altera/13.0/nios2eds/bin/gnu/h-i686-mingw32/bin/../lib/gcc/nios2-elf/4.1.2\libgcc.a(_thenan_df.o)
                              c:/altera/13.0/nios2eds/bin/gnu/h-i686-mingw32/bin/../lib/gcc/nios2-elf/4.1.2\libgcc.a(_addsub_df.o) (__thenan_df)
c:/altera/13.0/nios2eds/bin/gnu/h-i686-mingw32/bin/../lib/gcc/nios2-elf/4.1.2\libgcc.a(_usi_to_df.o)
                              obj/default/dm9000a.o (__floatunsidf)
c:/altera/13.0/nios2eds/bin/gnu/h-i686-mingw32/bin/../lib/gcc/nios2-elf/4.1.2\libgcc.a(_muldi3.o)
                              c:/altera/13.0/nios2eds/bin/gnu/h-i686-mingw32/bin/../lib/gcc/nios2-elf/4.1.2\libgcc.a(_mul_df.o) (__muldi3)
c:/altera/13.0/nios2eds/bin/gnu/h-i686-mingw32/bin/../lib/gcc/nios2-elf/4.1.2\libgcc.a(_clzsi2.o)
                              c:/altera/13.0/nios2eds/bin/gnu/h-i686-mingw32/bin/../lib/gcc/nios2-elf/4.1.2\libgcc.a(_usi_to_df.o) (__clzsi2)
c:/altera/13.0/nios2eds/bin/gnu/h-i686-mingw32/bin/../lib/gcc/nios2-elf/4.1.2\libgcc.a(_pack_df.o)
                              c:/altera/13.0/nios2eds/bin/gnu/h-i686-mingw32/bin/../lib/gcc/nios2-elf/4.1.2\libgcc.a(_addsub_df.o) (__pack_d)
c:/altera/13.0/nios2eds/bin/gnu/h-i686-mingw32/bin/../lib/gcc/nios2-elf/4.1.2\libgcc.a(_unpack_df.o)
                              c:/altera/13.0/nios2eds/bin/gnu/h-i686-mingw32/bin/../lib/gcc/nios2-elf/4.1.2\libgcc.a(_addsub_df.o) (__unpack_d)
c:/altera/13.0/nios2eds/bin/gnu/h-i686-mingw32/bin/../lib/gcc/nios2-elf/4.1.2\libgcc.a(_fpcmp_parts_df.o)
                              c:/altera/13.0/nios2eds/bin/gnu/h-i686-mingw32/bin/../lib/gcc/nios2-elf/4.1.2\libgcc.a(_ge_df.o) (__fpcmp_parts_d)
c:/altera/13.0/nios2eds/bin/gnu/h-i686-mingw32/bin/../lib/gcc/nios2-elf/4.1.2\libgcc.a(_clz.o)
                              c:/altera/13.0/nios2eds/bin/gnu/h-i686-mingw32/bin/../lib/gcc/nios2-elf/4.1.2\libgcc.a(_clzsi2.o) (__clz_tab)
c:/altera/13.0/nios2eds/bin/gnu/h-i686-mingw32/bin/../lib/gcc/nios2-elf/4.1.2/../../../../nios2-elf/lib\libc.a(lib_a-ctype_.o)
                              obj/default/network_utilities.o (__ctype_ptr)
c:/altera/13.0/nios2eds/bin/gnu/h-i686-mingw32/bin/../lib/gcc/nios2-elf/4.1.2/../../../../nios2-elf/lib\libc.a(lib_a-exit.o)
                              obj/default/simple_socket_server.o (exit)
c:/altera/13.0/nios2eds/bin/gnu/h-i686-mingw32/bin/../lib/gcc/nios2-elf/4.1.2/../../../../nios2-elf/lib\libc.a(lib_a-fprintf.o)
                              obj/default/alt_error_handler.o (fprintf)
c:/altera/13.0/nios2eds/bin/gnu/h-i686-mingw32/bin/../lib/gcc/nios2-elf/4.1.2/../../../../nios2-elf/lib\libc.a(lib_a-fwrite.o)
                              obj/default/alt_error_handler.o (fwrite)
c:/altera/13.0/nios2eds/bin/gnu/h-i686-mingw32/bin/../lib/gcc/nios2-elf/4.1.2/../../../../nios2-elf/lib\libc.a(lib_a-getc.o)
                              obj/default/network_utilities.o (getc)
c:/altera/13.0/nios2eds/bin/gnu/h-i686-mingw32/bin/../lib/gcc/nios2-elf/4.1.2/../../../../nios2-elf/lib\libc.a(lib_a-impure.o)
                              obj/default/alt_error_handler.o (_impure_ptr)
c:/altera/13.0/nios2eds/bin/gnu/h-i686-mingw32/bin/../lib/gcc/nios2-elf/4.1.2/../../../../nios2-elf/lib\libc.a(lib_a-memcpy.o)
                              obj/default/simple_socket_server.o (memcpy)
c:/altera/13.0/nios2eds/bin/gnu/h-i686-mingw32/bin/../lib/gcc/nios2-elf/4.1.2/../../../../nios2-elf/lib\libc.a(lib_a-memmove.o)
                              obj/default/simple_socket_server.o (memmove)
c:/altera/13.0/nios2eds/bin/gnu/h-i686-mingw32/bin/../lib/gcc/nios2-elf/4.1.2/../../../../nios2-elf/lib\libc.a(lib_a-memset.o)
                              obj/default/simple_socket_server.o (memset)
c:/altera/13.0/nios2eds/bin/gnu/h-i686-mingw32/bin/../lib/gcc/nios2-elf/4.1.2/../../../../nios2-elf/lib\libc.a(lib_a-perror.o)
                              obj/default/alt_error_handler.o (perror)
c:/altera/13.0/nios2eds/bin/gnu/h-i686-mingw32/bin/../lib/gcc/nios2-elf/4.1.2/../../../../nios2-elf/lib\libc.a(lib_a-printf.o)
                              obj/default/SSS_DE2_115.o (printf)
c:/altera/13.0/nios2eds/bin/gnu/h-i686-mingw32/bin/../lib/gcc/nios2-elf/4.1.2/../../../../nios2-elf/lib\libc.a(lib_a-putc.o)
                              obj/default/network_utilities.o (putc)
c:/altera/13.0/nios2eds/bin/gnu/h-i686-mingw32/bin/../lib/gcc/nios2-elf/4.1.2/../../../../nios2-elf/lib\libc.a(lib_a-putchar.o)
                              obj/default/network_utilities.o (putchar)
c:/altera/13.0/nios2eds/bin/gnu/h-i686-mingw32/bin/../lib/gcc/nios2-elf/4.1.2/../../../../nios2-elf/lib\libc.a(lib_a-puts.o)
                              obj/default/SSS_DE2_115.o (puts)
c:/altera/13.0/nios2eds/bin/gnu/h-i686-mingw32/bin/../lib/gcc/nios2-elf/4.1.2/../../../../nios2-elf/lib\libc.a(lib_a-rget.o)
                              c:/altera/13.0/nios2eds/bin/gnu/h-i686-mingw32/bin/../lib/gcc/nios2-elf/4.1.2/../../../../nios2-elf/lib\libc.a(lib_a-getc.o) (__srget_r)
c:/altera/13.0/nios2eds/bin/gnu/h-i686-mingw32/bin/../lib/gcc/nios2-elf/4.1.2/../../../../nios2-elf/lib\libc.a(lib_a-strchr.o)
                              obj/default/simple_socket_server.o (strchr)
c:/altera/13.0/nios2eds/bin/gnu/h-i686-mingw32/bin/../lib/gcc/nios2-elf/4.1.2/../../../../nios2-elf/lib\libc.a(lib_a-strerror.o)
                              c:/altera/13.0/nios2eds/bin/gnu/h-i686-mingw32/bin/../lib/gcc/nios2-elf/4.1.2/../../../../nios2-elf/lib\libc.a(lib_a-perror.o) (strerror)
c:/altera/13.0/nios2eds/bin/gnu/h-i686-mingw32/bin/../lib/gcc/nios2-elf/4.1.2/../../../../nios2-elf/lib\libc.a(lib_a-strlen.o)
                              obj/default/LCD.o (strlen)
c:/altera/13.0/nios2eds/bin/gnu/h-i686-mingw32/bin/../lib/gcc/nios2-elf/4.1.2/../../../../nios2-elf/lib\libc.a(lib_a-u_strerr.o)
                              c:/altera/13.0/nios2eds/bin/gnu/h-i686-mingw32/bin/../lib/gcc/nios2-elf/4.1.2/../../../../nios2-elf/lib\libc.a(lib_a-strerror.o) (_user_strerror)
c:/altera/13.0/nios2eds/bin/gnu/h-i686-mingw32/bin/../lib/gcc/nios2-elf/4.1.2/../../../../nios2-elf/lib\libc.a(lib_a-vfprintf.o)
                              c:/altera/13.0/nios2eds/bin/gnu/h-i686-mingw32/bin/../lib/gcc/nios2-elf/4.1.2/../../../../nios2-elf/lib\libc.a(lib_a-printf.o) (___vfprintf_internal_r)
c:/altera/13.0/nios2eds/bin/gnu/h-i686-mingw32/bin/../lib/gcc/nios2-elf/4.1.2/../../../../nios2-elf/lib\libc.a(lib_a-wbuf.o)
                              c:/altera/13.0/nios2eds/bin/gnu/h-i686-mingw32/bin/../lib/gcc/nios2-elf/4.1.2/../../../../nios2-elf/lib\libc.a(lib_a-putc.o) (__swbuf_r)
c:/altera/13.0/nios2eds/bin/gnu/h-i686-mingw32/bin/../lib/gcc/nios2-elf/4.1.2/../../../../nios2-elf/lib\libc.a(lib_a-wsetup.o)
                              c:/altera/13.0/nios2eds/bin/gnu/h-i686-mingw32/bin/../lib/gcc/nios2-elf/4.1.2/../../../../nios2-elf/lib\libc.a(lib_a-vfprintf.o) (__swsetup_r)
c:/altera/13.0/nios2eds/bin/gnu/h-i686-mingw32/bin/../lib/gcc/nios2-elf/4.1.2/../../../../nios2-elf/lib\libc.a(lib_a-__call_atexit.o)
                              c:/altera/13.0/nios2eds/bin/gnu/h-i686-mingw32/bin/../lib/gcc/nios2-elf/4.1.2/../../../../nios2-elf/lib\libc.a(lib_a-exit.o) (__call_exitprocs)
c:/altera/13.0/nios2eds/bin/gnu/h-i686-mingw32/bin/../lib/gcc/nios2-elf/4.1.2/../../../../nios2-elf/lib\libc.a(lib_a-dtoa.o)
                              c:/altera/13.0/nios2eds/bin/gnu/h-i686-mingw32/bin/../lib/gcc/nios2-elf/4.1.2/../../../../nios2-elf/lib\libc.a(lib_a-vfprintf.o) (_dtoa_r)
c:/altera/13.0/nios2eds/bin/gnu/h-i686-mingw32/bin/../lib/gcc/nios2-elf/4.1.2/../../../../nios2-elf/lib\libc.a(lib_a-fflush.o)
                              c:/altera/13.0/nios2eds/bin/gnu/h-i686-mingw32/bin/../lib/gcc/nios2-elf/4.1.2/../../../../nios2-elf/lib\libc.a(lib_a-vfprintf.o) (_fflush_r)
c:/altera/13.0/nios2eds/bin/gnu/h-i686-mingw32/bin/../lib/gcc/nios2-elf/4.1.2/../../../../nios2-elf/lib\libc.a(lib_a-findfp.o)
                              c:/altera/13.0/nios2eds/bin/gnu/h-i686-mingw32/bin/../lib/gcc/nios2-elf/4.1.2/../../../../nios2-elf/lib\libc.a(lib_a-fwrite.o) (__sinit)
c:/altera/13.0/nios2eds/bin/gnu/h-i686-mingw32/bin/../lib/gcc/nios2-elf/4.1.2/../../../../nios2-elf/lib\libc.a(lib_a-fputc.o)
                              c:/altera/13.0/nios2eds/bin/gnu/h-i686-mingw32/bin/../lib/gcc/nios2-elf/4.1.2/../../../../nios2-elf/lib\libc.a(lib_a-perror.o) (fputc)
c:/altera/13.0/nios2eds/bin/gnu/h-i686-mingw32/bin/../lib/gcc/nios2-elf/4.1.2/../../../../nios2-elf/lib\libc.a(lib_a-fputs.o)
                              c:/altera/13.0/nios2eds/bin/gnu/h-i686-mingw32/bin/../lib/gcc/nios2-elf/4.1.2/../../../../nios2-elf/lib\libc.a(lib_a-perror.o) (fputs)
c:/altera/13.0/nios2eds/bin/gnu/h-i686-mingw32/bin/../lib/gcc/nios2-elf/4.1.2/../../../../nios2-elf/lib\libc.a(lib_a-freer.o)
                              c:/altera/13.0/nios2eds/bin/gnu/h-i686-mingw32/bin/../lib/gcc/nios2-elf/4.1.2/../../../../nios2-elf/lib\libc.a(lib_a-wsetup.o) (_free_r)
c:/altera/13.0/nios2eds/bin/gnu/h-i686-mingw32/bin/../lib/gcc/nios2-elf/4.1.2/../../../../nios2-elf/lib\libc.a(lib_a-fvwrite.o)
                              c:/altera/13.0/nios2eds/bin/gnu/h-i686-mingw32/bin/../lib/gcc/nios2-elf/4.1.2/../../../../nios2-elf/lib\libc.a(lib_a-fwrite.o) (__sfvwrite_r)
c:/altera/13.0/nios2eds/bin/gnu/h-i686-mingw32/bin/../lib/gcc/nios2-elf/4.1.2/../../../../nios2-elf/lib\libc.a(lib_a-fwalk.o)
                              c:/altera/13.0/nios2eds/bin/gnu/h-i686-mingw32/bin/../lib/gcc/nios2-elf/4.1.2/../../../../nios2-elf/lib\libc.a(lib_a-fflush.o) (_fwalk_reent)
c:/altera/13.0/nios2eds/bin/gnu/h-i686-mingw32/bin/../lib/gcc/nios2-elf/4.1.2/../../../../nios2-elf/lib\libc.a(lib_a-locale.o)
                              c:/altera/13.0/nios2eds/bin/gnu/h-i686-mingw32/bin/../lib/gcc/nios2-elf/4.1.2/../../../../nios2-elf/lib\libc.a(lib_a-vfprintf.o) (_localeconv_r)
c:/altera/13.0/nios2eds/bin/gnu/h-i686-mingw32/bin/../lib/gcc/nios2-elf/4.1.2/../../../../nios2-elf/lib\libc.a(lib_a-makebuf.o)
                              c:/altera/13.0/nios2eds/bin/gnu/h-i686-mingw32/bin/../lib/gcc/nios2-elf/4.1.2/../../../../nios2-elf/lib\libc.a(lib_a-wsetup.o) (__smakebuf_r)
c:/altera/13.0/nios2eds/bin/gnu/h-i686-mingw32/bin/../lib/gcc/nios2-elf/4.1.2/../../../../nios2-elf/lib\libc.a(lib_a-mallocr.o)
                              c:/altera/13.0/nios2eds/bin/gnu/h-i686-mingw32/bin/../lib/gcc/nios2-elf/4.1.2/../../../../nios2-elf/lib\libc.a(lib_a-findfp.o) (_malloc_r)
c:/altera/13.0/nios2eds/bin/gnu/h-i686-mingw32/bin/../lib/gcc/nios2-elf/4.1.2/../../../../nios2-elf/lib\libc.a(lib_a-memchr.o)
                              c:/altera/13.0/nios2eds/bin/gnu/h-i686-mingw32/bin/../lib/gcc/nios2-elf/4.1.2/../../../../nios2-elf/lib\libc.a(lib_a-vfprintf.o) (memchr)
c:/altera/13.0/nios2eds/bin/gnu/h-i686-mingw32/bin/../lib/gcc/nios2-elf/4.1.2/../../../../nios2-elf/lib\libc.a(lib_a-mprec.o)
                              c:/altera/13.0/nios2eds/bin/gnu/h-i686-mingw32/bin/../lib/gcc/nios2-elf/4.1.2/../../../../nios2-elf/lib\libc.a(lib_a-dtoa.o) (_Bfree)
c:/altera/13.0/nios2eds/bin/gnu/h-i686-mingw32/bin/../lib/gcc/nios2-elf/4.1.2/../../../../nios2-elf/lib\libc.a(lib_a-reallocr.o)
                              c:/altera/13.0/nios2eds/bin/gnu/h-i686-mingw32/bin/../lib/gcc/nios2-elf/4.1.2/../../../../nios2-elf/lib\libc.a(lib_a-fvwrite.o) (_realloc_r)
c:/altera/13.0/nios2eds/bin/gnu/h-i686-mingw32/bin/../lib/gcc/nios2-elf/4.1.2/../../../../nios2-elf/lib\libc.a(lib_a-refill.o)
                              c:/altera/13.0/nios2eds/bin/gnu/h-i686-mingw32/bin/../lib/gcc/nios2-elf/4.1.2/../../../../nios2-elf/lib\libc.a(lib_a-rget.o) (__srefill_r)
c:/altera/13.0/nios2eds/bin/gnu/h-i686-mingw32/bin/../lib/gcc/nios2-elf/4.1.2/../../../../nios2-elf/lib\libc.a(lib_a-s_isinfd.o)
                              c:/altera/13.0/nios2eds/bin/gnu/h-i686-mingw32/bin/../lib/gcc/nios2-elf/4.1.2/../../../../nios2-elf/lib\libc.a(lib_a-vfprintf.o) (__isinfd)
c:/altera/13.0/nios2eds/bin/gnu/h-i686-mingw32/bin/../lib/gcc/nios2-elf/4.1.2/../../../../nios2-elf/lib\libc.a(lib_a-s_isnand.o)
                              c:/altera/13.0/nios2eds/bin/gnu/h-i686-mingw32/bin/../lib/gcc/nios2-elf/4.1.2/../../../../nios2-elf/lib\libc.a(lib_a-vfprintf.o) (__isnand)
c:/altera/13.0/nios2eds/bin/gnu/h-i686-mingw32/bin/../lib/gcc/nios2-elf/4.1.2/../../../../nios2-elf/lib\libc.a(lib_a-sbrkr.o)
                              c:/altera/13.0/nios2eds/bin/gnu/h-i686-mingw32/bin/../lib/gcc/nios2-elf/4.1.2/../../../../nios2-elf/lib\libc.a(lib_a-freer.o) (_sbrk_r)
c:/altera/13.0/nios2eds/bin/gnu/h-i686-mingw32/bin/../lib/gcc/nios2-elf/4.1.2/../../../../nios2-elf/lib\libc.a(lib_a-stdio.o)
                              c:/altera/13.0/nios2eds/bin/gnu/h-i686-mingw32/bin/../lib/gcc/nios2-elf/4.1.2/../../../../nios2-elf/lib\libc.a(lib_a-findfp.o) (__sclose)
c:/altera/13.0/nios2eds/bin/gnu/h-i686-mingw32/bin/../lib/gcc/nios2-elf/4.1.2/../../../../nios2-elf/lib\libc.a(lib_a-strcmp.o)
                              c:/altera/13.0/nios2eds/bin/gnu/h-i686-mingw32/bin/../lib/gcc/nios2-elf/4.1.2/../../../../nios2-elf/lib\libc.a(lib_a-locale.o) (strcmp)
c:/altera/13.0/nios2eds/bin/gnu/h-i686-mingw32/bin/../lib/gcc/nios2-elf/4.1.2/../../../../nios2-elf/lib\libc.a(lib_a-writer.o)
                              c:/altera/13.0/nios2eds/bin/gnu/h-i686-mingw32/bin/../lib/gcc/nios2-elf/4.1.2/../../../../nios2-elf/lib\libc.a(lib_a-stdio.o) (_write_r)
c:/altera/13.0/nios2eds/bin/gnu/h-i686-mingw32/bin/../lib/gcc/nios2-elf/4.1.2/../../../../nios2-elf/lib\libc.a(lib_a-callocr.o)
                              c:/altera/13.0/nios2eds/bin/gnu/h-i686-mingw32/bin/../lib/gcc/nios2-elf/4.1.2/../../../../nios2-elf/lib\libc.a(lib_a-mprec.o) (_calloc_r)
c:/altera/13.0/nios2eds/bin/gnu/h-i686-mingw32/bin/../lib/gcc/nios2-elf/4.1.2/../../../../nios2-elf/lib\libc.a(lib_a-closer.o)
                              c:/altera/13.0/nios2eds/bin/gnu/h-i686-mingw32/bin/../lib/gcc/nios2-elf/4.1.2/../../../../nios2-elf/lib\libc.a(lib_a-stdio.o) (_close_r)
c:/altera/13.0/nios2eds/bin/gnu/h-i686-mingw32/bin/../lib/gcc/nios2-elf/4.1.2/../../../../nios2-elf/lib\libc.a(lib_a-fclose.o)
                              c:/altera/13.0/nios2eds/bin/gnu/h-i686-mingw32/bin/../lib/gcc/nios2-elf/4.1.2/../../../../nios2-elf/lib\libc.a(lib_a-findfp.o) (fclose)
c:/altera/13.0/nios2eds/bin/gnu/h-i686-mingw32/bin/../lib/gcc/nios2-elf/4.1.2/../../../../nios2-elf/lib\libc.a(lib_a-fstatr.o)
                              c:/altera/13.0/nios2eds/bin/gnu/h-i686-mingw32/bin/../lib/gcc/nios2-elf/4.1.2/../../../../nios2-elf/lib\libc.a(lib_a-makebuf.o) (_fstat_r)
c:/altera/13.0/nios2eds/bin/gnu/h-i686-mingw32/bin/../lib/gcc/nios2-elf/4.1.2/../../../../nios2-elf/lib\libc.a(lib_a-int_errno.o)
                              c:/altera/13.0/nios2eds/bin/gnu/h-i686-mingw32/bin/../lib/gcc/nios2-elf/4.1.2/../../../../nios2-elf/lib\libc.a(lib_a-sbrkr.o) (errno)
c:/altera/13.0/nios2eds/bin/gnu/h-i686-mingw32/bin/../lib/gcc/nios2-elf/4.1.2/../../../../nios2-elf/lib\libc.a(lib_a-isattyr.o)
                              c:/altera/13.0/nios2eds/bin/gnu/h-i686-mingw32/bin/../lib/gcc/nios2-elf/4.1.2/../../../../nios2-elf/lib\libc.a(lib_a-makebuf.o) (_isatty_r)
c:/altera/13.0/nios2eds/bin/gnu/h-i686-mingw32/bin/../lib/gcc/nios2-elf/4.1.2/../../../../nios2-elf/lib\libc.a(lib_a-lseekr.o)
                              c:/altera/13.0/nios2eds/bin/gnu/h-i686-mingw32/bin/../lib/gcc/nios2-elf/4.1.2/../../../../nios2-elf/lib\libc.a(lib_a-stdio.o) (_lseek_r)
c:/altera/13.0/nios2eds/bin/gnu/h-i686-mingw32/bin/../lib/gcc/nios2-elf/4.1.2/../../../../nios2-elf/lib\libc.a(lib_a-readr.o)
                              c:/altera/13.0/nios2eds/bin/gnu/h-i686-mingw32/bin/../lib/gcc/nios2-elf/4.1.2/../../../../nios2-elf/lib\libc.a(lib_a-stdio.o) (_read_r)
c:/altera/13.0/nios2eds/bin/gnu/h-i686-mingw32/bin/../lib/gcc/nios2-elf/4.1.2\libgcc.a(_udivdi3.o)
                              c:/altera/13.0/nios2eds/bin/gnu/h-i686-mingw32/bin/../lib/gcc/nios2-elf/4.1.2/../../../../nios2-elf/lib\libc.a(lib_a-vfprintf.o) (__udivdi3)
c:/altera/13.0/nios2eds/bin/gnu/h-i686-mingw32/bin/../lib/gcc/nios2-elf/4.1.2\libgcc.a(_umoddi3.o)
                              c:/altera/13.0/nios2eds/bin/gnu/h-i686-mingw32/bin/../lib/gcc/nios2-elf/4.1.2/../../../../nios2-elf/lib\libc.a(lib_a-vfprintf.o) (__umoddi3)
c:/altera/13.0/nios2eds/bin/gnu/h-i686-mingw32/bin/../lib/gcc/nios2-elf/4.1.2\libgcc.a(_div_df.o)
                              c:/altera/13.0/nios2eds/bin/gnu/h-i686-mingw32/bin/../lib/gcc/nios2-elf/4.1.2/../../../../nios2-elf/lib\libc.a(lib_a-dtoa.o) (__divdf3)
c:/altera/13.0/nios2eds/bin/gnu/h-i686-mingw32/bin/../lib/gcc/nios2-elf/4.1.2\libgcc.a(_eq_df.o)
                              c:/altera/13.0/nios2eds/bin/gnu/h-i686-mingw32/bin/../lib/gcc/nios2-elf/4.1.2/../../../../nios2-elf/lib\libc.a(lib_a-vfprintf.o) (__eqdf2)
c:/altera/13.0/nios2eds/bin/gnu/h-i686-mingw32/bin/../lib/gcc/nios2-elf/4.1.2\libgcc.a(_ne_df.o)
                              c:/altera/13.0/nios2eds/bin/gnu/h-i686-mingw32/bin/../lib/gcc/nios2-elf/4.1.2/../../../../nios2-elf/lib\libc.a(lib_a-vfprintf.o) (__nedf2)
c:/altera/13.0/nios2eds/bin/gnu/h-i686-mingw32/bin/../lib/gcc/nios2-elf/4.1.2\libgcc.a(_gt_df.o)
                              c:/altera/13.0/nios2eds/bin/gnu/h-i686-mingw32/bin/../lib/gcc/nios2-elf/4.1.2/../../../../nios2-elf/lib\libc.a(lib_a-dtoa.o) (__gtdf2)
c:/altera/13.0/nios2eds/bin/gnu/h-i686-mingw32/bin/../lib/gcc/nios2-elf/4.1.2\libgcc.a(_lt_df.o)
                              c:/altera/13.0/nios2eds/bin/gnu/h-i686-mingw32/bin/../lib/gcc/nios2-elf/4.1.2/../../../../nios2-elf/lib\libc.a(lib_a-vfprintf.o) (__ltdf2)
c:/altera/13.0/nios2eds/bin/gnu/h-i686-mingw32/bin/../lib/gcc/nios2-elf/4.1.2\libgcc.a(_si_to_df.o)
                              c:/altera/13.0/nios2eds/bin/gnu/h-i686-mingw32/bin/../lib/gcc/nios2-elf/4.1.2/../../../../nios2-elf/lib\libc.a(lib_a-dtoa.o) (__floatsidf)
c:/altera/13.0/nios2eds/bin/gnu/h-i686-mingw32/bin/../lib/gcc/nios2-elf/4.1.2\libgcc.a(lib2-divmod.o)
                              c:/altera/13.0/nios2eds/bin/gnu/h-i686-mingw32/bin/../lib/gcc/nios2-elf/4.1.2/../../../../nios2-elf/lib\libc.a(lib_a-vfprintf.o) (__divsi3)
../server_bsp/\libucosii_bsp.a(alt_exit.o)
                              c:/altera/13.0/nios2eds/bin/gnu/h-i686-mingw32/bin/../lib/gcc/nios2-elf/4.1.2/../../../../nios2-elf/lib\libc.a(lib_a-exit.o) (_exit)
../server_bsp/\libucosii_bsp.a(alt_flash_dev.o)
                              obj/default/SSS_DE2_115.o (alt_flash_open_dev)
../server_bsp/\libucosii_bsp.a(alt_fstat.o)
                              c:/altera/13.0/nios2eds/bin/gnu/h-i686-mingw32/bin/../lib/gcc/nios2-elf/4.1.2/../../../../nios2-elf/lib\libc.a(lib_a-fstatr.o) (fstat)
../server_bsp/\libucosii_bsp.a(alt_irq_register.o)
                              obj/default/dm9000a.o (alt_irq_register)
../server_bsp/\libucosii_bsp.a(alt_irq_vars.o)
                              ../server_bsp/\libucosii_bsp.a(alt_irq_register.o) (alt_irq_active)
../server_bsp/\libucosii_bsp.a(alt_isatty.o)
                              c:/altera/13.0/nios2eds/bin/gnu/h-i686-mingw32/bin/../lib/gcc/nios2-elf/4.1.2/../../../../nios2-elf/lib\libc.a(lib_a-isattyr.o) (isatty)
../server_bsp/\libucosii_bsp.a(alt_lseek.o)
                              c:/altera/13.0/nios2eds/bin/gnu/h-i686-mingw32/bin/../lib/gcc/nios2-elf/4.1.2/../../../../nios2-elf/lib\libc.a(lib_a-lseekr.o) (lseek)
../server_bsp/\libucosii_bsp.a(alt_main.o)
                              ../server_bsp//obj/HAL/src/crt0.o (alt_main)
../server_bsp/\libucosii_bsp.a(alt_sbrk.o)
                              c:/altera/13.0/nios2eds/bin/gnu/h-i686-mingw32/bin/../lib/gcc/nios2-elf/4.1.2/../../../../nios2-elf/lib\libc.a(lib_a-sbrkr.o) (sbrk)
../server_bsp/\libucosii_bsp.a(alt_usleep.o)
                              obj/default/LCD.o (usleep)
../server_bsp/\libucosii_bsp.a(alt_env_lock.o)
                              ../server_bsp/\libucosii_bsp.a(alt_main.o) (alt_envsem)
../server_bsp/\libucosii_bsp.a(alt_malloc_lock.o)
                              c:/altera/13.0/nios2eds/bin/gnu/h-i686-mingw32/bin/../lib/gcc/nios2-elf/4.1.2/../../../../nios2-elf/lib\libc.a(lib_a-freer.o) (__malloc_lock)
../server_bsp/\libucosii_bsp.a(os_core.o)
                              ../server_bsp/\libucosii_bsp.a(alt_main.o) (OSInit)
../server_bsp/\libucosii_bsp.a(os_dbg.o)
                              ../server_bsp/\libucosii_bsp.a(os_core.o) (OSDebugInit)
../server_bsp/\libucosii_bsp.a(os_flag.o)
                              obj/default/simple_socket_server.o (OSFlagCreate)
../server_bsp/\libucosii_bsp.a(os_mem.o)
                              ../server_bsp/\libucosii_bsp.a(os_core.o) (OS_MemInit)
../server_bsp/\libucosii_bsp.a(os_q.o)
                              obj/default/simple_socket_server.o (OSQCreate)
../server_bsp/\libucosii_bsp.a(os_sem.o)
                              obj/default/simple_socket_server.o (OSSemCreate)
../server_bsp/\libucosii_bsp.a(os_task.o)
                              obj/default/iniche_init.o (OSTaskCreateExt)
../server_bsp/\libucosii_bsp.a(os_time.o)
                              obj/default/iniche_init.o (OSTimeDly)
../server_bsp/\libucosii_bsp.a(alt_sys_init.o)
                              ../server_bsp/\libucosii_bsp.a(alt_main.o) (alt_irq_init)
../server_bsp/\libucosii_bsp.a(altera_avalon_cfi_flash.o)
                              ../server_bsp/\libucosii_bsp.a(alt_sys_init.o) (alt_flash_cfi_init)
../server_bsp/\libucosii_bsp.a(altera_avalon_cfi_flash_table.o)
                              ../server_bsp/\libucosii_bsp.a(altera_avalon_cfi_flash.o) (alt_set_flash_width_func)
../server_bsp/\libucosii_bsp.a(altera_avalon_epcs_flash_controller.o)
                              ../server_bsp/\libucosii_bsp.a(alt_sys_init.o) (alt_epcs_flash_init)
../server_bsp/\libucosii_bsp.a(altera_avalon_jtag_uart_fd.o)
                              ../server_bsp/\libucosii_bsp.a(alt_sys_init.o) (altera_avalon_jtag_uart_read_fd)
../server_bsp/\libucosii_bsp.a(altera_avalon_jtag_uart_init.o)
                              ../server_bsp/\libucosii_bsp.a(alt_sys_init.o) (altera_avalon_jtag_uart_init)
../server_bsp/\libucosii_bsp.a(altera_avalon_jtag_uart_ioctl.o)
                              ../server_bsp/\libucosii_bsp.a(altera_avalon_jtag_uart_fd.o) (altera_avalon_jtag_uart_ioctl)
../server_bsp/\libucosii_bsp.a(altera_avalon_jtag_uart_read.o)
                              ../server_bsp/\libucosii_bsp.a(altera_avalon_jtag_uart_fd.o) (altera_avalon_jtag_uart_read)
../server_bsp/\libucosii_bsp.a(altera_avalon_jtag_uart_write.o)
                              ../server_bsp/\libucosii_bsp.a(altera_avalon_jtag_uart_fd.o) (altera_avalon_jtag_uart_write)
../server_bsp/\libucosii_bsp.a(altera_avalon_lcd_16207.o)
                              ../server_bsp/\libucosii_bsp.a(alt_sys_init.o) (altera_avalon_lcd_16207_init)
../server_bsp/\libucosii_bsp.a(altera_avalon_lcd_16207_fd.o)
                              ../server_bsp/\libucosii_bsp.a(alt_sys_init.o) (altera_avalon_lcd_16207_write_fd)
../server_bsp/\libucosii_bsp.a(altera_avalon_timer_sc.o)
                              ../server_bsp/\libucosii_bsp.a(alt_sys_init.o) (alt_avalon_timer_sc_init)
../server_bsp/\libucosii_bsp.a(altera_avalon_uart_fd.o)
                              ../server_bsp/\libucosii_bsp.a(alt_sys_init.o) (altera_avalon_uart_read_fd)
../server_bsp/\libucosii_bsp.a(altera_avalon_uart_init.o)
                              ../server_bsp/\libucosii_bsp.a(alt_sys_init.o) (altera_avalon_uart_init)
../server_bsp/\libucosii_bsp.a(altera_avalon_uart_read.o)
                              ../server_bsp/\libucosii_bsp.a(altera_avalon_uart_fd.o) (altera_avalon_uart_read)
../server_bsp/\libucosii_bsp.a(altera_avalon_uart_write.o)
                              ../server_bsp/\libucosii_bsp.a(altera_avalon_uart_fd.o) (altera_avalon_uart_write)
../server_bsp/\libucosii_bsp.a(epcs_commands.o)
                              ../server_bsp/\libucosii_bsp.a(altera_avalon_epcs_flash_controller.o) (epcs_sector_erase)
../server_bsp/\libucosii_bsp.a(alt_iniche_close.o)
                              obj/default/simple_socket_server.o (close)
../server_bsp/\libucosii_bsp.a(alt_iniche_dev.o)
                              obj/default/iniche_init.o (alt_iniche_dev_list)
../server_bsp/\libucosii_bsp.a(alt_iniche_read.o)
                              c:/altera/13.0/nios2eds/bin/gnu/h-i686-mingw32/bin/../lib/gcc/nios2-elf/4.1.2/../../../../nios2-elf/lib\libc.a(lib_a-readr.o) (read)
../server_bsp/\libucosii_bsp.a(alt_iniche_write.o)
                              c:/altera/13.0/nios2eds/bin/gnu/h-i686-mingw32/bin/../lib/gcc/nios2-elf/4.1.2/../../../../nios2-elf/lib\libc.a(lib_a-writer.o) (write)
../server_bsp/\libucosii_bsp.a(ipnet.o)
                              obj/default/dm9000a.o (rcvdq)
../server_bsp/\libucosii_bsp.a(ipstart.o)
                              ../server_bsp/\libucosii_bsp.a(ipnet.o) (ifNumber)
../server_bsp/\libucosii_bsp.a(igmp_cmn.o)
                              ../server_bsp/\libucosii_bsp.a(ipstart.o) (igmp_init)
../server_bsp/\libucosii_bsp.a(bsdsock.o)
                              obj/default/simple_socket_server.o (bsd_accept)
../server_bsp/\libucosii_bsp.a(cksum.o)
                              ../server_bsp/\libucosii_bsp.a(igmp_cmn.o) (cksum)
../server_bsp/\libucosii_bsp.a(in_utils.o)
                              ../server_bsp/\libucosii_bsp.a(igmp_cmn.o) (ns_printf)
../server_bsp/\libucosii_bsp.a(netmain.o)
                              obj/default/iniche_init.o (iniche_net_ready)
../server_bsp/\libucosii_bsp.a(parseip.o)
                              obj/default/simple_socket_server.o (inet_pton)
../server_bsp/\libucosii_bsp.a(tk_crnos.o)
                              ../server_bsp/\libucosii_bsp.a(ipnet.o) (tk_yield)
../server_bsp/\libucosii_bsp.a(dhcpclnt.o)
                              ../server_bsp/\libucosii_bsp.a(netmain.o) (dhc_second)
../server_bsp/\libucosii_bsp.a(dhcputil.o)
                              ../server_bsp/\libucosii_bsp.a(dhcpclnt.o) (find_opt)
../server_bsp/\libucosii_bsp.a(pktalloc.o)
                              ../server_bsp/\libucosii_bsp.a(ipnet.o) (pk_init)
../server_bsp/\libucosii_bsp.a(q.o)
                              ../server_bsp/\libucosii_bsp.a(ipnet.o) (getq)
../server_bsp/\libucosii_bsp.a(udp_open.o)
                              ../server_bsp/\libucosii_bsp.a(dhcpclnt.o) (udp_open)
../server_bsp/\libucosii_bsp.a(asm_cksum.o)
                              ../server_bsp/\libucosii_bsp.a(cksum.o) (asm_cksum)
../server_bsp/\libucosii_bsp.a(brdutils.o)
                              ../server_bsp/\libucosii_bsp.a(ipnet.o) (dtrap)
../server_bsp/\libucosii_bsp.a(osportco.o)
                              ../server_bsp/\libucosii_bsp.a(tk_crnos.o) (tcp_sleep_count)
../server_bsp/\libucosii_bsp.a(targnios.o)
                              obj/default/iniche_init.o (alt_iniche_init)
../server_bsp/\libucosii_bsp.a(nptcp.o)
                              ../server_bsp/\libucosii_bsp.a(bsdsock.o) (soq)
../server_bsp/\libucosii_bsp.a(rawsock.o)
                              ../server_bsp/\libucosii_bsp.a(nptcp.o) (rawip_usrreq)
../server_bsp/\libucosii_bsp.a(sockcall.o)
                              obj/default/iniche_init.o (t_socket)
../server_bsp/\libucosii_bsp.a(socket.o)
                              ../server_bsp/\libucosii_bsp.a(sockcall.o) (socreate)
../server_bsp/\libucosii_bsp.a(socket2.o)
                              ../server_bsp/\libucosii_bsp.a(sockcall.o) (soqremque)
../server_bsp/\libucosii_bsp.a(soselect.o)
                              ../server_bsp/\libucosii_bsp.a(bsdsock.o) (t_select)
../server_bsp/\libucosii_bsp.a(tcp_in.o)
                              ../server_bsp/\libucosii_bsp.a(nptcp.o) (tcp_input)
../server_bsp/\libucosii_bsp.a(tcp_out.o)
                              ../server_bsp/\libucosii_bsp.a(tcp_in.o) (tcp_output)
../server_bsp/\libucosii_bsp.a(tcp_subr.o)
                              ../server_bsp/\libucosii_bsp.a(nptcp.o) (tcp_init)
../server_bsp/\libucosii_bsp.a(tcp_timr.o)
                              ../server_bsp/\libucosii_bsp.a(tcp_in.o) (tcp_keepidle)
../server_bsp/\libucosii_bsp.a(tcp_usr.o)
                              ../server_bsp/\libucosii_bsp.a(nptcp.o) (tcp_usrreq)
../server_bsp/\libucosii_bsp.a(tcpport.o)
                              ../server_bsp/\libucosii_bsp.a(ipstart.o) (tcpinit)
../server_bsp/\libucosii_bsp.a(udpsock.o)
                              ../server_bsp/\libucosii_bsp.a(nptcp.o) (udp_usrreq)
../server_bsp/\libucosii_bsp.a(alt_alarm_start.o)
                              ../server_bsp/\libucosii_bsp.a(altera_avalon_jtag_uart_init.o) (alt_alarm_start)
../server_bsp/\libucosii_bsp.a(alt_busy_sleep.o)
                              ../server_bsp/\libucosii_bsp.a(alt_usleep.o) (alt_busy_sleep)
../server_bsp/\libucosii_bsp.a(alt_close.o)
                              ../server_bsp/\libucosii_bsp.a(alt_iniche_close.o) (alt_close)
../server_bsp/\libucosii_bsp.a(alt_dcache_flush.o)
                              ../server_bsp/\libucosii_bsp.a(altera_avalon_cfi_flash.o) (alt_dcache_flush)
../server_bsp/\libucosii_bsp.a(alt_dev.o)
                              ../server_bsp/\libucosii_bsp.a(alt_sys_init.o) (alt_dev_list)
../server_bsp/\libucosii_bsp.a(alt_dev_llist_insert.o)
                              ../server_bsp/\libucosii_bsp.a(alt_sys_init.o) (alt_dev_llist_insert)
../server_bsp/\libucosii_bsp.a(alt_do_ctors.o)
                              ../server_bsp/\libucosii_bsp.a(alt_main.o) (_do_ctors)
../server_bsp/\libucosii_bsp.a(alt_do_dtors.o)
                              ../server_bsp/\libucosii_bsp.a(alt_main.o) (_do_dtors)
../server_bsp/\libucosii_bsp.a(alt_errno.o)
                              ../server_bsp/\libucosii_bsp.a(alt_fstat.o) (alt_errno)
../server_bsp/\libucosii_bsp.a(alt_find_dev.o)
                              ../server_bsp/\libucosii_bsp.a(alt_flash_dev.o) (alt_find_dev)
../server_bsp/\libucosii_bsp.a(alt_iic.o)
                              ../server_bsp/\libucosii_bsp.a(altera_avalon_jtag_uart_init.o) (alt_ic_isr_register)
../server_bsp/\libucosii_bsp.a(alt_iic_isr_register.o)
                              ../server_bsp/\libucosii_bsp.a(alt_iic.o) (alt_iic_isr_register)
../server_bsp/\libucosii_bsp.a(alt_io_redirect.o)
                              ../server_bsp/\libucosii_bsp.a(alt_main.o) (alt_io_redirect)
../server_bsp/\libucosii_bsp.a(alt_irq_entry.o)
                              ../server_bsp/\libucosii_bsp.a(alt_irq_register.o) (alt_irq_entry)
../server_bsp/\libucosii_bsp.a(alt_irq_handler.o)
                              ../server_bsp/\libucosii_bsp.a(alt_irq_register.o) (alt_irq_handler)
../server_bsp/\libucosii_bsp.a(alt_open.o)
                              ../server_bsp/\libucosii_bsp.a(alt_io_redirect.o) (open)
../server_bsp/\libucosii_bsp.a(alt_read.o)
                              ../server_bsp/\libucosii_bsp.a(alt_iniche_read.o) (alt_read)
../server_bsp/\libucosii_bsp.a(alt_release_fd.o)
                              ../server_bsp/\libucosii_bsp.a(alt_close.o) (alt_release_fd)
../server_bsp/\libucosii_bsp.a(alt_remap_cached.o)
                              ../server_bsp/\libucosii_bsp.a(targnios.o) (alt_remap_cached)
../server_bsp/\libucosii_bsp.a(alt_remap_uncached.o)
                              ../server_bsp/\libucosii_bsp.a(targnios.o) (alt_remap_uncached)
../server_bsp/\libucosii_bsp.a(alt_tick.o)
                              ../server_bsp/\libucosii_bsp.a(alt_usleep.o) (_alt_tick_rate)
../server_bsp/\libucosii_bsp.a(alt_write.o)
                              ../server_bsp/\libucosii_bsp.a(alt_iniche_write.o) (alt_write)
../server_bsp/\libucosii_bsp.a(altera_nios2_qsys_irq.o)
                              ../server_bsp/\libucosii_bsp.a(alt_sys_init.o) (altera_nios2_qsys_irq_init)
../server_bsp/\libucosii_bsp.a(os_cpu_a.o)
                              ../server_bsp/\libucosii_bsp.a(os_core.o) (OSIntCtxSw)
../server_bsp/\libucosii_bsp.a(os_cpu_c.o)
                              ../server_bsp/\libucosii_bsp.a(os_task.o) (OSTaskStkInit)
../server_bsp/\libucosii_bsp.a(altera_avalon_cfi_flash_amd.o)
                              ../server_bsp/\libucosii_bsp.a(altera_avalon_cfi_flash_table.o) (alt_program_amd)
../server_bsp/\libucosii_bsp.a(altera_avalon_cfi_flash_intel.o)
                              ../server_bsp/\libucosii_bsp.a(altera_avalon_cfi_flash_table.o) (alt_program_intel)
../server_bsp/\libucosii_bsp.a(altera_avalon_spi.o)
                              ../server_bsp/\libucosii_bsp.a(epcs_commands.o) (alt_avalon_spi_command)
../server_bsp/\libucosii_bsp.a(allports.o)
                              ../server_bsp/\libucosii_bsp.a(dhcpclnt.o) (name)
../server_bsp/\libucosii_bsp.a(timeouts.o)
                              ../server_bsp/\libucosii_bsp.a(netmain.o) (inet_timer)
../server_bsp/\libucosii_bsp.a(tk_misc.o)
                              ../server_bsp/\libucosii_bsp.a(netmain.o) (create_apptasks)
../server_bsp/\libucosii_bsp.a(alt_iniche_fcntl.o)
                              ../server_bsp/\libucosii_bsp.a(brdutils.o) (fcntl)
../server_bsp/\libucosii_bsp.a(et_arp.o)
                              ../server_bsp/\libucosii_bsp.a(ipstart.o) (etainit)
../server_bsp/\libucosii_bsp.a(iface.o)
                              ../server_bsp/\libucosii_bsp.a(ipnet.o) (netlist)
../server_bsp/\libucosii_bsp.a(ip.o)
                              ../server_bsp/\libucosii_bsp.a(ipstart.o) (ip_init)
../server_bsp/\libucosii_bsp.a(ip_reasm.o)
                              ../server_bsp/\libucosii_bsp.a(timeouts.o) (ire_cticks)
../server_bsp/\libucosii_bsp.a(ipdemux.o)
                              ../server_bsp/\libucosii_bsp.a(ipnet.o) (ip_rcv)
../server_bsp/\libucosii_bsp.a(ipmc.o)
                              ../server_bsp/\libucosii_bsp.a(ipstart.o) (in_addmulti)
../server_bsp/\libucosii_bsp.a(ipport.o)
                              ../server_bsp/\libucosii_bsp.a(targnios.o) (port_prep)
../server_bsp/\libucosii_bsp.a(ipraw.o)
                              ../server_bsp/\libucosii_bsp.a(rawsock.o) (ipraw_eps)
../server_bsp/\libucosii_bsp.a(iproute.o)
                              ../server_bsp/\libucosii_bsp.a(ip.o) (cachedRoute)
../server_bsp/\libucosii_bsp.a(udp.o)
                              ../server_bsp/\libucosii_bsp.a(ipdemux.o) (udpdemux)
../server_bsp/\libucosii_bsp.a(igmp.o)
                              ../server_bsp/\libucosii_bsp.a(igmp_cmn.o) (igmpv1_input)
../server_bsp/\libucosii_bsp.a(igmp2.o)
                              ../server_bsp/\libucosii_bsp.a(igmp_cmn.o) (igmpv2_input)
../server_bsp/\libucosii_bsp.a(ipopt.o)
                              ../server_bsp/\libucosii_bsp.a(socket.o) (ip_setmoptions)
../server_bsp/\libucosii_bsp.a(u_mctest.o)
                              ../server_bsp/\libucosii_bsp.a(allports.o) (u_mctest_init)
../server_bsp/\libucosii_bsp.a(dhcsetup.o)
                              ../server_bsp/\libucosii_bsp.a(allports.o) (dhc_setup)
../server_bsp/\libucosii_bsp.a(memdev.o)
                              ../server_bsp/\libucosii_bsp.a(allports.o) (init_memdev)
../server_bsp/\libucosii_bsp.a(tcpcksum.o)
                              ../server_bsp/\libucosii_bsp.a(nptcp.o) (tcp_cksum)
../server_bsp/\libucosii_bsp.a(in_pcb.o)
                              ../server_bsp/\libucosii_bsp.a(tcp_usr.o) (in_pcballoc)
../server_bsp/\libucosii_bsp.a(vfsfiles.o)
                              ../server_bsp/\libucosii_bsp.a(memdev.o) (vfsystems)
../server_bsp/\libucosii_bsp.a(vfsport.o)
                              ../server_bsp/\libucosii_bsp.a(allports.o) (prep_vfs)
../server_bsp/\libucosii_bsp.a(alt_exception_entry.o)
                              ../server_bsp/\libucosii_bsp.a(alt_irq_entry.o) (alt_exception)
../server_bsp/\libucosii_bsp.a(alt_fcntl.o)
                              ../server_bsp/\libucosii_bsp.a(alt_iniche_fcntl.o) (alt_fcntl)
../server_bsp/\libucosii_bsp.a(alt_find_file.o)
                              ../server_bsp/\libucosii_bsp.a(alt_open.o) (alt_find_file)
../server_bsp/\libucosii_bsp.a(alt_get_fd.o)
                              ../server_bsp/\libucosii_bsp.a(alt_open.o) (alt_get_fd)
../server_bsp/\libucosii_bsp.a(icmp.o)
                              ../server_bsp/\libucosii_bsp.a(ipdemux.o) (icmprcv)
c:/altera/13.0/nios2eds/bin/gnu/h-i686-mingw32/bin/../lib/gcc/nios2-elf/4.1.2/../../../../nios2-elf/lib\libc.a(lib_a-atexit.o)
                              ../server_bsp/\libucosii_bsp.a(alt_main.o) (atexit)
c:/altera/13.0/nios2eds/bin/gnu/h-i686-mingw32/bin/../lib/gcc/nios2-elf/4.1.2/../../../../nios2-elf/lib\libc.a(lib_a-atoi.o)
                              ../server_bsp/\libucosii_bsp.a(parseip.o) (atoi)
c:/altera/13.0/nios2eds/bin/gnu/h-i686-mingw32/bin/../lib/gcc/nios2-elf/4.1.2/../../../../nios2-elf/lib\libc.a(lib_a-calloc.o)
                              ../server_bsp/\libucosii_bsp.a(targnios.o) (calloc)
c:/altera/13.0/nios2eds/bin/gnu/h-i686-mingw32/bin/../lib/gcc/nios2-elf/4.1.2/../../../../nios2-elf/lib\libc.a(lib_a-malloc.o)
                              ../server_bsp/\libucosii_bsp.a(targnios.o) (free)
c:/altera/13.0/nios2eds/bin/gnu/h-i686-mingw32/bin/../lib/gcc/nios2-elf/4.1.2/../../../../nios2-elf/lib\libc.a(lib_a-memcmp.o)
                              ../server_bsp/\libucosii_bsp.a(altera_avalon_cfi_flash.o) (memcmp)
c:/altera/13.0/nios2eds/bin/gnu/h-i686-mingw32/bin/../lib/gcc/nios2-elf/4.1.2/../../../../nios2-elf/lib\libc.a(lib_a-sprintf.o)
                              ../server_bsp/\libucosii_bsp.a(in_utils.o) (sprintf)
c:/altera/13.0/nios2eds/bin/gnu/h-i686-mingw32/bin/../lib/gcc/nios2-elf/4.1.2/../../../../nios2-elf/lib\libc.a(lib_a-strcpy.o)
                              ../server_bsp/\libucosii_bsp.a(parseip.o) (strcpy)
c:/altera/13.0/nios2eds/bin/gnu/h-i686-mingw32/bin/../lib/gcc/nios2-elf/4.1.2/../../../../nios2-elf/lib\libc.a(lib_a-strncmp.o)
                              ../server_bsp/\libucosii_bsp.a(vfsfiles.o) (strncmp)
c:/altera/13.0/nios2eds/bin/gnu/h-i686-mingw32/bin/../lib/gcc/nios2-elf/4.1.2/../../../../nios2-elf/lib\libc.a(lib_a-strncpy.o)
                              ../server_bsp/\libucosii_bsp.a(dhcpclnt.o) (strncpy)
c:/altera/13.0/nios2eds/bin/gnu/h-i686-mingw32/bin/../lib/gcc/nios2-elf/4.1.2/../../../../nios2-elf/lib\libc.a(lib_a-strtol.o)
                              c:/altera/13.0/nios2eds/bin/gnu/h-i686-mingw32/bin/../lib/gcc/nios2-elf/4.1.2/../../../../nios2-elf/lib\libc.a(lib_a-atoi.o) (_strtol_r)
c:/altera/13.0/nios2eds/bin/gnu/h-i686-mingw32/bin/../lib/gcc/nios2-elf/4.1.2/../../../../nios2-elf/lib\libc.a(lib_a-vprintf.o)
                              ../server_bsp/\libucosii_bsp.a(in_utils.o) (vprintf)
c:/altera/13.0/nios2eds/bin/gnu/h-i686-mingw32/bin/../lib/gcc/nios2-elf/4.1.2/../../../../nios2-elf/lib\libc.a(lib_a-vsprintf.o)
                              ../server_bsp/\libucosii_bsp.a(in_utils.o) (vsprintf)
c:/altera/13.0/nios2eds/bin/gnu/h-i686-mingw32/bin/../lib/gcc/nios2-elf/4.1.2/../../../../nios2-elf/lib\libc.a(lib_a-__atexit.o)
                              c:/altera/13.0/nios2eds/bin/gnu/h-i686-mingw32/bin/../lib/gcc/nios2-elf/4.1.2/../../../../nios2-elf/lib\libc.a(lib_a-atexit.o) (__register_exitproc)

Allocating common symbols
Common symbol       size              file

soq                 0x14              ../server_bsp/\libucosii_bsp.a(nptcp.o)
alt_irq             0x100             ../server_bsp/\libucosii_bsp.a(alt_irq_handler.o)
tcp_optionbuf       0x4               ../server_bsp/\libucosii_bsp.a(tcp_out.o)
last_flash_sector_offset
                    0x4               obj/default/SSS_DE2_115.o
rt_mib              0x4               ../server_bsp/\libucosii_bsp.a(ip.o)
so_evtmap_create    0x4               ../server_bsp/\libucosii_bsp.a(ipport.o)
SSSLEDCommandQ      0x4               obj/default/simple_socket_server.o
OSLockNesting       0x1               ../server_bsp/\libucosii_bsp.a(os_core.o)
tcb                 0x2c              ../server_bsp/\libucosii_bsp.a(tcp_subr.o)
OSRunning           0x1               ../server_bsp/\libucosii_bsp.a(os_core.o)
dhc_states          0xf0              ../server_bsp/\libucosii_bsp.a(dhcpclnt.o)
tcpstat             0xe0              ../server_bsp/\libucosii_bsp.a(tcp_subr.o)
OSIdleCtr           0x4               ../server_bsp/\libucosii_bsp.a(os_core.o)
SSSLEDLightshowSem  0x4               obj/default/simple_socket_server.o
udp_mib             0x10              ../server_bsp/\libucosii_bsp.a(udp.o)
to_netmain          0x1               ../server_bsp/\libucosii_bsp.a(netmain.o)
OSPrioHighRdy       0x1               ../server_bsp/\libucosii_bsp.a(os_core.o)
errno               0x4               c:/altera/13.0/nios2eds/bin/gnu/h-i686-mingw32/bin/../lib/gcc/nios2-elf/4.1.2/../../../../nios2-elf/lib\libc.a(lib_a-int_errno.o)
lilfreeq            0x14              ../server_bsp/\libucosii_bsp.a(pktalloc.o)
icmp_mib            0x68              ../server_bsp/\libucosii_bsp.a(icmp.o)
resid_semaphore     0x40              ../server_bsp/\libucosii_bsp.a(targnios.o)
alt_heapsem         0x4               ../server_bsp/\libucosii_bsp.a(alt_malloc_lock.o)
OSFlagTbl           0x370             ../server_bsp/\libucosii_bsp.a(os_core.o)
mbstat              0x8               ../server_bsp/\libucosii_bsp.a(nptcp.o)
netq_intmask        0x4               ../server_bsp/\libucosii_bsp.a(osportco.o)
select_wait         0x2               ../server_bsp/\libucosii_bsp.a(nptcp.o)
tcpmib              0x3c              ../server_bsp/\libucosii_bsp.a(nptcp.o)
OSPrioCur           0x1               ../server_bsp/\libucosii_bsp.a(os_core.o)
mheap_sem_ptr       0x4               ../server_bsp/\libucosii_bsp.a(targnios.o)
netlist             0x14              ../server_bsp/\libucosii_bsp.a(iface.o)
mbufq               0x14              ../server_bsp/\libucosii_bsp.a(nptcp.o)
OSTCBList           0x4               ../server_bsp/\libucosii_bsp.a(os_core.o)
alt_fd_list_lock    0x4               ../server_bsp/\libucosii_bsp.a(alt_dev.o)
OSMemTbl            0xc30             ../server_bsp/\libucosii_bsp.a(os_core.o)
OSTickStepState     0x1               ../server_bsp/\libucosii_bsp.a(os_core.o)
OSTaskStatStk       0x800             ../server_bsp/\libucosii_bsp.a(os_core.o)
OSCtxSwCtr          0x4               ../server_bsp/\libucosii_bsp.a(os_core.o)
igmpstats           0x64              ../server_bsp/\libucosii_bsp.a(igmp_cmn.o)
ire_stats           0x18              ../server_bsp/\libucosii_bsp.a(ip_reasm.o)
old_mode            0x4               ../server_bsp/\libucosii_bsp.a(osportco.o)
vfs_dir_stale       0x4               ../server_bsp/\libucosii_bsp.a(vfsfiles.o)
cticks_factor       0x4               ../server_bsp/\libucosii_bsp.a(brdutils.o)
g_dm9ka             0x44              obj/default/dm9000a.o
OSIdleCtrMax        0x4               ../server_bsp/\libucosii_bsp.a(os_core.o)
memestats           0x10              ../server_bsp/\libucosii_bsp.a(pktalloc.o)
intimers            0x64              ../server_bsp/\libucosii_bsp.a(timeouts.o)
OSTCBFreeList       0x4               ../server_bsp/\libucosii_bsp.a(os_core.o)
global_TCPwakeup_setIndx
                    0x4               ../server_bsp/\libucosii_bsp.a(osportco.o)
SSSInitialTaskStk   0x2000            obj/default/iniche_init.o
rcvdq               0x14              ../server_bsp/\libucosii_bsp.a(ipnet.o)
global_tcb_ext      0xfc              ../server_bsp/\libucosii_bsp.a(osportco.o)
netstatic           0x300             ../server_bsp/\libucosii_bsp.a(ipstart.o)
tcp_maxidle         0x4               ../server_bsp/\libucosii_bsp.a(tcp_timr.o)
LED7SegLightshowTaskStk
                    0x2000            obj/default/simple_socket_server.o
OSCPUUsage          0x1               ../server_bsp/\libucosii_bsp.a(os_core.o)
nets                0x10              ../server_bsp/\libucosii_bsp.a(ipstart.o)
pktlog              0xf0              ../server_bsp/\libucosii_bsp.a(pktalloc.o)
OSTaskCtr           0x1               ../server_bsp/\libucosii_bsp.a(os_core.o)
SSSLEDEventFlag     0x4               obj/default/simple_socket_server.o
OSMemFreeList       0x4               ../server_bsp/\libucosii_bsp.a(os_core.o)
vfs_open_files      0x4               ../server_bsp/\libucosii_bsp.a(vfsfiles.o)
cticks              0x4               ../server_bsp/\libucosii_bsp.a(osportco.o)
to_nettick          0x1               ../server_bsp/\libucosii_bsp.a(netmain.o)
last_flash_sector   0x4               obj/default/SSS_DE2_115.o
OSQTbl              0x1e0             ../server_bsp/\libucosii_bsp.a(os_core.o)
OSTCBHighRdy        0x4               ../server_bsp/\libucosii_bsp.a(os_core.o)
OSQFreeList         0x4               ../server_bsp/\libucosii_bsp.a(os_core.o)
OSRdyGrp            0x1               ../server_bsp/\libucosii_bsp.a(os_core.o)
ip_mib              0x50              ../server_bsp/\libucosii_bsp.a(ip.o)
SSSLEDCommandQTbl   0x78              obj/default/simple_socket_server.o
OS_TPS              0x4               ../server_bsp/\libucosii_bsp.a(brdutils.o)
_atexit0            0x190             c:/altera/13.0/nios2eds/bin/gnu/h-i686-mingw32/bin/../lib/gcc/nios2-elf/4.1.2/../../../../nios2-elf/lib\libc.a(lib_a-atexit.o)
OSRdyTbl            0x3               ../server_bsp/\libucosii_bsp.a(os_core.o)
igmp_all_hosts_group
                    0x4               ../server_bsp/\libucosii_bsp.a(igmp_cmn.o)
eth_prt_buf         0x12              ../server_bsp/\libucosii_bsp.a(in_utils.o)
app_semaphore       0x18              ../server_bsp/\libucosii_bsp.a(targnios.o)
LEDManagementTaskStk
                    0x2000            obj/default/simple_socket_server.o
rcvdq_sem_ptr       0x4               ../server_bsp/\libucosii_bsp.a(targnios.o)
OSEventFreeList     0x4               ../server_bsp/\libucosii_bsp.a(os_core.o)
mfreeq              0x14              ../server_bsp/\libucosii_bsp.a(nptcp.o)
to_ssstask          0x1               obj/default/iniche_init.o
global_TCPwakeup_set
                    0xf0              ../server_bsp/\libucosii_bsp.a(osportco.o)
bigfreeq            0x14              ../server_bsp/\libucosii_bsp.a(pktalloc.o)
so_evtmap_delete    0x4               ../server_bsp/\libucosii_bsp.a(ipport.o)
tcp_saveti          0x28              ../server_bsp/\libucosii_bsp.a(tcp_in.o)
OSIntNesting        0x1               ../server_bsp/\libucosii_bsp.a(os_core.o)
so_evtmap           0x1               ../server_bsp/\libucosii_bsp.a(ipport.o)
OSTCBCur            0x4               ../server_bsp/\libucosii_bsp.a(os_core.o)
arp_table           0x100             ../server_bsp/\libucosii_bsp.a(et_arp.o)
tcp_iss             0x4               ../server_bsp/\libucosii_bsp.a(tcp_timr.o)
vfs_total_rw_space  0x4               ../server_bsp/\libucosii_bsp.a(vfsfiles.o)
OSTime              0x4               ../server_bsp/\libucosii_bsp.a(os_core.o)
OSTaskIdleStk       0x800             ../server_bsp/\libucosii_bsp.a(os_core.o)
OSEventTbl          0xb40             ../server_bsp/\libucosii_bsp.a(os_core.o)
vfs_total_dyna_files
                    0x4               ../server_bsp/\libucosii_bsp.a(vfsfiles.o)
OSTCBTbl            0x510             ../server_bsp/\libucosii_bsp.a(os_core.o)
ipreturn            0x12              ../server_bsp/\libucosii_bsp.a(in_utils.o)
OSFlagFreeList      0x4               ../server_bsp/\libucosii_bsp.a(os_core.o)
dropline            0x4               ../server_bsp/\libucosii_bsp.a(tcp_in.o)
OSStatRdy           0x1               ../server_bsp/\libucosii_bsp.a(os_core.o)
OSTCBPrioTbl        0x54              ../server_bsp/\libucosii_bsp.a(os_core.o)
igmp_all_rtrs_group
                    0x4               ../server_bsp/\libucosii_bsp.a(igmp_cmn.o)
alt_envsem          0x4               ../server_bsp/\libucosii_bsp.a(alt_env_lock.o)
OSIdleCtrRun        0x4               ../server_bsp/\libucosii_bsp.a(os_core.o)

Memory Configuration

Name             Origin             Length             Attributes
sdram_0_BEFORE_EXCEPTION 0x00800000         0x00000020
sdram_0          0x00800020         0x007fffe0
reset            0x01400000         0x00000020
cfi_flash_0      0x01400020         0x003fffe0
sram_0           0x01a00000         0x00080000
epcs_controller  0x01a81000         0x00000800
*default*        0x00000000         0xffffffff

Linker script and memory map

LOAD ../server_bsp//obj/HAL/src/crt0.o
LOAD obj/default/LCD.o
LOAD obj/default/SSS_DE2_115.o
LOAD obj/default/alt_error_handler.o
LOAD obj/default/dm9000a.o
LOAD obj/default/iniche_init.o
LOAD obj/default/led.o
LOAD obj/default/network_utilities.o
LOAD obj/default/simple_socket_server.o
LOAD obj/default/tse_my_system.o
LOAD c:/altera/13.0/nios2eds/bin/gnu/h-i686-mingw32/bin/../lib/gcc/nios2-elf/4.1.2/../../../../nios2-elf/lib\libstdc++.a
LOAD c:/altera/13.0/nios2eds/bin/gnu/h-i686-mingw32/bin/../lib/gcc/nios2-elf/4.1.2/../../../../nios2-elf/lib\libm.a
LOAD c:/altera/13.0/nios2eds/bin/gnu/h-i686-mingw32/bin/../lib/gcc/nios2-elf/4.1.2\libgcc.a
START GROUP
LOAD c:/altera/13.0/nios2eds/bin/gnu/h-i686-mingw32/bin/../lib/gcc/nios2-elf/4.1.2/../../../../nios2-elf/lib\libc.a
LOAD c:/altera/13.0/nios2eds/bin/gnu/h-i686-mingw32/bin/../lib/gcc/nios2-elf/4.1.2\libgcc.a
LOAD ../server_bsp/\libucosii_bsp.a
END GROUP
LOAD c:/altera/13.0/nios2eds/bin/gnu/h-i686-mingw32/bin/../lib/gcc/nios2-elf/4.1.2\libgcc.a
                0x00800000                __alt_mem_sdram_0 = 0x800000
                0x01400000                __alt_mem_cfi_flash_0 = 0x1400000
                0x01a00000                __alt_mem_sram_0 = 0x1a00000
                0x01a81000                __alt_mem_epcs_controller = 0x1a81000

.entry          0x01400000        0x0
 *(.entry)
 .entry         0x01400000        0x0 ../server_bsp//obj/HAL/src/crt0.o
                0x01400000                __reset

.exceptions     0x00800020      0x19c
                0x00800020                PROVIDE (__ram_exceptions_start, ABSOLUTE (.))
                0x00800020                . = ALIGN (0x20)
 *(.irq)
 *(.exceptions.entry.label)
 .exceptions.entry.label
                0x00800020        0x0 ../server_bsp/\libucosii_bsp.a(alt_irq_entry.o)
                0x00800020                alt_irq_entry
 .exceptions.entry.label
                0x00800020        0x0 ../server_bsp/\libucosii_bsp.a(alt_exception_entry.o)
                0x00800020                alt_exception
 *(.exceptions.entry.user)
 *(.exceptions.entry)
 .exceptions.entry
                0x00800020       0x54 ../server_bsp/\libucosii_bsp.a(alt_exception_entry.o)
 *(.exceptions.irqtest.user)
 *(.exceptions.irqtest)
 .exceptions.irqtest
                0x00800074       0x10 ../server_bsp/\libucosii_bsp.a(alt_irq_entry.o)
 *(.exceptions.irqhandler.user)
 *(.exceptions.irqhandler)
 .exceptions.irqhandler
                0x00800084        0x4 ../server_bsp/\libucosii_bsp.a(alt_irq_entry.o)
 *(.exceptions.irqreturn.user)
 *(.exceptions.irqreturn)
 .exceptions.irqreturn
                0x00800088        0x4 ../server_bsp/\libucosii_bsp.a(alt_irq_entry.o)
 *(.exceptions.notirq.label)
 .exceptions.notirq.label
                0x0080008c        0x0 ../server_bsp/\libucosii_bsp.a(alt_irq_entry.o)
 *(.exceptions.notirq.user)
 *(.exceptions.notirq)
 .exceptions.notirq
                0x0080008c        0x8 ../server_bsp/\libucosii_bsp.a(alt_exception_entry.o)
 *(.exceptions.soft.user)
 *(.exceptions.soft)
 *(.exceptions.unknown.user)
 *(.exceptions.unknown)
 .exceptions.unknown
                0x00800094        0x4 ../server_bsp/\libucosii_bsp.a(alt_exception_entry.o)
 *(.exceptions.exit.label)
 .exceptions.exit.label
                0x00800098        0x0 ../server_bsp/\libucosii_bsp.a(alt_irq_entry.o)
 .exceptions.exit.label
                0x00800098        0x0 ../server_bsp/\libucosii_bsp.a(alt_exception_entry.o)
 *(.exceptions.exit.user)
 *(.exceptions.exit)
 .exceptions.exit
                0x00800098       0x54 ../server_bsp/\libucosii_bsp.a(alt_exception_entry.o)
 *(.exceptions)
 .exceptions    0x008000ec       0xd0 ../server_bsp/\libucosii_bsp.a(alt_irq_handler.o)
                0x008000ec                alt_irq_handler
                0x008001bc                PROVIDE (__ram_exceptions_end, ABSOLUTE (.))
                0x00800020                PROVIDE (__flash_exceptions_start, LOADADDR (.exceptions))

.text           0x008001bc    0x46d54
                0x008001bc                PROVIDE (stext, ABSOLUTE (.))
 *(.interp)
 *(.hash)
 *(.dynsym)
 *(.dynstr)
 *(.gnu.version)
 *(.gnu.version_d)
 *(.gnu.version_r)
 *(.rel.init)
 *(.rela.init)
 *(.rel.text .rel.text.* .rel.gnu.linkonce.t.*)
 *(.rela.text .rela.text.* .rela.gnu.linkonce.t.*)
 *(.rel.fini)
 *(.rela.fini)
 *(.rel.rodata .rel.rodata.* .rel.gnu.linkonce.r.*)
 *(.rela.rodata .rela.rodata.* .rela.gnu.linkonce.r.*)
 *(.rel.data .rel.data.* .rel.gnu.linkonce.d.*)
 *(.rela.data .rela.data.* .rela.gnu.linkonce.d.*)
 *(.rel.tdata .rel.tdata.* .rel.gnu.linkonce.td.*)
 *(.rela.tdata .rela.tdata.* .rela.gnu.linkonce.td.*)
 *(.rel.tbss .rel.tbss.* .rel.gnu.linkonce.tb.*)
 *(.rela.tbss .rela.tbss.* .rela.gnu.linkonce.tb.*)
 *(.rel.ctors)
 *(.rela.ctors)
 *(.rel.dtors)
 *(.rela.dtors)
 *(.rel.got)
 *(.rela.got)
 *(.rel.sdata .rel.sdata.* .rel.gnu.linkonce.s.*)
 *(.rela.sdata .rela.sdata.* .rela.gnu.linkonce.s.*)
 *(.rel.sbss .rel.sbss.* .rel.gnu.linkonce.sb.*)
 *(.rela.sbss .rela.sbss.* .rela.gnu.linkonce.sb.*)
 *(.rel.sdata2 .rel.sdata2.* .rel.gnu.linkonce.s2.*)
 *(.rela.sdata2 .rela.sdata2.* .rela.gnu.linkonce.s2.*)
 *(.rel.sbss2 .rel.sbss2.* .rel.gnu.linkonce.sb2.*)
 *(.rela.sbss2 .rela.sbss2.* .rela.gnu.linkonce.sb2.*)
 *(.rel.bss .rel.bss.* .rel.gnu.linkonce.b.*)
 *(.rela.bss .rela.bss.* .rela.gnu.linkonce.b.*)
 *(.rel.plt)
 *(.rela.plt)
 *(.rel.dyn)
 *(.init)
 *(.plt)
 *(.text .stub .text.* .gnu.linkonce.t.*)
 .text          0x008001bc       0x48 ../server_bsp//obj/HAL/src/crt0.o
                0x008001bc                _start
 .text          0x00800204      0x2dc obj/default/LCD.o
                0x00800204                LCD_Init
                0x008002a0                LCD_Show_Text
                0x00800328                LCD_Line2
                0x00800364                LCD_Line1
                0x008003a0                LCD_Clear
                0x008003dc                LCD_Test
 .text          0x008004e0      0x2ec obj/default/SSS_DE2_115.o
                0x008004e0                get_DE2_115_mac_addr
                0x00800688                FindLastFlashSectorOffset
 .text          0x008007cc      0xba8 obj/default/alt_error_handler.o
                0x008007cc                alt_uCOSIIErrorHandler
                0x00800df0                alt_NetworkErrorHandler
                0x00801088                alt_SSSErrorHandler
 .text          0x00801374      0xe48 obj/default/dm9000a.o
                0x00801374                dm9000a_iow
                0x008013c8                dm9000a_ior
                0x00801414                phy_write
                0x008014b0                dm9000a_reset
                0x00801674                TransmitPacket
                0x00801790                prep_dm9000a
                0x008019ac                dm9000a_init
                0x00801dfc                dm9Ka_isr_wrap
                0x00801e3c                dm9ka_init
                0x00801f34                dm9ka_close
                0x00802044                dm9ka_stats
                0x008020a0                dm9ka_pkt_send
 .text          0x008021bc      0x4a4 obj/default/iniche_init.o
                0x008021bc                SSSInitialTask
                0x00802424                main
                0x00802520                delay
                0x0080256c                toInt
 .text          0x00802660      0x324 obj/default/led.o
                0x00802660                led_bit_toggle
                0x0080272c                LED7SegLightshowTask
                0x008027a0                LEDManagementTask
 .text          0x00802984      0x73c obj/default/network_utilities.o
                0x00802984                get_mac_addr
                0x008029dc                get_ip_addr
                0x00802a48                get_serial_number
                0x00802c24                generate_and_store_mac_addr
                0x00802df0                generate_mac_addr
                0x00802f2c                get_board_mac_addr
 .text          0x008030c0      0x9f8 obj/default/simple_socket_server.o
                0x008030c0                SSSCreateOSDataStructs
                0x00803168                SSSCreateTasks
                0x0080322c                sss_reset_connection
                0x0080329c                sss_send_menu
                0x0080342c                sss_handle_accept
                0x008034ec                sss_exec_command
                0x00803660                sss_handle_receive
                0x0080384c                SSSSimpleSocketServerTask
 .text          0x00803ab8        0x0 obj/default/tse_my_system.o
 .text          0x00803ab8       0xa4 c:/altera/13.0/nios2eds/bin/gnu/h-i686-mingw32/bin/../lib/gcc/nios2-elf/4.1.2\libgcc.a(_fixunsdfsi.o)
                0x00803ab8                __fixunsdfsi
 .text          0x00803b5c      0x504 c:/altera/13.0/nios2eds/bin/gnu/h-i686-mingw32/bin/../lib/gcc/nios2-elf/4.1.2\libgcc.a(_addsub_df.o)
                0x00803f6c                __subdf3
                0x00803fec                __adddf3
 .text          0x00804060      0x3c4 c:/altera/13.0/nios2eds/bin/gnu/h-i686-mingw32/bin/../lib/gcc/nios2-elf/4.1.2\libgcc.a(_mul_df.o)
                0x00804060                __muldf3
 .text          0x00804424       0x88 c:/altera/13.0/nios2eds/bin/gnu/h-i686-mingw32/bin/../lib/gcc/nios2-elf/4.1.2\libgcc.a(_ge_df.o)
                0x00804424                __gedf2
 .text          0x008044ac       0xd8 c:/altera/13.0/nios2eds/bin/gnu/h-i686-mingw32/bin/../lib/gcc/nios2-elf/4.1.2\libgcc.a(_df_to_si.o)
                0x008044ac                __fixdfsi
 .text          0x00804584        0x0 c:/altera/13.0/nios2eds/bin/gnu/h-i686-mingw32/bin/../lib/gcc/nios2-elf/4.1.2\libgcc.a(_thenan_df.o)
 .text          0x00804584      0x194 c:/altera/13.0/nios2eds/bin/gnu/h-i686-mingw32/bin/../lib/gcc/nios2-elf/4.1.2\libgcc.a(_usi_to_df.o)
                0x00804584                __floatunsidf
 .text          0x00804718       0x98 c:/altera/13.0/nios2eds/bin/gnu/h-i686-mingw32/bin/../lib/gcc/nios2-elf/4.1.2\libgcc.a(_muldi3.o)
                0x00804718                __muldi3
 .text          0x008047b0       0x80 c:/altera/13.0/nios2eds/bin/gnu/h-i686-mingw32/bin/../lib/gcc/nios2-elf/4.1.2\libgcc.a(_clzsi2.o)
                0x008047b0                __clzsi2
 .text          0x00804830      0x314 c:/altera/13.0/nios2eds/bin/gnu/h-i686-mingw32/bin/../lib/gcc/nios2-elf/4.1.2\libgcc.a(_pack_df.o)
                0x00804830                __pack_d
 .text          0x00804b44      0x138 c:/altera/13.0/nios2eds/bin/gnu/h-i686-mingw32/bin/../lib/gcc/nios2-elf/4.1.2\libgcc.a(_unpack_df.o)
                0x00804b44                __unpack_d
 .text          0x00804c7c       0xc8 c:/altera/13.0/nios2eds/bin/gnu/h-i686-mingw32/bin/../lib/gcc/nios2-elf/4.1.2\libgcc.a(_fpcmp_parts_df.o)
                0x00804c7c                __fpcmp_parts_d
 .text          0x00804d44        0x0 c:/altera/13.0/nios2eds/bin/gnu/h-i686-mingw32/bin/../lib/gcc/nios2-elf/4.1.2\libgcc.a(_clz.o)
 .text          0x00804d44        0x0 c:/altera/13.0/nios2eds/bin/gnu/h-i686-mingw32/bin/../lib/gcc/nios2-elf/4.1.2/../../../../nios2-elf/lib\libc.a(lib_a-ctype_.o)
 .text          0x00804d44       0x38 c:/altera/13.0/nios2eds/bin/gnu/h-i686-mingw32/bin/../lib/gcc/nios2-elf/4.1.2/../../../../nios2-elf/lib\libc.a(lib_a-exit.o)
                0x00804d44                exit
 .text          0x00804d7c       0x60 c:/altera/13.0/nios2eds/bin/gnu/h-i686-mingw32/bin/../lib/gcc/nios2-elf/4.1.2/../../../../nios2-elf/lib\libc.a(lib_a-fprintf.o)
                0x00804d7c                fprintf
                0x00804da8                _fprintf_r
 .text          0x00804ddc       0xdc c:/altera/13.0/nios2eds/bin/gnu/h-i686-mingw32/bin/../lib/gcc/nios2-elf/4.1.2/../../../../nios2-elf/lib\libc.a(lib_a-fwrite.o)
                0x00804ddc                _fwrite_r
                0x00804e78                fwrite
 .text          0x00804eb8      0x128 c:/altera/13.0/nios2eds/bin/gnu/h-i686-mingw32/bin/../lib/gcc/nios2-elf/4.1.2/../../../../nios2-elf/lib\libc.a(lib_a-getc.o)
                0x00804eb8                getc
                0x00804f50                _getc_r
 .text          0x00804fe0        0x0 c:/altera/13.0/nios2eds/bin/gnu/h-i686-mingw32/bin/../lib/gcc/nios2-elf/4.1.2/../../../../nios2-elf/lib\libc.a(lib_a-impure.o)
 .text          0x00804fe0       0xa0 c:/altera/13.0/nios2eds/bin/gnu/h-i686-mingw32/bin/../lib/gcc/nios2-elf/4.1.2/../../../../nios2-elf/lib\libc.a(lib_a-memcpy.o)
                0x00804fe0                memcpy
 .text          0x00805080       0xe0 c:/altera/13.0/nios2eds/bin/gnu/h-i686-mingw32/bin/../lib/gcc/nios2-elf/4.1.2/../../../../nios2-elf/lib\libc.a(lib_a-memmove.o)
                0x00805080                memmove
 .text          0x00805160       0x98 c:/altera/13.0/nios2eds/bin/gnu/h-i686-mingw32/bin/../lib/gcc/nios2-elf/4.1.2/../../../../nios2-elf/lib\libc.a(lib_a-memset.o)
                0x00805160                memset
 .text          0x008051f8       0x80 c:/altera/13.0/nios2eds/bin/gnu/h-i686-mingw32/bin/../lib/gcc/nios2-elf/4.1.2/../../../../nios2-elf/lib\libc.a(lib_a-perror.o)
                0x008051f8                _perror_r
                0x00805264                perror
 .text          0x00805278       0x78 c:/altera/13.0/nios2eds/bin/gnu/h-i686-mingw32/bin/../lib/gcc/nios2-elf/4.1.2/../../../../nios2-elf/lib\libc.a(lib_a-printf.o)
                0x00805278                printf
                0x008052bc                _printf_r
 .text          0x008052f0      0x1ec c:/altera/13.0/nios2eds/bin/gnu/h-i686-mingw32/bin/../lib/gcc/nios2-elf/4.1.2/../../../../nios2-elf/lib\libc.a(lib_a-putc.o)
                0x008052f0                putc
                0x008053f4                _putc_r
 .text          0x008054dc       0x24 c:/altera/13.0/nios2eds/bin/gnu/h-i686-mingw32/bin/../lib/gcc/nios2-elf/4.1.2/../../../../nios2-elf/lib\libc.a(lib_a-putchar.o)
                0x008054dc                putchar
                0x008054f8                _putchar_r
 .text          0x00805500       0xb4 c:/altera/13.0/nios2eds/bin/gnu/h-i686-mingw32/bin/../lib/gcc/nios2-elf/4.1.2/../../../../nios2-elf/lib\libc.a(lib_a-puts.o)
                0x00805500                _puts_r
                0x008055a0                puts
 .text          0x008055b4       0x60 c:/altera/13.0/nios2eds/bin/gnu/h-i686-mingw32/bin/../lib/gcc/nios2-elf/4.1.2/../../../../nios2-elf/lib\libc.a(lib_a-rget.o)
                0x008055b4                __srget_r
                0x00805600                __srget
 .text          0x00805614       0xe0 c:/altera/13.0/nios2eds/bin/gnu/h-i686-mingw32/bin/../lib/gcc/nios2-elf/4.1.2/../../../../nios2-elf/lib\libc.a(lib_a-strchr.o)
                0x00805614                strchr
 .text          0x008056f4      0x674 c:/altera/13.0/nios2eds/bin/gnu/h-i686-mingw32/bin/../lib/gcc/nios2-elf/4.1.2/../../../../nios2-elf/lib\libc.a(lib_a-strerror.o)
                0x008056f4                strerror
 .text          0x00805d68       0x74 c:/altera/13.0/nios2eds/bin/gnu/h-i686-mingw32/bin/../lib/gcc/nios2-elf/4.1.2/../../../../nios2-elf/lib\libc.a(lib_a-strlen.o)
                0x00805d68                strlen
 .text          0x00805ddc        0x8 c:/altera/13.0/nios2eds/bin/gnu/h-i686-mingw32/bin/../lib/gcc/nios2-elf/4.1.2/../../../../nios2-elf/lib\libc.a(lib_a-u_strerr.o)
                0x00805ddc                _user_strerror
 .text          0x00805de4     0x1f28 c:/altera/13.0/nios2eds/bin/gnu/h-i686-mingw32/bin/../lib/gcc/nios2-elf/4.1.2/../../../../nios2-elf/lib\libc.a(lib_a-vfprintf.o)
                0x00805e3c                ___vfprintf_internal_r
                0x00807ce8                __vfprintf_internal
 .text          0x00807d0c      0x14c c:/altera/13.0/nios2eds/bin/gnu/h-i686-mingw32/bin/../lib/gcc/nios2-elf/4.1.2/../../../../nios2-elf/lib\libc.a(lib_a-wbuf.o)
                0x00807d0c                __swbuf_r
                0x00807e3c                __swbuf
 .text          0x00807e58      0x13c c:/altera/13.0/nios2eds/bin/gnu/h-i686-mingw32/bin/../lib/gcc/nios2-elf/4.1.2/../../../../nios2-elf/lib\libc.a(lib_a-wsetup.o)
                0x00807e58                __swsetup_r
 .text          0x00807f94      0x1b4 c:/altera/13.0/nios2eds/bin/gnu/h-i686-mingw32/bin/../lib/gcc/nios2-elf/4.1.2/../../../../nios2-elf/lib\libc.a(lib_a-__call_atexit.o)
                0x00807f98                __call_exitprocs
 .text          0x00808148     0x17cc c:/altera/13.0/nios2eds/bin/gnu/h-i686-mingw32/bin/../lib/gcc/nios2-elf/4.1.2/../../../../nios2-elf/lib\libc.a(lib_a-dtoa.o)
                0x00808360                _dtoa_r
 .text          0x00809914      0x230 c:/altera/13.0/nios2eds/bin/gnu/h-i686-mingw32/bin/../lib/gcc/nios2-elf/4.1.2/../../../../nios2-elf/lib\libc.a(lib_a-fflush.o)
                0x00809914                _fflush_r
                0x00809b10                fflush
 .text          0x00809b44      0x2c0 c:/altera/13.0/nios2eds/bin/gnu/h-i686-mingw32/bin/../lib/gcc/nios2-elf/4.1.2/../../../../nios2-elf/lib\libc.a(lib_a-findfp.o)
                0x00809b9c                __sfp_lock_acquire
                0x00809ba0                __sfp_lock_release
                0x00809ba4                __sinit_lock_acquire
                0x00809ba8                __sinit_lock_release
                0x00809bac                __sinit
                0x00809c60                __fp_unlock_all
                0x00809c78                __fp_lock_all
                0x00809c90                _cleanup_r
                0x00809c9c                _cleanup
                0x00809cac                __sfmoreglue
                0x00809d14                __sfp
 .text          0x00809e04       0xbc c:/altera/13.0/nios2eds/bin/gnu/h-i686-mingw32/bin/../lib/gcc/nios2-elf/4.1.2/../../../../nios2-elf/lib\libc.a(lib_a-fputc.o)
                0x00809e04                fputc
                0x00809e68                _fputc_r
 .text          0x00809ec0       0x90 c:/altera/13.0/nios2eds/bin/gnu/h-i686-mingw32/bin/../lib/gcc/nios2-elf/4.1.2/../../../../nios2-elf/lib\libc.a(lib_a-fputs.o)
                0x00809ec0                _fputs_r
                0x00809f34                fputs
 .text          0x00809f50      0x440 c:/altera/13.0/nios2eds/bin/gnu/h-i686-mingw32/bin/../lib/gcc/nios2-elf/4.1.2/../../../../nios2-elf/lib\libc.a(lib_a-freer.o)
                0x00809f50                _malloc_trim_r
                0x0080a07c                _free_r
 .text          0x0080a390      0x49c c:/altera/13.0/nios2eds/bin/gnu/h-i686-mingw32/bin/../lib/gcc/nios2-elf/4.1.2/../../../../nios2-elf/lib\libc.a(lib_a-fvwrite.o)
                0x0080a390                __sfvwrite_r
 .text          0x0080a82c      0x180 c:/altera/13.0/nios2eds/bin/gnu/h-i686-mingw32/bin/../lib/gcc/nios2-elf/4.1.2/../../../../nios2-elf/lib\libc.a(lib_a-fwalk.o)
                0x0080a82c                _fwalk_reent
                0x0080a8f4                _fwalk
 .text          0x0080a9ac       0xc4 c:/altera/13.0/nios2eds/bin/gnu/h-i686-mingw32/bin/../lib/gcc/nios2-elf/4.1.2/../../../../nios2-elf/lib\libc.a(lib_a-locale.o)
                0x0080a9ac                __locale_charset
                0x0080a9b4                _localeconv_r
                0x0080a9c0                localeconv
                0x0080a9d0                _setlocale_r
                0x0080aa54                setlocale
 .text          0x0080aa70      0x194 c:/altera/13.0/nios2eds/bin/gnu/h-i686-mingw32/bin/../lib/gcc/nios2-elf/4.1.2/../../../../nios2-elf/lib\libc.a(lib_a-makebuf.o)
                0x0080aa70                __smakebuf_r
 .text          0x0080ac04      0x740 c:/altera/13.0/nios2eds/bin/gnu/h-i686-mingw32/bin/../lib/gcc/nios2-elf/4.1.2/../../../../nios2-elf/lib\libc.a(lib_a-mallocr.o)
                0x0080ac04                _malloc_r
 .text          0x0080b344       0xe4 c:/altera/13.0/nios2eds/bin/gnu/h-i686-mingw32/bin/../lib/gcc/nios2-elf/4.1.2/../../../../nios2-elf/lib\libc.a(lib_a-memchr.o)
                0x0080b344                memchr
 .text          0x0080b428      0xff4 c:/altera/13.0/nios2eds/bin/gnu/h-i686-mingw32/bin/../lib/gcc/nios2-elf/4.1.2/../../../../nios2-elf/lib\libc.a(lib_a-mprec.o)
                0x0080b428                _Bfree
                0x0080b450                __hi0bits
                0x0080b4c0                __lo0bits
                0x0080b584                __mcmp
                0x0080b5e4                __ulp
                0x0080b664                __b2d
                0x0080b784                __ratio
                0x0080b834                _mprec_log10
                0x0080b8c8                __copybits
                0x0080b920                __any_on
                0x0080b9a8                _Balloc
                0x0080ba64                __d2b
                0x0080bbe0                __mdiff
                0x0080bd6c                __lshift
                0x0080beb8                __multiply
                0x0080c0a0                __i2b
                0x0080c0dc                __multadd
                0x0080c1dc                __pow5mult
                0x0080c2fc                __s2b
 .text          0x0080c41c      0x5f4 c:/altera/13.0/nios2eds/bin/gnu/h-i686-mingw32/bin/../lib/gcc/nios2-elf/4.1.2/../../../../nios2-elf/lib\libc.a(lib_a-reallocr.o)
                0x0080c41c                _realloc_r
 .text          0x0080ca10      0x1e0 c:/altera/13.0/nios2eds/bin/gnu/h-i686-mingw32/bin/../lib/gcc/nios2-elf/4.1.2/../../../../nios2-elf/lib\libc.a(lib_a-refill.o)
                0x0080ca10                __srefill_r
 .text          0x0080cbf0       0x40 c:/altera/13.0/nios2eds/bin/gnu/h-i686-mingw32/bin/../lib/gcc/nios2-elf/4.1.2/../../../../nios2-elf/lib\libc.a(lib_a-s_isinfd.o)
                0x0080cbf0                __isinfd
 .text          0x0080cc30       0x30 c:/altera/13.0/nios2eds/bin/gnu/h-i686-mingw32/bin/../lib/gcc/nios2-elf/4.1.2/../../../../nios2-elf/lib\libc.a(lib_a-s_isnand.o)
                0x0080cc30                __isnand
 .text          0x0080cc60       0x70 c:/altera/13.0/nios2eds/bin/gnu/h-i686-mingw32/bin/../lib/gcc/nios2-elf/4.1.2/../../../../nios2-elf/lib\libc.a(lib_a-sbrkr.o)
                0x0080cc60                _sbrk_r
 .text          0x0080ccd0      0x14c c:/altera/13.0/nios2eds/bin/gnu/h-i686-mingw32/bin/../lib/gcc/nios2-elf/4.1.2/../../../../nios2-elf/lib\libc.a(lib_a-stdio.o)
                0x0080ccd0                __sclose
                0x0080ccd8                __sseek
                0x0080cd40                __swrite
                0x0080cdbc                __sread
 .text          0x0080ce1c       0xbc c:/altera/13.0/nios2eds/bin/gnu/h-i686-mingw32/bin/../lib/gcc/nios2-elf/4.1.2/../../../../nios2-elf/lib\libc.a(lib_a-strcmp.o)
                0x0080ce1c                strcmp
 .text          0x0080ced8       0x78 c:/altera/13.0/nios2eds/bin/gnu/h-i686-mingw32/bin/../lib/gcc/nios2-elf/4.1.2/../../../../nios2-elf/lib\libc.a(lib_a-writer.o)
                0x0080ced8                _write_r
 .text          0x0080cf50       0xb4 c:/altera/13.0/nios2eds/bin/gnu/h-i686-mingw32/bin/../lib/gcc/nios2-elf/4.1.2/../../../../nios2-elf/lib\libc.a(lib_a-callocr.o)
                0x0080cf50                _calloc_r
 .text          0x0080d004       0x70 c:/altera/13.0/nios2eds/bin/gnu/h-i686-mingw32/bin/../lib/gcc/nios2-elf/4.1.2/../../../../nios2-elf/lib\libc.a(lib_a-closer.o)
                0x0080d004                _close_r
 .text          0x0080d074      0x124 c:/altera/13.0/nios2eds/bin/gnu/h-i686-mingw32/bin/../lib/gcc/nios2-elf/4.1.2/../../../../nios2-elf/lib\libc.a(lib_a-fclose.o)
                0x0080d074                _fclose_r
                0x0080d184                fclose
 .text          0x0080d198       0x74 c:/altera/13.0/nios2eds/bin/gnu/h-i686-mingw32/bin/../lib/gcc/nios2-elf/4.1.2/../../../../nios2-elf/lib\libc.a(lib_a-fstatr.o)
                0x0080d198                _fstat_r
 .text          0x0080d20c        0x0 c:/altera/13.0/nios2eds/bin/gnu/h-i686-mingw32/bin/../lib/gcc/nios2-elf/4.1.2/../../../../nios2-elf/lib\libc.a(lib_a-int_errno.o)
 .text          0x0080d20c       0x70 c:/altera/13.0/nios2eds/bin/gnu/h-i686-mingw32/bin/../lib/gcc/nios2-elf/4.1.2/../../../../nios2-elf/lib\libc.a(lib_a-isattyr.o)
                0x0080d20c                _isatty_r
 .text          0x0080d27c       0x78 c:/altera/13.0/nios2eds/bin/gnu/h-i686-mingw32/bin/../lib/gcc/nios2-elf/4.1.2/../../../../nios2-elf/lib\libc.a(lib_a-lseekr.o)
                0x0080d27c                _lseek_r
 .text          0x0080d2f4       0x78 c:/altera/13.0/nios2eds/bin/gnu/h-i686-mingw32/bin/../lib/gcc/nios2-elf/4.1.2/../../../../nios2-elf/lib\libc.a(lib_a-readr.o)
                0x0080d2f4                _read_r
 .text          0x0080d36c      0x5dc c:/altera/13.0/nios2eds/bin/gnu/h-i686-mingw32/bin/../lib/gcc/nios2-elf/4.1.2\libgcc.a(_udivdi3.o)
                0x0080d36c                __udivdi3
 .text          0x0080d948      0x5b0 c:/altera/13.0/nios2eds/bin/gnu/h-i686-mingw32/bin/../lib/gcc/nios2-elf/4.1.2\libgcc.a(_umoddi3.o)
                0x0080d948                __umoddi3
 .text          0x0080def8      0x258 c:/altera/13.0/nios2eds/bin/gnu/h-i686-mingw32/bin/../lib/gcc/nios2-elf/4.1.2\libgcc.a(_div_df.o)
                0x0080def8                __divdf3
 .text          0x0080e150       0x88 c:/altera/13.0/nios2eds/bin/gnu/h-i686-mingw32/bin/../lib/gcc/nios2-elf/4.1.2\libgcc.a(_eq_df.o)
                0x0080e150                __eqdf2
 .text          0x0080e1d8       0x88 c:/altera/13.0/nios2eds/bin/gnu/h-i686-mingw32/bin/../lib/gcc/nios2-elf/4.1.2\libgcc.a(_ne_df.o)
                0x0080e1d8                __nedf2
 .text          0x0080e260       0x88 c:/altera/13.0/nios2eds/bin/gnu/h-i686-mingw32/bin/../lib/gcc/nios2-elf/4.1.2\libgcc.a(_gt_df.o)
                0x0080e260                __gtdf2
 .text          0x0080e2e8       0x88 c:/altera/13.0/nios2eds/bin/gnu/h-i686-mingw32/bin/../lib/gcc/nios2-elf/4.1.2\libgcc.a(_lt_df.o)
                0x0080e2e8                __ltdf2
 .text          0x0080e370       0xf8 c:/altera/13.0/nios2eds/bin/gnu/h-i686-mingw32/bin/../lib/gcc/nios2-elf/4.1.2\libgcc.a(_si_to_df.o)
                0x0080e370                __floatsidf
 .text          0x0080e468      0x14c c:/altera/13.0/nios2eds/bin/gnu/h-i686-mingw32/bin/../lib/gcc/nios2-elf/4.1.2\libgcc.a(lib2-divmod.o)
                0x0080e4e4                __divsi3
                0x0080e544                __modsi3
                0x0080e5a4                __udivsi3
                0x0080e5ac                __umodsi3
 .text          0x0080e5b4       0x6c ../server_bsp/\libucosii_bsp.a(alt_exit.o)
                0x0080e5f4                _exit
 .text          0x0080e620       0xd0 ../server_bsp/\libucosii_bsp.a(alt_flash_dev.o)
                0x0080e620                alt_flash_open_dev
                0x0080e69c                alt_flash_close_dev
 .text          0x0080e6f0      0x134 ../server_bsp/\libucosii_bsp.a(alt_fstat.o)
                0x0080e6f0                fstat
 .text          0x0080e824      0x1c0 ../server_bsp/\libucosii_bsp.a(alt_irq_register.o)
                0x0080e824                alt_irq_register
 .text          0x0080e9e4        0x0 ../server_bsp/\libucosii_bsp.a(alt_irq_vars.o)
 .text          0x0080e9e4      0x120 ../server_bsp/\libucosii_bsp.a(alt_isatty.o)
                0x0080e9e4                isatty
 .text          0x0080eb04      0x150 ../server_bsp/\libucosii_bsp.a(alt_lseek.o)
                0x0080eb04                lseek
 .text          0x0080ec54       0xc8 ../server_bsp/\libucosii_bsp.a(alt_main.o)
                0x0080ec54                alt_main
 .text          0x0080ed1c       0xbc ../server_bsp/\libucosii_bsp.a(alt_sbrk.o)
                0x0080ed1c                sbrk
 .text          0x0080edd8      0x118 ../server_bsp/\libucosii_bsp.a(alt_usleep.o)
                0x0080edd8                usleep
 .text          0x0080eef0      0x108 ../server_bsp/\libucosii_bsp.a(alt_env_lock.o)
                0x0080eef0                __env_lock
                0x0080ef9c                __env_unlock
 .text          0x0080eff8      0x1d8 ../server_bsp/\libucosii_bsp.a(alt_malloc_lock.o)
                0x0080eff8                __malloc_lock
                0x0080f100                __malloc_unlock
 .text          0x0080f1d0     0x2128 ../server_bsp/\libucosii_bsp.a(os_core.o)
                0x0080f1d0                OSEventNameGet
                0x0080f300                OSEventNameSet
                0x0080f444                OSEventPendMulti
                0x0080faf8                OSInit
                0x0080fb4c                OSIntEnter
                0x0080fbc8                OSIntExit
                0x0080fcc8                OSSchedLock
                0x0080fd54                OSSchedUnlock
                0x0080fe38                OSStart
                0x0080fea8                OSStatInit
                0x0080ff54                OSTimeTick
                0x00810194                OSVersion
                0x008101b4                OS_Dummy
                0x008101d0                OS_EventTaskRdy
                0x00810364                OS_EventTaskWait
                0x00810474                OS_EventTaskWaitMulti
                0x008105c8                OS_EventTaskRemove
                0x00810680                OS_EventTaskRemoveMulti
                0x00810784                OS_EventWaitListInit
                0x00810b50                OS_MemClr
                0x00810ba4                OS_MemCopy
                0x00810c10                OS_Sched
                0x00810d54                OS_StrCopy
                0x00810dd4                OS_StrLen
                0x00810e2c                OS_TaskIdle
                0x00810e88                OS_TaskStat
                0x00810f50                OS_TaskStatStkChk
                0x00811018                OS_TCBInit
 .text          0x008112f8      0x18c ../server_bsp/\libucosii_bsp.a(os_dbg.o)
                0x008112f8                OSDebugInit
 .text          0x00811484     0x193c ../server_bsp/\libucosii_bsp.a(os_flag.o)
                0x00811484                OSFlagAccept
                0x008117b8                OSFlagCreate
                0x008118f4                OSFlagDel
                0x00811b9c                OSFlagNameGet
                0x00811ce0                OSFlagNameSet
                0x00811e34                OSFlagPend
                0x00812478                OSFlagPendGetFlagsRdy
                0x008124e0                OSFlagPost
                0x00812888                OSFlagQuery
                0x00812b20                OS_FlagInit
                0x00812d14                OS_FlagUnlink
 .text          0x00812dc0      0x808 ../server_bsp/\libucosii_bsp.a(os_mem.o)
                0x00812dc0                OSMemCreate
                0x00812fdc                OSMemGet
                0x008130e0                OSMemNameGet
                0x008131ec                OSMemNameSet
                0x0081330c                OSMemPut
                0x008133fc                OSMemQuery
                0x008134f8                OS_MemInit
 .text          0x008135c8     0x1334 ../server_bsp/\libucosii_bsp.a(os_q.o)
                0x008135c8                OSQAccept
                0x0081371c                OSQCreate
                0x00813930                OSQDel
                0x00813c30                OSQFlush
                0x00813cf8                OSQPend
                0x00814018                OSQPendAbort
                0x00814194                OSQPost
                0x00814314                OSQPostFront
                0x0081449c                OSQPostOpt
                0x008146d0                OSQQuery
                0x00814850                OS_QInit
 .text          0x008148fc      0xbc8 ../server_bsp/\libucosii_bsp.a(os_sem.o)
                0x008148fc                OSSemAccept
                0x008149bc                OSSemCreate
                0x00814ad0                OSSemDel
                0x00814d70                OSSemPend
                0x00814fec                OSSemPendAbort
                0x00815168                OSSemPost
                0x00815290                OSSemQuery
                0x008153c0                OSSemSet
 .text          0x008154c4     0x1a40 ../server_bsp/\libucosii_bsp.a(os_task.o)
                0x008154c4                OSTaskChangePrio
                0x00815a38                OSTaskCreate
                0x00815c0c                OSTaskCreateExt
                0x00815e0c                OSTaskDel
                0x00816218                OSTaskDelReq
                0x00816388                OSTaskNameGet
                0x00816540                OSTaskNameSet
                0x00816704                OSTaskResume
                0x0081691c                OSTaskStkChk
                0x00816b18                OSTaskSuspend
                0x00816d44                OSTaskQuery
                0x00816e88                OS_TaskStkClr
 .text          0x00816f04      0x670 ../server_bsp/\libucosii_bsp.a(os_time.o)
                0x00816f04                OSTimeDly
                0x00817050                OSTimeDlyHMSM
                0x0081729c                OSTimeDlyResume
                0x008174ac                OSTimeGet
                0x00817510                OSTimeSet
 .text          0x00817574      0x118 ../server_bsp/\libucosii_bsp.a(alt_sys_init.o)
                0x00817574                alt_irq_init
                0x008175a8                alt_sys_init
 .text          0x0081768c      0x8c8 ../server_bsp/\libucosii_bsp.a(altera_avalon_cfi_flash.o)
                0x0081768c                alt_flash_cfi_init
                0x00817760                alt_flash_cfi_write
                0x00817a20                alt_flash_cfi_get_info
                0x00817ab0                alt_flash_cfi_read
                0x00817b18                alt_write_value_to_flash
                0x00817c7c                alt_flash_program_block
 .text          0x00817f54     0x14a8 ../server_bsp/\libucosii_bsp.a(altera_avalon_cfi_flash_table.o)
                0x00817f54                alt_read_query_entry_8bit
                0x00817f94                alt_read_query_entry_16bit
                0x00817fd8                alt_read_query_entry_32bit
                0x00818020                alt_write_flash_command_8bit_device_8bit_mode
                0x0081805c                alt_write_flash_command_16bit_device_8bit_mode
                0x008180d8                alt_write_flash_command_32bit_device_8bit_mode
                0x00818120                alt_write_flash_command_16bit_device_16bit_mode
                0x00818164                alt_write_flash_command_32bit_device_16bit_mode
                0x008181ac                alt_write_flash_command_32bit_device_32bit_mode
                0x008181f4                alt_write_native_8bit
                0x00818228                alt_write_native_16bit
                0x0081825c                alt_write_native_32bit
                0x0081828c                alt_set_flash_width_func
                0x0081846c                alt_set_flash_algorithm_func
                0x00818594                alt_read_cfi_table
                0x00818b74                alt_read_cfi_width
                0x00819320                alt_check_primary_table
 .text          0x008193fc      0x9e4 ../server_bsp/\libucosii_bsp.a(altera_avalon_epcs_flash_controller.o)
                0x008193fc                alt_epcs_flash_init
                0x00819818                alt_epcs_flash_write
                0x00819a98                alt_epcs_flash_get_info
                0x00819b28                alt_epcs_flash_erase_block
                0x00819c2c                alt_epcs_flash_write_block
                0x00819d48                alt_epcs_flash_read
 .text          0x00819de0      0x148 ../server_bsp/\libucosii_bsp.a(altera_avalon_jtag_uart_fd.o)
                0x00819de0                altera_avalon_jtag_uart_read_fd
                0x00819e38                altera_avalon_jtag_uart_write_fd
                0x00819e90                altera_avalon_jtag_uart_close_fd
                0x00819ed8                altera_avalon_jtag_uart_ioctl_fd
 .text          0x00819f28      0x584 ../server_bsp/\libucosii_bsp.a(altera_avalon_jtag_uart_init.o)
                0x00819f28                altera_avalon_jtag_uart_init
                0x0081a438                altera_avalon_jtag_uart_close
 .text          0x0081a4ac       0xf4 ../server_bsp/\libucosii_bsp.a(altera_avalon_jtag_uart_ioctl.o)
                0x0081a4ac                altera_avalon_jtag_uart_ioctl
 .text          0x0081a5a0      0x2c0 ../server_bsp/\libucosii_bsp.a(altera_avalon_jtag_uart_read.o)
                0x0081a5a0                altera_avalon_jtag_uart_read
 .text          0x0081a860      0x2dc ../server_bsp/\libucosii_bsp.a(altera_avalon_jtag_uart_write.o)
                0x0081a860                altera_avalon_jtag_uart_write
 .text          0x0081ab3c      0xf3c ../server_bsp/\libucosii_bsp.a(altera_avalon_lcd_16207.o)
                0x0081b310                altera_avalon_lcd_16207_write
                0x0081b914                altera_avalon_lcd_16207_init
 .text          0x0081ba78       0x58 ../server_bsp/\libucosii_bsp.a(altera_avalon_lcd_16207_fd.o)
                0x0081ba78                altera_avalon_lcd_16207_write_fd
 .text          0x0081bad0      0x100 ../server_bsp/\libucosii_bsp.a(altera_avalon_timer_sc.o)
                0x0081bb40                alt_avalon_timer_sc_init
 .text          0x0081bbd0       0xf8 ../server_bsp/\libucosii_bsp.a(altera_avalon_uart_fd.o)
                0x0081bbd0                altera_avalon_uart_read_fd
                0x0081bc28                altera_avalon_uart_write_fd
                0x0081bc80                altera_avalon_uart_close_fd
 .text          0x0081bcc8      0x57c ../server_bsp/\libucosii_bsp.a(altera_avalon_uart_init.o)
                0x0081bcc8                altera_avalon_uart_init
                0x0081c1e4                altera_avalon_uart_close
 .text          0x0081c244      0x310 ../server_bsp/\libucosii_bsp.a(altera_avalon_uart_read.o)
                0x0081c244                altera_avalon_uart_read
 .text          0x0081c554      0x2a8 ../server_bsp/\libucosii_bsp.a(altera_avalon_uart_write.o)
                0x0081c554                altera_avalon_uart_write
 .text          0x0081c7fc      0x6d4 ../server_bsp/\libucosii_bsp.a(epcs_commands.o)
                0x0081c7fc                epcs_read_status_register
                0x0081c85c                epcs_sector_erase
                0x0081c9c4                epcs_read_buffer
                0x0081cb10                epcs_write_enable
                0x0081cb60                epcs_write_status_register
                0x0081cbc4                epcs_write_buffer
                0x0081cd34                epcs_read_electronic_signature
                0x0081cda0                epcs_read_device_id
                0x0081ce20                epcs_enter_4_bytes_mode
                0x0081ce78                epcs_exit_4_bytes_mode
 .text          0x0081ced0       0x54 ../server_bsp/\libucosii_bsp.a(alt_iniche_close.o)
                0x0081ced0                close
 .text          0x0081cf24      0x144 ../server_bsp/\libucosii_bsp.a(alt_iniche_dev.o)
                0x0081cf24                iniche_devices_init
 .text          0x0081d068       0x78 ../server_bsp/\libucosii_bsp.a(alt_iniche_read.o)
                0x0081d068                read
 .text          0x0081d0e0       0x70 ../server_bsp/\libucosii_bsp.a(alt_iniche_write.o)
                0x0081d0e0                write
 .text          0x0081d150      0xedc ../server_bsp/\libucosii_bsp.a(ipnet.o)
                0x0081d150                Netinit
                0x0081d79c                fixup_subnet_mask
                0x0081d8fc                netclose
                0x0081d9e4                pktdemux
                0x0081ddb8                c_older
                0x0081de88                ip2mac
 .text          0x0081e02c      0x4b0 ../server_bsp/\libucosii_bsp.a(ipstart.o)
                0x0081e02c                ip_startup
                0x0081e310                exit_hook
                0x0081e37c                ip_exit
                0x0081e44c                if_netnumber
 .text          0x0081e4dc     0x10e8 ../server_bsp/\libucosii_bsp.a(igmp_cmn.o)
                0x0081e4dc                igmp_init
                0x0081e5cc                igmp_input
                0x0081e6c4                igmp_fasttimo
                0x0081e8f8                igmp_send
                0x0081eba0                igmp_joingroup
                0x0081ee0c                igmp_leavegroup
                0x0081ee88                igmp_validate
                0x0081f1e4                igmp_print_stats
 .text          0x0081f5c4      0xbc8 ../server_bsp/\libucosii_bsp.a(bsdsock.o)
                0x0081f5c4                bsd_accept
                0x0081f6fc                bsd_getpeername
                0x0081f828                bsd_getsockname
                0x0081f954                bsd_i_sockoptlen
                0x0081fb0c                bsd_getsockopt
                0x0081fc2c                bsd_ioctl
                0x0081fd30                bsd_inet_ntoa
                0x0081fd60                bsd_recvfrom
                0x0081fec0                bsd_select
                0x008200a0                bsd_setsockopt
 .text          0x0082018c      0x118 ../server_bsp/\libucosii_bsp.a(cksum.o)
                0x0082018c                ccksum
                0x0082023c                cksum
 .text          0x008202a4      0xa9c ../server_bsp/\libucosii_bsp.a(in_utils.o)
                0x008202a4                do_trap
                0x008202d0                nextarg
                0x0082034c                hexdump
                0x00820494                print_ipad
                0x00820508                print_uptime
                0x00820634                panic
                0x00820678                print_eth
                0x008207dc                uslash
                0x0082085c                ns_printf
                0x008209e0                std_out
                0x00820a24                con_page
                0x00820b14                parse_args
 .text          0x00820d40      0x1c8 ../server_bsp/\libucosii_bsp.a(netmain.o)
                0x00820d40                netmain
                0x00820e34                tk_netmain
                0x00820ebc                tk_nettick
 .text          0x00820f08      0x810 ../server_bsp/\libucosii_bsp.a(parseip.o)
                0x00820f08                parse_ipad
                0x00821224                inet_addr
                0x0082128c                hextoa
                0x008212fc                inet_pton
                0x008213a8                inet_ntop
                0x00821434                print46_addr
                0x00821494                inet46_addr
                0x00821558                inet_setport
                0x008215cc                convert_ip
 .text          0x00821718      0x5e8 ../server_bsp/\libucosii_bsp.a(tk_crnos.o)
                0x00821718                TK_OSTimeDly
                0x00821744                TK_OSTaskResume
                0x008217b4                tcp_sleep
                0x00821954                tcp_wakeup
                0x00821a58                TK_OSTaskQuery
                0x00821acc                tk_yield
                0x00821af8                tk_stats
 .text          0x00821d00     0x3294 ../server_bsp/\libucosii_bsp.a(dhcpclnt.o)
                0x00821d00                dhc_get_srv_ipaddr
                0x00821d90                dhc_init
                0x00821e4c                dhc_set_callback
                0x00821e90                dhc_upcall
                0x008226c0                dhc_buildheader
                0x008228dc                dhc_discover
                0x00822df4                dhc_rx_offer
                0x00822ef8                dhc_request
                0x00823a34                dhc_setip
                0x00823cb4                dhc_resetip
                0x00823d98                dhc_decline
                0x00823f7c                dhc_extract_opts
                0x00824238                dhc_second
                0x00824b28                dhc_halt
                0x00824bb0                dhc_reclaim
                0x00824d80                dhc_state_init
                0x00824de0                dhc_alldone
                0x00824e70                dhc_ifacedone
                0x00824ee4                dhc_set_state
 .text          0x00824f94       0xcc ../server_bsp/\libucosii_bsp.a(dhcputil.o)
                0x00824f94                find_opt
 .text          0x00825060      0x79c ../server_bsp/\libucosii_bsp.a(pktalloc.o)
                0x00825060                pk_init
                0x008252f0                pk_alloc
                0x008253cc                pk_validate
                0x00825684                pk_free
                0x00825730                pk_get_max_intrsafe_buf_len
                0x00825750                dump_buf_estats
 .text          0x008257fc      0x288 ../server_bsp/\libucosii_bsp.a(q.o)
                0x008257fc                getq
                0x008258c4                putq
                0x00825974                qdel
 .text          0x00825a84      0x31c ../server_bsp/\libucosii_bsp.a(udp_open.o)
                0x00825a84                udp_open
                0x00825cbc                udp_close
 .text          0x00825da0      0x194 ../server_bsp/\libucosii_bsp.a(asm_cksum.o)
                0x00825da0                asm_cksum
 .text          0x00825f34      0x2e4 ../server_bsp/\libucosii_bsp.a(brdutils.o)
                0x00825f34                dtrap
                0x00825f64                kbhit
                0x00826010                getch
                0x00826070                clock_init
                0x008260ac                clock_c
                0x008260c8                cticks_hook
                0x00826178                irq_Mask
                0x008261d4                irq_Unmask
 .text          0x00826218      0x488 ../server_bsp/\libucosii_bsp.a(osportco.o)
                0x00826218                LOCK_NET_RESOURCE
                0x008262d8                UNLOCK_NET_RESOURCE
                0x00826360                TK_NEWTASK
                0x00826574                wait_app_sem
                0x00826628                post_app_sem
 .text          0x008266a0      0x568 ../server_bsp/\libucosii_bsp.a(targnios.o)
                0x008266a0                alt_iniche_init
                0x008268bc                pre_task_setup
                0x00826930                post_task_setup
                0x00826950                prep_armintcp
                0x00826988                calloc2
                0x008269bc                npalloc
                0x00826ab0                npfree
                0x00826b68                ncpalloc
                0x00826bbc                ncpfree
 .text          0x00826c08     0x19b8 ../server_bsp/\libucosii_bsp.a(nptcp.o)
                0x00826c08                pffindtype
                0x00826ca8                pffindproto
                0x00826d78                m_getnbuf
                0x00826f20                m_free
                0x00827054                m_freem
                0x00827098                m_copy
                0x008273bc                m_adj
                0x0082758c                mbuf_len
                0x008275e4                dtom
                0x0082768c                remque
                0x008276fc                insque
                0x00827778                nptcp_init
                0x0082789c                tcp_rcv
                0x00827a88                ip_output
                0x00828080                in_broadcast
                0x008280c0                np_stripoptions
                0x008281a8                so_icmpdu
                0x00828500                tcp_tick
 .text          0x008285c0      0xa2c ../server_bsp/\libucosii_bsp.a(rawsock.o)
                0x008285c0                rawip_lookup
                0x00828630                rawip_soinput
                0x00828804                rawip_usrreq
 .text          0x00828fec     0x17fc ../server_bsp/\libucosii_bsp.a(sockcall.o)
                0x00828fec                DOMAIN_CHECK
                0x00829038                t_socket
                0x008290c8                t_bind
                0x00829244                t_listen
                0x00829328                t_accept
                0x008295c0                t_connect
                0x00829868                t_getpeername
                0x008298ac                t_getsockname
                0x00829aec                t_setsockopt
                0x00829cc8                t_getsockopt
                0x00829e6c                t_recv
                0x00829f5c                t_recvfrom
                0x0082a0ac                t_sendto
                0x0082a2d8                t_send
                0x0082a500                t_shutdown
                0x0082a5e4                t_socketclose
                0x0082a74c                t_errno
 .text          0x0082a7e8     0x23ec ../server_bsp/\libucosii_bsp.a(socket.o)
                0x0082a7e8                socreate
                0x0082a9b4                sobind
                0x0082aa10                solisten
                0x0082ab00                sofree
                0x0082ac30                soclose
                0x0082af9c                soabort
                0x0082afec                soaccept
                0x0082b088                soconnect
                0x0082b15c                sodisconnect
                0x0082b1fc                sosend
                0x0082b804                soreceive
                0x0082bfe8                soshutdown
                0x0082c090                sorflush
                0x0082c190                sosetopt
                0x0082c650                sogetopt
                0x0082cb90                sohasoutofband
 .text          0x0082cbd4     0x12f8 ../server_bsp/\libucosii_bsp.a(socket2.o)
                0x0082cbd4                soisconnecting
                0x0082cc40                soisconnected
                0x0082cd3c                soisdisconnecting
                0x0082cdc8                soisdisconnected
                0x0082ce84                sonewconn
                0x0082d0a0                soqinsque
                0x0082d14c                soqremque
                0x0082d26c                socantsendmore
                0x0082d2bc                socantrcvmore
                0x0082d30c                sbselqueue
                0x0082d344                sbwait
                0x0082d3ac                sbwakeup
                0x0082d448                soreserve
                0x0082d4c8                sbreserve
                0x0082d528                sbrelease
                0x0082d570                sbappend
                0x0082d618                sbappendrecord
                0x0082d6f8                sbappendaddr
                0x0082d8e0                sbcompress
                0x0082dac8                sbflush
                0x0082db58                sbdrop
                0x0082dd28                sbdropend
                0x0082de38                sbdroprecord
 .text          0x0082decc      0x914 ../server_bsp/\libucosii_bsp.a(soselect.o)
                0x0082decc                t_select
                0x0082e0ec                sock_selscan
                0x0082e244                sock_select
                0x0082e458                in_pcbnotify
                0x0082e524                tcp_notify
                0x0082e58c                ifd_clr
                0x0082e67c                ifd_set
                0x0082e6f0                ifd_isset
                0x0082e770                ifd_get
 .text          0x0082e7e0     0x3020 ../server_bsp/\libucosii_bsp.a(tcp_in.o)
                0x0082e7e0                tcp_reass
                0x0082ebe8                tcp_input
                0x0083113c                tcp_dooptions
                0x008312cc                tcp_pulloutofband
                0x008313f8                tcp_xmit_timer
                0x0083169c                ip4_tcpmss
                0x008316e4                tcp_mss
 .text          0x00831800     0x1360 ../server_bsp/\libucosii_bsp.a(tcp_out.o)
                0x00831800                tcp_output
                0x0083297c                tcp_setpersist
 .text          0x00832b60      0x9e8 ../server_bsp/\libucosii_bsp.a(tcp_subr.o)
                0x00832b60                tcp_init
                0x00832bb8                tcp_template
                0x00832cd0                tcp_respond
                0x00833158                tcp_newtcpcb
                0x00833270                tcp_drop
                0x0083331c                tcp_close
                0x00833404                tcp_quench
                0x00833450                tcp_putseq
                0x008334d0                tcp_getseq
 .text          0x00833548      0x798 ../server_bsp/\libucosii_bsp.a(tcp_timr.o)
                0x00833548                tcp_slowtimo
                0x008337e8                tcp_canceltimers
                0x00833844                tcp_timers
 .text          0x00833ce0      0x9ec ../server_bsp/\libucosii_bsp.a(tcp_usr.o)
                0x00833ce0                tcp_usrreq
                0x008343e4                tcp_attach
                0x00834518                tcp_disconnect
                0x008345ec                tcp_usrclosed
 .text          0x008346cc       0x4c ../server_bsp/\libucosii_bsp.a(tcpport.o)
                0x008346cc                tcpinit
 .text          0x00834718      0xd20 ../server_bsp/\libucosii_bsp.a(udpsock.o)
                0x00834718                udp_lookup
                0x00834788                udp_soinput
                0x00834940                udp_usrreq
                0x00834bc4                udp4_sockbind
                0x00834f00                udp4_socksend
                0x008352dc                udp4_sockaddr
 .text          0x00835438      0x154 ../server_bsp/\libucosii_bsp.a(alt_alarm_start.o)
                0x00835438                alt_alarm_start
 .text          0x0083558c      0x14c ../server_bsp/\libucosii_bsp.a(alt_busy_sleep.o)
                0x0083558c                alt_busy_sleep
 .text          0x008356d8      0x15c ../server_bsp/\libucosii_bsp.a(alt_close.o)
                0x008356d8                alt_close
 .text          0x00835834       0x78 ../server_bsp/\libucosii_bsp.a(alt_dcache_flush.o)
                0x00835834                alt_dcache_flush
 .text          0x008358ac       0x2c ../server_bsp/\libucosii_bsp.a(alt_dev.o)
 .text          0x008358d8      0x114 ../server_bsp/\libucosii_bsp.a(alt_dev_llist_insert.o)
                0x008358d8                alt_dev_llist_insert
 .text          0x008359ec       0x64 ../server_bsp/\libucosii_bsp.a(alt_do_ctors.o)
                0x008359ec                _do_ctors
 .text          0x00835a50       0x64 ../server_bsp/\libucosii_bsp.a(alt_do_dtors.o)
                0x00835a50                _do_dtors
 .text          0x00835ab4        0x0 ../server_bsp/\libucosii_bsp.a(alt_errno.o)
 .text          0x00835ab4       0x94 ../server_bsp/\libucosii_bsp.a(alt_find_dev.o)
                0x00835ab4                alt_find_dev
 .text          0x00835b48      0x1d4 ../server_bsp/\libucosii_bsp.a(alt_iic.o)
                0x00835b48                alt_ic_isr_register
                0x00835b98                alt_ic_irq_enable
                0x00835c34                alt_ic_irq_disable
                0x00835cd4                alt_ic_irq_enabled
 .text          0x00835d1c       0xf8 ../server_bsp/\libucosii_bsp.a(alt_iic_isr_register.o)
                0x00835d1c                alt_iic_isr_register
 .text          0x00835e14      0x13c ../server_bsp/\libucosii_bsp.a(alt_io_redirect.o)
                0x00835ed8                alt_io_redirect
 .text          0x00835f50        0x0 ../server_bsp/\libucosii_bsp.a(alt_irq_entry.o)
 .text          0x00835f50        0x0 ../server_bsp/\libucosii_bsp.a(alt_irq_handler.o)
 .text          0x00835f50      0x2c4 ../server_bsp/\libucosii_bsp.a(alt_open.o)
                0x0083602c                open
 .text          0x00836214      0x180 ../server_bsp/\libucosii_bsp.a(alt_read.o)
                0x00836214                alt_read
 .text          0x00836394       0x60 ../server_bsp/\libucosii_bsp.a(alt_release_fd.o)
                0x00836394                alt_release_fd
 .text          0x008363f4       0x38 ../server_bsp/\libucosii_bsp.a(alt_remap_cached.o)
                0x008363f4                alt_remap_cached
 .text          0x0083642c       0x40 ../server_bsp/\libucosii_bsp.a(alt_remap_uncached.o)
                0x0083642c                alt_remap_uncached
 .text          0x0083646c      0x1a8 ../server_bsp/\libucosii_bsp.a(alt_tick.o)
                0x0083646c                alt_alarm_stop
                0x00836504                alt_tick
 .text          0x00836614      0x180 ../server_bsp/\libucosii_bsp.a(alt_write.o)
                0x00836614                alt_write
 .text          0x00836794       0x20 ../server_bsp/\libucosii_bsp.a(altera_nios2_qsys_irq.o)
                0x00836794                altera_nios2_qsys_irq_init
 .text          0x008367b4       0xd0 ../server_bsp/\libucosii_bsp.a(os_cpu_a.o)
                0x008367b4                OSCtxSw
                0x008367b4                OSIntCtxSw
                0x00836840                OSStartHighRdy
                0x00836860                OSStartTsk
 .text          0x00836884      0x424 ../server_bsp/\libucosii_bsp.a(os_cpu_c.o)
                0x00836884                OSTaskStkInit
                0x00836b94                OSTaskCreateHook
                0x00836bb4                OSTaskDelHook
                0x00836bd4                OSTaskSwHook
                0x00836bf0                OSTaskStatHook
                0x00836c0c                OSTimeTickHook
                0x00836c34                OSInitHookBegin
                0x00836c50                OSInitHookEnd
                0x00836c6c                OSTaskIdleHook
                0x00836c88                OSTCBInitHook
 .text          0x00836ca8      0x460 ../server_bsp/\libucosii_bsp.a(altera_avalon_cfi_flash_amd.o)
                0x00836ca8                alt_program_amd
                0x00836d10                alt_erase_block_amd
 .text          0x00837108      0x460 ../server_bsp/\libucosii_bsp.a(altera_avalon_cfi_flash_intel.o)
                0x00837108                alt_program_intel
                0x0083718c                alt_erase_block_intel
 .text          0x00837568      0x238 ../server_bsp/\libucosii_bsp.a(altera_avalon_spi.o)
                0x00837568                alt_avalon_spi_command
 .text          0x008377a0      0x444 ../server_bsp/\libucosii_bsp.a(allports.o)
                0x008377a0                netmain_init
                0x0083789c                icmp_port_du
                0x00837924                station_state
                0x00837a88                sysuptime
                0x00837b1c                packet_check
                0x00837b68                mcastlist
                0x00837b8c                prep_modules
 .text          0x00837be4      0x580 ../server_bsp/\libucosii_bsp.a(timeouts.o)
                0x00837be4                inet_timer
                0x00837ee4                in_timerset
                0x008380bc                in_timerkill
 .text          0x00838164       0xa4 ../server_bsp/\libucosii_bsp.a(tk_misc.o)
                0x00838164                create_apptasks
                0x00838188                task_stats
 .text          0x00838208       0xb0 ../server_bsp/\libucosii_bsp.a(alt_iniche_fcntl.o)
                0x00838208                fcntl
 .text          0x008382b8     0x15b0 ../server_bsp/\libucosii_bsp.a(et_arp.o)
                0x008382b8                etainit
                0x0083830c                et_send
                0x00838488                arp_free_pending
                0x00838510                arp_send_pending
                0x00838584                send_arp
                0x00838a1c                find_oldest_arp
                0x00838c18                make_arp_entry
                0x00838d2c                arpReply
                0x00838fc0                arprcv
                0x00839220                send_via_arp
                0x008393f0                cb_arpent_tmo
                0x0083959c                grat_arp
 .text          0x00839868      0x298 ../server_bsp/\libucosii_bsp.a(iface.o)
                0x00839868                if_getbynum
                0x008398ec                isbcast
                0x008399cc                reg_type
                0x00839a68                if_killsocks
 .text          0x00839b00     0x22a4 ../server_bsp/\libucosii_bsp.a(ip.o)
                0x00839b00                ip_init
                0x00839bfc                ip_bldhead
                0x00839da0                ip_write_internal
                0x0083a520                ip_write
                0x0083a768                ip_write2
                0x0083ab18                ip_raw_write
                0x0083abf0                ip_fragment_lc
                0x0083b078                ip_fragment
                0x0083b69c                ip_mymach
                0x0083b748                ip_dump
                0x0083ba00                iproute
                0x0083bc6c                ip_copypkt
 .text          0x0083bda4     0x1e08 ../server_bsp/\libucosii_bsp.a(ip_reasm.o)
                0x0083bda4                ip_reasm_match_frag_with_ire
                0x0083be74                ip_reasm_determine_type_of_frag
                0x0083bf60                ip_reasm_check_mem_useage
                0x0083bff8                ip_reasm_incr_mem_useage
                0x0083c0a0                ip_reasm_decr_mem_useage
                0x0083c140                ip_reasm_process_first_fragment
                0x0083c420                ip_reassm
                0x0083c4c0                ip_reasm_compute_overlap
                0x0083ca50                ip_reasm_process_subsequent_fragments
                0x0083cfe4                ip_reasm_find_ire
                0x0083d048                ip_reasm_copy_queued_fragments_into_reassy_buffer
                0x0083d3a4                ip_reasm_process_timer_tick
                0x0083d4c4                ip_reasm_delete_ire
                0x0083d68c                ip_reasm_mark_compact_rfq
                0x0083d7d4                ipr_stats
                0x0083db58                ip_reasm_send_icmp_timex
 .text          0x0083dbac      0xe3c ../server_bsp/\libucosii_bsp.a(ipdemux.o)
                0x0083dbac                ip_rcv
                0x0083dfac                ip_rcv_phase2
                0x0083e5b8                ip_demux
 .text          0x0083e9e8      0x2f0 ../server_bsp/\libucosii_bsp.a(ipmc.o)
                0x0083e9e8                in_addmulti
                0x0083eb50                in_delmulti
                0x0083ec68                lookup_mcast
 .text          0x0083ecd8       0xe4 ../server_bsp/\libucosii_bsp.a(ipport.o)
                0x0083ecd8                prep_ifaces
                0x0083ed6c                netexit
                0x0083ed94                evtmap_setup
 .text          0x0083edbc      0x550 ../server_bsp/\libucosii_bsp.a(ipraw.o)
                0x0083edbc                ip_raw_open
                0x0083eeac                ip_raw_close
                0x0083ef6c                ip_raw_input
                0x0083f1a4                ip_raw_alloc
                0x0083f270                ip_raw_free
                0x0083f2b0                ip_raw_maxalloc
 .text          0x0083f30c      0x6f0 ../server_bsp/\libucosii_bsp.a(iproute.o)
                0x0083f30c                rt_lookup
                0x0083f490                add_route
                0x0083f8b8                del_route
 .text          0x0083f9fc      0xe3c ../server_bsp/\libucosii_bsp.a(udp.o)
                0x0083f9fc                udpdemux
                0x00840254                udp_send
                0x0084050c                udpswap
                0x0084063c                udp_socket
                0x0084070c                udp_alloc
                0x008407cc                udp_maxalloc
                0x008407f8                udp_free
 .text          0x00840838      0x2e8 ../server_bsp/\libucosii_bsp.a(igmp.o)
                0x00840838                igmpv1_input
 .text          0x00840b20      0x7c0 ../server_bsp/\libucosii_bsp.a(igmp2.o)
                0x00840b20                igmpv2_input
                0x00840c80                igmpv2_process_report
                0x00840dcc                igmpv2_process_query
                0x00841018                igmpv2_chk_set_timer
                0x00841170                igmpv2_chk4_rtr_alert_opt
 .text          0x008412e0      0x8fc ../server_bsp/\libucosii_bsp.a(ipopt.o)
                0x008412e0                IPADDR_TO_NETP
                0x00841428                ip_setmoptions
                0x00841a18                ip_getmoptions
                0x00841b58                ip_freemoptions
 .text          0x00841bdc      0x6e8 ../server_bsp/\libucosii_bsp.a(u_mctest.o)
                0x00841bdc                u_mctest_init
                0x00841c0c                u_mctest_run
 .text          0x008422c4      0x3d0 ../server_bsp/\libucosii_bsp.a(dhcsetup.o)
                0x008422c4                dhc_setup
                0x00842590                dhc_main_ipset
 .text          0x00842694      0x40c ../server_bsp/\libucosii_bsp.a(memdev.o)
                0x00842694                init_memdev
                0x0084270c                md_fopen
                0x00842734                md_fclose
                0x00842754                md_fread
                0x008428d4                md_fwrite
                0x00842954                md_fseek
                0x00842980                md_ftell
                0x008429a4                md_fgetc
                0x00842a7c                md_unlink
 .text          0x00842aa0      0x1cc ../server_bsp/\libucosii_bsp.a(tcpcksum.o)
                0x00842aa0                tcp_cksum
 .text          0x00842c6c      0x900 ../server_bsp/\libucosii_bsp.a(in_pcb.o)
                0x00842c6c                in_pcballoc
                0x00842d00                in_pcbdetach
                0x00842d54                in_pcbbind
                0x00842fa8                in_pcbconnect
                0x008431b8                in_pcbdisconnect
                0x00843218                in_setsockaddr
                0x00843294                in_setpeeraddr
                0x00843310                in_pcblookup
 .text          0x0084356c     0x1a74 ../server_bsp/\libucosii_bsp.a(vfsfiles.o)
                0x0084356c                set_vfopen_error
                0x00843594                get_vfopen_error
                0x008435b4                vf_alloc_and_link_vop
                0x00843630                vf_alloc_buffer
                0x00843708                vf_free_buffer
                0x00843758                vfopen_locked
                0x00843ac0                vfopen
                0x00843b10                vfclose_locked
                0x00843cb8                vfclose
                0x00843cf8                vfflush
                0x00843d40                vfgets
                0x00843e24                vfeof
                0x00843e7c                vunlink_flag_open_files
                0x00843ed8                vunlink
                0x008440f8                vfread
                0x008442a4                vfwrite_locked
                0x0084468c                vfwrite
                0x008446ec                vfseek
                0x00844868                vftell
                0x0084499c                vgetc_locked
                0x00844abc                vgetc
                0x00844b04                vfslookup_locked
                0x00844c3c                vfslookup
                0x00844c84                strippath
                0x00844e6c                isvfile_locked
                0x00844ed0                isvfile
                0x00844f18                vferror
                0x00844f84                vclearerr
 .text          0x00844fe0       0x24 ../server_bsp/\libucosii_bsp.a(vfsport.o)
                0x00844fe0                prep_vfs
 .text          0x00845004        0x0 ../server_bsp/\libucosii_bsp.a(alt_exception_entry.o)
 .text          0x00845004      0x1b4 ../server_bsp/\libucosii_bsp.a(alt_fcntl.o)
                0x00845004                alt_fcntl
 .text          0x008451b8      0x120 ../server_bsp/\libucosii_bsp.a(alt_find_file.o)
                0x008451b8                alt_find_file
 .text          0x008452d8       0xf4 ../server_bsp/\libucosii_bsp.a(alt_get_fd.o)
                0x008452d8                alt_get_fd
 .text          0x008453cc     0x130c ../server_bsp/\libucosii_bsp.a(icmp.o)
                0x008453cc                icmprcv
                0x00846000                icmp_destun
                0x00846350                icmp_timex
                0x00846684                icmp_du
 .text          0x008466d8       0x14 c:/altera/13.0/nios2eds/bin/gnu/h-i686-mingw32/bin/../lib/gcc/nios2-elf/4.1.2/../../../../nios2-elf/lib\libc.a(lib_a-atexit.o)
                0x008466d8                atexit
 .text          0x008466ec       0x18 c:/altera/13.0/nios2eds/bin/gnu/h-i686-mingw32/bin/../lib/gcc/nios2-elf/4.1.2/../../../../nios2-elf/lib\libc.a(lib_a-atoi.o)
                0x008466ec                _atoi_r
                0x008466f8                atoi
 .text          0x00846704       0x1c c:/altera/13.0/nios2eds/bin/gnu/h-i686-mingw32/bin/../lib/gcc/nios2-elf/4.1.2/../../../../nios2-elf/lib\libc.a(lib_a-calloc.o)
                0x00846704                calloc
 .text          0x00846720       0x28 c:/altera/13.0/nios2eds/bin/gnu/h-i686-mingw32/bin/../lib/gcc/nios2-elf/4.1.2/../../../../nios2-elf/lib\libc.a(lib_a-malloc.o)
                0x00846720                free
                0x00846734                malloc
 .text          0x00846748       0x74 c:/altera/13.0/nios2eds/bin/gnu/h-i686-mingw32/bin/../lib/gcc/nios2-elf/4.1.2/../../../../nios2-elf/lib\libc.a(lib_a-memcmp.o)
                0x00846748                memcmp
 .text          0x008467bc       0xd4 c:/altera/13.0/nios2eds/bin/gnu/h-i686-mingw32/bin/../lib/gcc/nios2-elf/4.1.2/../../../../nios2-elf/lib\libc.a(lib_a-sprintf.o)
                0x008467bc                sprintf
                0x00846830                _sprintf_r
 .text          0x00846890       0x8c c:/altera/13.0/nios2eds/bin/gnu/h-i686-mingw32/bin/../lib/gcc/nios2-elf/4.1.2/../../../../nios2-elf/lib\libc.a(lib_a-strcpy.o)
                0x00846890                strcpy
 .text          0x0084691c       0xf0 c:/altera/13.0/nios2eds/bin/gnu/h-i686-mingw32/bin/../lib/gcc/nios2-elf/4.1.2/../../../../nios2-elf/lib\libc.a(lib_a-strncmp.o)
                0x0084691c                strncmp
 .text          0x00846a0c       0xbc c:/altera/13.0/nios2eds/bin/gnu/h-i686-mingw32/bin/../lib/gcc/nios2-elf/4.1.2/../../../../nios2-elf/lib\libc.a(lib_a-strncpy.o)
                0x00846a0c                strncpy
 .text          0x00846ac8      0x268 c:/altera/13.0/nios2eds/bin/gnu/h-i686-mingw32/bin/../lib/gcc/nios2-elf/4.1.2/../../../../nios2-elf/lib\libc.a(lib_a-strtol.o)
                0x00846ac8                _strtol_r
                0x00846d0c                strtol
 .text          0x00846d30       0x34 c:/altera/13.0/nios2eds/bin/gnu/h-i686-mingw32/bin/../lib/gcc/nios2-elf/4.1.2/../../../../nios2-elf/lib\libc.a(lib_a-vprintf.o)
                0x00846d30                _vprintf_r
                0x00846d44                vprintf
 .text          0x00846d64       0x74 c:/altera/13.0/nios2eds/bin/gnu/h-i686-mingw32/bin/../lib/gcc/nios2-elf/4.1.2/../../../../nios2-elf/lib\libc.a(lib_a-vsprintf.o)
                0x00846d64                _vsprintf_r
                0x00846db4                vsprintf
 .text          0x00846dd8      0x134 c:/altera/13.0/nios2eds/bin/gnu/h-i686-mingw32/bin/../lib/gcc/nios2-elf/4.1.2/../../../../nios2-elf/lib\libc.a(lib_a-__atexit.o)
                0x00846dd8                __register_exitproc
 *(.gnu.warning.*)
 *(.fini)
                0x00846f0c                PROVIDE (__etext, ABSOLUTE (.))
                0x00846f0c                PROVIDE (_etext, ABSOLUTE (.))
                0x00846f0c                PROVIDE (etext, ABSOLUTE (.))
 *(.eh_frame_hdr)
                0x00846f0c                . = ALIGN (0x4)
                0x00846f0c                PROVIDE (__preinit_array_start, ABSOLUTE (.))
 *(.preinit_array)
                0x00846f0c                PROVIDE (__preinit_array_end, ABSOLUTE (.))
                0x00846f0c                PROVIDE (__init_array_start, ABSOLUTE (.))
 *(.init_array)
                0x00846f0c                PROVIDE (__init_array_end, ABSOLUTE (.))
                0x00846f0c                PROVIDE (__fini_array_start, ABSOLUTE (.))
 *(.fini_array)
                0x00846f0c                PROVIDE (__fini_array_end, ABSOLUTE (.))
 *(.eh_frame)
 *(.gcc_except_table)
 *(.dynamic)
                0x00846f0c                PROVIDE (__CTOR_LIST__, ABSOLUTE (.))
 *(.ctors)
 *(SORT(.ctors.*))
 .ctors.65535   0x00846f0c        0x4 c:/altera/13.0/nios2eds/bin/gnu/h-i686-mingw32/bin/../lib/gcc/nios2-elf/4.1.2/../../../../nios2-elf/lib\libc.a(lib_a-__call_atexit.o)
                0x00846f10                PROVIDE (__CTOR_END__, ABSOLUTE (.))
                0x00846f10                PROVIDE (__DTOR_LIST__, ABSOLUTE (.))
 *(.dtors)
 *(SORT(.dtors.*))
                0x00846f10                PROVIDE (__DTOR_END__, ABSOLUTE (.))
 *(.jcr)
                0x00846f10                . = ALIGN (0x4)

.rodata         0x00846f10     0x4208
                0x00846f10                PROVIDE (__ram_rodata_start, ABSOLUTE (.))
                0x00846f10                . = ALIGN (0x4)
 *(.rodata .rodata.* .gnu.linkonce.r.*)
 .rodata        0x00846f10       0x60 obj/default/LCD.o
 .rodata        0x00846f70       0xa8 obj/default/SSS_DE2_115.o
 .rodata        0x00847018      0xba4 obj/default/alt_error_handler.o
 .rodata        0x00847bbc       0x64 obj/default/dm9000a.o
 .rodata        0x00847c20       0xec obj/default/iniche_init.o
 .rodata        0x00847d0c      0x234 obj/default/network_utilities.o
 .rodata        0x00847f40      0x2e0 obj/default/simple_socket_server.o
 .rodata        0x00848220       0x14 c:/altera/13.0/nios2eds/bin/gnu/h-i686-mingw32/bin/../lib/gcc/nios2-elf/4.1.2\libgcc.a(_thenan_df.o)
                0x00848220                __thenan_df
 .rodata        0x00848234      0x100 c:/altera/13.0/nios2eds/bin/gnu/h-i686-mingw32/bin/../lib/gcc/nios2-elf/4.1.2\libgcc.a(_clz.o)
                0x00848234                __clz_tab
 .rodata        0x00848334      0x284 c:/altera/13.0/nios2eds/bin/gnu/h-i686-mingw32/bin/../lib/gcc/nios2-elf/4.1.2/../../../../nios2-elf/lib\libc.a(lib_a-ctype_.o)
                0x00848334                _ctype_
 .rodata.str1.4
                0x008485b8        0x2 c:/altera/13.0/nios2eds/bin/gnu/h-i686-mingw32/bin/../lib/gcc/nios2-elf/4.1.2/../../../../nios2-elf/lib\libc.a(lib_a-impure.o)
                                  0x4 (size before relaxing)
 *fill*         0x008485ba        0x2 00
 .rodata.str1.4
                0x008485bc        0x3 c:/altera/13.0/nios2eds/bin/gnu/h-i686-mingw32/bin/../lib/gcc/nios2-elf/4.1.2/../../../../nios2-elf/lib\libc.a(lib_a-perror.o)
                                  0x4 (size before relaxing)
 *fill*         0x008485bf        0x1 00
 .rodata.str1.4
                0x008485c0        0x2 c:/altera/13.0/nios2eds/bin/gnu/h-i686-mingw32/bin/../lib/gcc/nios2-elf/4.1.2/../../../../nios2-elf/lib\libc.a(lib_a-puts.o)
                                  0x4 (size before relaxing)
 *fill*         0x008485c2        0x2 00
 .rodata.str1.4
                0x008485c4      0x7a2 c:/altera/13.0/nios2eds/bin/gnu/h-i686-mingw32/bin/../lib/gcc/nios2-elf/4.1.2/../../../../nios2-elf/lib\libc.a(lib_a-strerror.o)
                                0x7a8 (size before relaxing)
 *fill*         0x00848d66        0x2 00
 .rodata.str1.4
                0x00848d68       0x5e c:/altera/13.0/nios2eds/bin/gnu/h-i686-mingw32/bin/../lib/gcc/nios2-elf/4.1.2/../../../../nios2-elf/lib\libc.a(lib_a-vfprintf.o)
                                 0x60 (size before relaxing)
 *fill*         0x00848dc6        0x2 00
 .rodata        0x00848dc8       0x20 c:/altera/13.0/nios2eds/bin/gnu/h-i686-mingw32/bin/../lib/gcc/nios2-elf/4.1.2/../../../../nios2-elf/lib\libc.a(lib_a-vfprintf.o)
 .rodata.str1.4
                0x00848de8       0x10 c:/altera/13.0/nios2eds/bin/gnu/h-i686-mingw32/bin/../lib/gcc/nios2-elf/4.1.2/../../../../nios2-elf/lib\libc.a(lib_a-dtoa.o)
                                 0x14 (size before relaxing)
 .rodata.str1.4
                0x00848df8       0x10 c:/altera/13.0/nios2eds/bin/gnu/h-i686-mingw32/bin/../lib/gcc/nios2-elf/4.1.2/../../../../nios2-elf/lib\libc.a(lib_a-locale.o)
                                 0x18 (size before relaxing)
 .rodata        0x00848e08       0x30 c:/altera/13.0/nios2eds/bin/gnu/h-i686-mingw32/bin/../lib/gcc/nios2-elf/4.1.2/../../../../nios2-elf/lib\libc.a(lib_a-locale.o)
 .rodata        0x00848e38      0x124 c:/altera/13.0/nios2eds/bin/gnu/h-i686-mingw32/bin/../lib/gcc/nios2-elf/4.1.2/../../../../nios2-elf/lib\libc.a(lib_a-mprec.o)
                0x00848e38                __mprec_tens
                0x00848f00                __mprec_bigtens
                0x00848f28                __mprec_tinytens
 .rodata        0x00848f5c       0x14 ../server_bsp/\libucosii_bsp.a(alt_main.o)
 .rodata        0x00848f70      0x120 ../server_bsp/\libucosii_bsp.a(os_core.o)
                0x00848f70                OSUnMapTbl
 .rodata        0x00849090       0x60 ../server_bsp/\libucosii_bsp.a(alt_sys_init.o)
 .rodata        0x008490f0       0xd8 ../server_bsp/\libucosii_bsp.a(ipnet.o)
 .rodata        0x008491c8       0xec ../server_bsp/\libucosii_bsp.a(ipstart.o)
 .rodata        0x008492b4      0x54c ../server_bsp/\libucosii_bsp.a(igmp_cmn.o)
 .rodata        0x00849800       0xb8 ../server_bsp/\libucosii_bsp.a(in_utils.o)
 .rodata        0x008498b8       0x34 ../server_bsp/\libucosii_bsp.a(netmain.o)
 .rodata        0x008498ec       0x94 ../server_bsp/\libucosii_bsp.a(parseip.o)
 .rodata        0x00849980      0x1a8 ../server_bsp/\libucosii_bsp.a(tk_crnos.o)
 .rodata        0x00849b28        0x8 ../server_bsp/\libucosii_bsp.a(dhcpclnt.o)
 .rodata        0x00849b30      0x118 ../server_bsp/\libucosii_bsp.a(pktalloc.o)
 .rodata        0x00849c48       0x84 ../server_bsp/\libucosii_bsp.a(udp_open.o)
 .rodata        0x00849ccc       0x2c ../server_bsp/\libucosii_bsp.a(brdutils.o)
 .rodata        0x00849cf8      0x26c ../server_bsp/\libucosii_bsp.a(osportco.o)
 .rodata        0x00849f64       0xa0 ../server_bsp/\libucosii_bsp.a(targnios.o)
 .rodata        0x0084a004       0x90 ../server_bsp/\libucosii_bsp.a(nptcp.o)
 .rodata        0x0084a094        0x8 ../server_bsp/\libucosii_bsp.a(sockcall.o)
 .rodata        0x0084a09c       0x50 ../server_bsp/\libucosii_bsp.a(socket.o)
 .rodata        0x0084a0ec       0x40 ../server_bsp/\libucosii_bsp.a(socket2.o)
 .rodata        0x0084a12c       0x20 ../server_bsp/\libucosii_bsp.a(tcp_in.o)
 .rodata        0x0084a14c       0x40 ../server_bsp/\libucosii_bsp.a(tcp_out.o)
 .rodata        0x0084a18c       0x24 ../server_bsp/\libucosii_bsp.a(tcp_subr.o)
 .rodata        0x0084a1b0       0x2c ../server_bsp/\libucosii_bsp.a(tcp_usr.o)
 .rodata        0x0084a1dc        0xc ../server_bsp/\libucosii_bsp.a(alt_dev.o)
 .rodata        0x0084a1e8        0x4 ../server_bsp/\libucosii_bsp.a(os_cpu_c.o)
 .rodata        0x0084a1ec      0x1d4 ../server_bsp/\libucosii_bsp.a(allports.o)
 .rodata        0x0084a3c0       0x34 ../server_bsp/\libucosii_bsp.a(tk_misc.o)
 .rodata        0x0084a3f4       0x44 ../server_bsp/\libucosii_bsp.a(et_arp.o)
 .rodata        0x0084a438      0x1dc ../server_bsp/\libucosii_bsp.a(ip.o)
 .rodata        0x0084a614      0x158 ../server_bsp/\libucosii_bsp.a(ip_reasm.o)
 .rodata        0x0084a76c      0x120 ../server_bsp/\libucosii_bsp.a(ipdemux.o)
 .rodata        0x0084a88c       0x34 ../server_bsp/\libucosii_bsp.a(ipport.o)
 .rodata        0x0084a8c0       0x24 ../server_bsp/\libucosii_bsp.a(ipraw.o)
 .rodata        0x0084a8e4       0x38 ../server_bsp/\libucosii_bsp.a(iproute.o)
 .rodata        0x0084a91c       0xe8 ../server_bsp/\libucosii_bsp.a(udp.o)
 .rodata        0x0084aa04      0x2d0 ../server_bsp/\libucosii_bsp.a(u_mctest.o)
 .rodata        0x0084acd4       0xf8 ../server_bsp/\libucosii_bsp.a(dhcsetup.o)
 .rodata        0x0084adcc       0x34 ../server_bsp/\libucosii_bsp.a(vfsfiles.o)
 .rodata        0x0084ae00      0x318 ../server_bsp/\libucosii_bsp.a(icmp.o)
 *(.rodata1)
                0x0084b118                . = ALIGN (0x4)
                0x0084b118                PROVIDE (__ram_rodata_end, ABSOLUTE (.))
                0x00846f10                PROVIDE (__flash_rodata_start, LOADADDR (.rodata))

.rwdata         0x0084b118     0x2140
                0x0084b118                PROVIDE (__ram_rwdata_start, ABSOLUTE (.))
                0x0084b118                . = ALIGN (0x4)
 *(.got.plt)
 *(.got)
 *(.data1)
 *(.data .data.* .gnu.linkonce.d.*)
 .data          0x0084b118        0x0 ../server_bsp//obj/HAL/src/crt0.o
 .data          0x0084b118        0x0 obj/default/LCD.o
 .data          0x0084b118        0x0 obj/default/SSS_DE2_115.o
 .data          0x0084b118        0x0 obj/default/alt_error_handler.o
 .data          0x0084b118        0x0 obj/default/dm9000a.o
 .data          0x0084b118       0x18 obj/default/iniche_init.o
                0x0084b118                ssstask
 .data          0x0084b130        0x0 obj/default/led.o
 .data          0x0084b130        0x0 obj/default/network_utilities.o
 .data          0x0084b130        0x0 obj/default/simple_socket_server.o
 .data          0x0084b130        0x0 obj/default/tse_my_system.o
 .data          0x0084b130        0x0 c:/altera/13.0/nios2eds/bin/gnu/h-i686-mingw32/bin/../lib/gcc/nios2-elf/4.1.2\libgcc.a(_fixunsdfsi.o)
 .data          0x0084b130        0x0 c:/altera/13.0/nios2eds/bin/gnu/h-i686-mingw32/bin/../lib/gcc/nios2-elf/4.1.2\libgcc.a(_addsub_df.o)
 .data          0x0084b130        0x0 c:/altera/13.0/nios2eds/bin/gnu/h-i686-mingw32/bin/../lib/gcc/nios2-elf/4.1.2\libgcc.a(_mul_df.o)
 .data          0x0084b130        0x0 c:/altera/13.0/nios2eds/bin/gnu/h-i686-mingw32/bin/../lib/gcc/nios2-elf/4.1.2\libgcc.a(_ge_df.o)
 .data          0x0084b130        0x0 c:/altera/13.0/nios2eds/bin/gnu/h-i686-mingw32/bin/../lib/gcc/nios2-elf/4.1.2\libgcc.a(_df_to_si.o)
 .data          0x0084b130        0x0 c:/altera/13.0/nios2eds/bin/gnu/h-i686-mingw32/bin/../lib/gcc/nios2-elf/4.1.2\libgcc.a(_thenan_df.o)
 .data          0x0084b130        0x0 c:/altera/13.0/nios2eds/bin/gnu/h-i686-mingw32/bin/../lib/gcc/nios2-elf/4.1.2\libgcc.a(_usi_to_df.o)
 .data          0x0084b130        0x0 c:/altera/13.0/nios2eds/bin/gnu/h-i686-mingw32/bin/../lib/gcc/nios2-elf/4.1.2\libgcc.a(_muldi3.o)
 .data          0x0084b130        0x0 c:/altera/13.0/nios2eds/bin/gnu/h-i686-mingw32/bin/../lib/gcc/nios2-elf/4.1.2\libgcc.a(_clzsi2.o)
 .data          0x0084b130        0x0 c:/altera/13.0/nios2eds/bin/gnu/h-i686-mingw32/bin/../lib/gcc/nios2-elf/4.1.2\libgcc.a(_pack_df.o)
 .data          0x0084b130        0x0 c:/altera/13.0/nios2eds/bin/gnu/h-i686-mingw32/bin/../lib/gcc/nios2-elf/4.1.2\libgcc.a(_unpack_df.o)
 .data          0x0084b130        0x0 c:/altera/13.0/nios2eds/bin/gnu/h-i686-mingw32/bin/../lib/gcc/nios2-elf/4.1.2\libgcc.a(_fpcmp_parts_df.o)
 .data          0x0084b130        0x0 c:/altera/13.0/nios2eds/bin/gnu/h-i686-mingw32/bin/../lib/gcc/nios2-elf/4.1.2\libgcc.a(_clz.o)
 .data          0x0084b130        0x0 c:/altera/13.0/nios2eds/bin/gnu/h-i686-mingw32/bin/../lib/gcc/nios2-elf/4.1.2/../../../../nios2-elf/lib\libc.a(lib_a-ctype_.o)
 .data          0x0084b130        0x0 c:/altera/13.0/nios2eds/bin/gnu/h-i686-mingw32/bin/../lib/gcc/nios2-elf/4.1.2/../../../../nios2-elf/lib\libc.a(lib_a-exit.o)
 .data          0x0084b130        0x0 c:/altera/13.0/nios2eds/bin/gnu/h-i686-mingw32/bin/../lib/gcc/nios2-elf/4.1.2/../../../../nios2-elf/lib\libc.a(lib_a-fprintf.o)
 .data          0x0084b130        0x0 c:/altera/13.0/nios2eds/bin/gnu/h-i686-mingw32/bin/../lib/gcc/nios2-elf/4.1.2/../../../../nios2-elf/lib\libc.a(lib_a-fwrite.o)
 .data          0x0084b130        0x0 c:/altera/13.0/nios2eds/bin/gnu/h-i686-mingw32/bin/../lib/gcc/nios2-elf/4.1.2/../../../../nios2-elf/lib\libc.a(lib_a-getc.o)
 .data          0x0084b130      0x400 c:/altera/13.0/nios2eds/bin/gnu/h-i686-mingw32/bin/../lib/gcc/nios2-elf/4.1.2/../../../../nios2-elf/lib\libc.a(lib_a-impure.o)
 .data          0x0084b530        0x0 c:/altera/13.0/nios2eds/bin/gnu/h-i686-mingw32/bin/../lib/gcc/nios2-elf/4.1.2/../../../../nios2-elf/lib\libc.a(lib_a-memcpy.o)
 .data          0x0084b530        0x0 c:/altera/13.0/nios2eds/bin/gnu/h-i686-mingw32/bin/../lib/gcc/nios2-elf/4.1.2/../../../../nios2-elf/lib\libc.a(lib_a-memmove.o)
 .data          0x0084b530        0x0 c:/altera/13.0/nios2eds/bin/gnu/h-i686-mingw32/bin/../lib/gcc/nios2-elf/4.1.2/../../../../nios2-elf/lib\libc.a(lib_a-memset.o)
 .data          0x0084b530        0x0 c:/altera/13.0/nios2eds/bin/gnu/h-i686-mingw32/bin/../lib/gcc/nios2-elf/4.1.2/../../../../nios2-elf/lib\libc.a(lib_a-perror.o)
 .data          0x0084b530        0x0 c:/altera/13.0/nios2eds/bin/gnu/h-i686-mingw32/bin/../lib/gcc/nios2-elf/4.1.2/../../../../nios2-elf/lib\libc.a(lib_a-printf.o)
 .data          0x0084b530        0x0 c:/altera/13.0/nios2eds/bin/gnu/h-i686-mingw32/bin/../lib/gcc/nios2-elf/4.1.2/../../../../nios2-elf/lib\libc.a(lib_a-putc.o)
 .data          0x0084b530        0x0 c:/altera/13.0/nios2eds/bin/gnu/h-i686-mingw32/bin/../lib/gcc/nios2-elf/4.1.2/../../../../nios2-elf/lib\libc.a(lib_a-putchar.o)
 .data          0x0084b530        0x0 c:/altera/13.0/nios2eds/bin/gnu/h-i686-mingw32/bin/../lib/gcc/nios2-elf/4.1.2/../../../../nios2-elf/lib\libc.a(lib_a-puts.o)
 .data          0x0084b530        0x0 c:/altera/13.0/nios2eds/bin/gnu/h-i686-mingw32/bin/../lib/gcc/nios2-elf/4.1.2/../../../../nios2-elf/lib\libc.a(lib_a-rget.o)
 .data          0x0084b530        0x0 c:/altera/13.0/nios2eds/bin/gnu/h-i686-mingw32/bin/../lib/gcc/nios2-elf/4.1.2/../../../../nios2-elf/lib\libc.a(lib_a-strchr.o)
 .data          0x0084b530        0x0 c:/altera/13.0/nios2eds/bin/gnu/h-i686-mingw32/bin/../lib/gcc/nios2-elf/4.1.2/../../../../nios2-elf/lib\libc.a(lib_a-strerror.o)
 .data          0x0084b530        0x0 c:/altera/13.0/nios2eds/bin/gnu/h-i686-mingw32/bin/../lib/gcc/nios2-elf/4.1.2/../../../../nios2-elf/lib\libc.a(lib_a-strlen.o)
 .data          0x0084b530        0x0 c:/altera/13.0/nios2eds/bin/gnu/h-i686-mingw32/bin/../lib/gcc/nios2-elf/4.1.2/../../../../nios2-elf/lib\libc.a(lib_a-u_strerr.o)
 .data          0x0084b530        0x0 c:/altera/13.0/nios2eds/bin/gnu/h-i686-mingw32/bin/../lib/gcc/nios2-elf/4.1.2/../../../../nios2-elf/lib\libc.a(lib_a-vfprintf.o)
 .data          0x0084b530        0x0 c:/altera/13.0/nios2eds/bin/gnu/h-i686-mingw32/bin/../lib/gcc/nios2-elf/4.1.2/../../../../nios2-elf/lib\libc.a(lib_a-wbuf.o)
 .data          0x0084b530        0x0 c:/altera/13.0/nios2eds/bin/gnu/h-i686-mingw32/bin/../lib/gcc/nios2-elf/4.1.2/../../../../nios2-elf/lib\libc.a(lib_a-wsetup.o)
 .data          0x0084b530        0x0 c:/altera/13.0/nios2eds/bin/gnu/h-i686-mingw32/bin/../lib/gcc/nios2-elf/4.1.2/../../../../nios2-elf/lib\libc.a(lib_a-__call_atexit.o)
 .data          0x0084b530        0x0 c:/altera/13.0/nios2eds/bin/gnu/h-i686-mingw32/bin/../lib/gcc/nios2-elf/4.1.2/../../../../nios2-elf/lib\libc.a(lib_a-dtoa.o)
 .data          0x0084b530        0x0 c:/altera/13.0/nios2eds/bin/gnu/h-i686-mingw32/bin/../lib/gcc/nios2-elf/4.1.2/../../../../nios2-elf/lib\libc.a(lib_a-fflush.o)
 .data          0x0084b530        0x0 c:/altera/13.0/nios2eds/bin/gnu/h-i686-mingw32/bin/../lib/gcc/nios2-elf/4.1.2/../../../../nios2-elf/lib\libc.a(lib_a-findfp.o)
 .data          0x0084b530        0x0 c:/altera/13.0/nios2eds/bin/gnu/h-i686-mingw32/bin/../lib/gcc/nios2-elf/4.1.2/../../../../nios2-elf/lib\libc.a(lib_a-fputc.o)
 .data          0x0084b530        0x0 c:/altera/13.0/nios2eds/bin/gnu/h-i686-mingw32/bin/../lib/gcc/nios2-elf/4.1.2/../../../../nios2-elf/lib\libc.a(lib_a-fputs.o)
 .data          0x0084b530        0x0 c:/altera/13.0/nios2eds/bin/gnu/h-i686-mingw32/bin/../lib/gcc/nios2-elf/4.1.2/../../../../nios2-elf/lib\libc.a(lib_a-freer.o)
 .data          0x0084b530        0x0 c:/altera/13.0/nios2eds/bin/gnu/h-i686-mingw32/bin/../lib/gcc/nios2-elf/4.1.2/../../../../nios2-elf/lib\libc.a(lib_a-fvwrite.o)
 .data          0x0084b530        0x0 c:/altera/13.0/nios2eds/bin/gnu/h-i686-mingw32/bin/../lib/gcc/nios2-elf/4.1.2/../../../../nios2-elf/lib\libc.a(lib_a-fwalk.o)
 .data          0x0084b530        0xc c:/altera/13.0/nios2eds/bin/gnu/h-i686-mingw32/bin/../lib/gcc/nios2-elf/4.1.2/../../../../nios2-elf/lib\libc.a(lib_a-locale.o)
                0x0084b530                __lc_ctype
 .data          0x0084b53c        0x0 c:/altera/13.0/nios2eds/bin/gnu/h-i686-mingw32/bin/../lib/gcc/nios2-elf/4.1.2/../../../../nios2-elf/lib\libc.a(lib_a-makebuf.o)
 .data          0x0084b53c      0x408 c:/altera/13.0/nios2eds/bin/gnu/h-i686-mingw32/bin/../lib/gcc/nios2-elf/4.1.2/../../../../nios2-elf/lib\libc.a(lib_a-mallocr.o)
                0x0084b53c                __malloc_av_
 .data          0x0084b944        0x0 c:/altera/13.0/nios2eds/bin/gnu/h-i686-mingw32/bin/../lib/gcc/nios2-elf/4.1.2/../../../../nios2-elf/lib\libc.a(lib_a-memchr.o)
 .data          0x0084b944        0x0 c:/altera/13.0/nios2eds/bin/gnu/h-i686-mingw32/bin/../lib/gcc/nios2-elf/4.1.2/../../../../nios2-elf/lib\libc.a(lib_a-mprec.o)
 .data          0x0084b944        0x0 c:/altera/13.0/nios2eds/bin/gnu/h-i686-mingw32/bin/../lib/gcc/nios2-elf/4.1.2/../../../../nios2-elf/lib\libc.a(lib_a-reallocr.o)
 .data          0x0084b944        0x0 c:/altera/13.0/nios2eds/bin/gnu/h-i686-mingw32/bin/../lib/gcc/nios2-elf/4.1.2/../../../../nios2-elf/lib\libc.a(lib_a-refill.o)
 .data          0x0084b944        0x0 c:/altera/13.0/nios2eds/bin/gnu/h-i686-mingw32/bin/../lib/gcc/nios2-elf/4.1.2/../../../../nios2-elf/lib\libc.a(lib_a-s_isinfd.o)
 .data          0x0084b944        0x0 c:/altera/13.0/nios2eds/bin/gnu/h-i686-mingw32/bin/../lib/gcc/nios2-elf/4.1.2/../../../../nios2-elf/lib\libc.a(lib_a-s_isnand.o)
 .data          0x0084b944        0x0 c:/altera/13.0/nios2eds/bin/gnu/h-i686-mingw32/bin/../lib/gcc/nios2-elf/4.1.2/../../../../nios2-elf/lib\libc.a(lib_a-sbrkr.o)
 .data          0x0084b944        0x0 c:/altera/13.0/nios2eds/bin/gnu/h-i686-mingw32/bin/../lib/gcc/nios2-elf/4.1.2/../../../../nios2-elf/lib\libc.a(lib_a-stdio.o)
 .data          0x0084b944        0x0 c:/altera/13.0/nios2eds/bin/gnu/h-i686-mingw32/bin/../lib/gcc/nios2-elf/4.1.2/../../../../nios2-elf/lib\libc.a(lib_a-strcmp.o)
 .data          0x0084b944        0x0 c:/altera/13.0/nios2eds/bin/gnu/h-i686-mingw32/bin/../lib/gcc/nios2-elf/4.1.2/../../../../nios2-elf/lib\libc.a(lib_a-writer.o)
 .data          0x0084b944        0x0 c:/altera/13.0/nios2eds/bin/gnu/h-i686-mingw32/bin/../lib/gcc/nios2-elf/4.1.2/../../../../nios2-elf/lib\libc.a(lib_a-callocr.o)
 .data          0x0084b944        0x0 c:/altera/13.0/nios2eds/bin/gnu/h-i686-mingw32/bin/../lib/gcc/nios2-elf/4.1.2/../../../../nios2-elf/lib\libc.a(lib_a-closer.o)
 .data          0x0084b944        0x0 c:/altera/13.0/nios2eds/bin/gnu/h-i686-mingw32/bin/../lib/gcc/nios2-elf/4.1.2/../../../../nios2-elf/lib\libc.a(lib_a-fclose.o)
 .data          0x0084b944        0x0 c:/altera/13.0/nios2eds/bin/gnu/h-i686-mingw32/bin/../lib/gcc/nios2-elf/4.1.2/../../../../nios2-elf/lib\libc.a(lib_a-fstatr.o)
 .data          0x0084b944        0x0 c:/altera/13.0/nios2eds/bin/gnu/h-i686-mingw32/bin/../lib/gcc/nios2-elf/4.1.2/../../../../nios2-elf/lib\libc.a(lib_a-int_errno.o)
 .data          0x0084b944        0x0 c:/altera/13.0/nios2eds/bin/gnu/h-i686-mingw32/bin/../lib/gcc/nios2-elf/4.1.2/../../../../nios2-elf/lib\libc.a(lib_a-isattyr.o)
 .data          0x0084b944        0x0 c:/altera/13.0/nios2eds/bin/gnu/h-i686-mingw32/bin/../lib/gcc/nios2-elf/4.1.2/../../../../nios2-elf/lib\libc.a(lib_a-lseekr.o)
 .data          0x0084b944        0x0 c:/altera/13.0/nios2eds/bin/gnu/h-i686-mingw32/bin/../lib/gcc/nios2-elf/4.1.2/../../../../nios2-elf/lib\libc.a(lib_a-readr.o)
 .data          0x0084b944        0x0 c:/altera/13.0/nios2eds/bin/gnu/h-i686-mingw32/bin/../lib/gcc/nios2-elf/4.1.2\libgcc.a(_udivdi3.o)
 .data          0x0084b944        0x0 c:/altera/13.0/nios2eds/bin/gnu/h-i686-mingw32/bin/../lib/gcc/nios2-elf/4.1.2\libgcc.a(_umoddi3.o)
 .data          0x0084b944        0x0 c:/altera/13.0/nios2eds/bin/gnu/h-i686-mingw32/bin/../lib/gcc/nios2-elf/4.1.2\libgcc.a(_div_df.o)
 .data          0x0084b944        0x0 c:/altera/13.0/nios2eds/bin/gnu/h-i686-mingw32/bin/../lib/gcc/nios2-elf/4.1.2\libgcc.a(_eq_df.o)
 .data          0x0084b944        0x0 c:/altera/13.0/nios2eds/bin/gnu/h-i686-mingw32/bin/../lib/gcc/nios2-elf/4.1.2\libgcc.a(_ne_df.o)
 .data          0x0084b944        0x0 c:/altera/13.0/nios2eds/bin/gnu/h-i686-mingw32/bin/../lib/gcc/nios2-elf/4.1.2\libgcc.a(_gt_df.o)
 .data          0x0084b944        0x0 c:/altera/13.0/nios2eds/bin/gnu/h-i686-mingw32/bin/../lib/gcc/nios2-elf/4.1.2\libgcc.a(_lt_df.o)
 .data          0x0084b944        0x0 c:/altera/13.0/nios2eds/bin/gnu/h-i686-mingw32/bin/../lib/gcc/nios2-elf/4.1.2\libgcc.a(_si_to_df.o)
 .data          0x0084b944        0x0 c:/altera/13.0/nios2eds/bin/gnu/h-i686-mingw32/bin/../lib/gcc/nios2-elf/4.1.2\libgcc.a(lib2-divmod.o)
 .data          0x0084b944        0x0 ../server_bsp/\libucosii_bsp.a(alt_exit.o)
 .data          0x0084b944        0x0 ../server_bsp/\libucosii_bsp.a(alt_flash_dev.o)
 .data          0x0084b944        0x0 ../server_bsp/\libucosii_bsp.a(alt_fstat.o)
 .data          0x0084b944        0x0 ../server_bsp/\libucosii_bsp.a(alt_irq_register.o)
 .data          0x0084b944        0x0 ../server_bsp/\libucosii_bsp.a(alt_irq_vars.o)
 .data          0x0084b944        0x0 ../server_bsp/\libucosii_bsp.a(alt_isatty.o)
 .data          0x0084b944        0x0 ../server_bsp/\libucosii_bsp.a(alt_lseek.o)
 .data          0x0084b944        0x0 ../server_bsp/\libucosii_bsp.a(alt_main.o)
 .data          0x0084b944        0x0 ../server_bsp/\libucosii_bsp.a(alt_sbrk.o)
 .data          0x0084b944        0x0 ../server_bsp/\libucosii_bsp.a(alt_usleep.o)
 .data          0x0084b944        0x0 ../server_bsp/\libucosii_bsp.a(alt_env_lock.o)
 .data          0x0084b944        0x0 ../server_bsp/\libucosii_bsp.a(alt_malloc_lock.o)
 .data          0x0084b944        0x0 ../server_bsp/\libucosii_bsp.a(os_core.o)
 .data          0x0084b944        0x0 ../server_bsp/\libucosii_bsp.a(os_dbg.o)
 .data          0x0084b944        0x0 ../server_bsp/\libucosii_bsp.a(os_flag.o)
 .data          0x0084b944        0x0 ../server_bsp/\libucosii_bsp.a(os_mem.o)
 .data          0x0084b944        0x0 ../server_bsp/\libucosii_bsp.a(os_q.o)
 .data          0x0084b944        0x0 ../server_bsp/\libucosii_bsp.a(os_sem.o)
 .data          0x0084b944        0x0 ../server_bsp/\libucosii_bsp.a(os_task.o)
 .data          0x0084b944        0x0 ../server_bsp/\libucosii_bsp.a(os_time.o)
 .data          0x0084b944     0x1400 ../server_bsp/\libucosii_bsp.a(alt_sys_init.o)
 .data          0x0084cd44        0x0 ../server_bsp/\libucosii_bsp.a(altera_avalon_cfi_flash.o)
 .data          0x0084cd44        0x0 ../server_bsp/\libucosii_bsp.a(altera_avalon_cfi_flash_table.o)
 .data          0x0084cd44        0x0 ../server_bsp/\libucosii_bsp.a(altera_avalon_epcs_flash_controller.o)
 .data          0x0084cd44        0x0 ../server_bsp/\libucosii_bsp.a(altera_avalon_jtag_uart_fd.o)
 .data          0x0084cd44        0x0 ../server_bsp/\libucosii_bsp.a(altera_avalon_jtag_uart_init.o)
 .data          0x0084cd44        0x0 ../server_bsp/\libucosii_bsp.a(altera_avalon_jtag_uart_ioctl.o)
 .data          0x0084cd44        0x0 ../server_bsp/\libucosii_bsp.a(altera_avalon_jtag_uart_read.o)
 .data          0x0084cd44        0x0 ../server_bsp/\libucosii_bsp.a(altera_avalon_jtag_uart_write.o)
 .data          0x0084cd44        0x0 ../server_bsp/\libucosii_bsp.a(altera_avalon_lcd_16207.o)
 .data          0x0084cd44        0x0 ../server_bsp/\libucosii_bsp.a(altera_avalon_lcd_16207_fd.o)
 .data          0x0084cd44        0x0 ../server_bsp/\libucosii_bsp.a(altera_avalon_timer_sc.o)
 .data          0x0084cd44        0x0 ../server_bsp/\libucosii_bsp.a(altera_avalon_uart_fd.o)
 .data          0x0084cd44        0x0 ../server_bsp/\libucosii_bsp.a(altera_avalon_uart_init.o)
 .data          0x0084cd44        0x0 ../server_bsp/\libucosii_bsp.a(altera_avalon_uart_read.o)
 .data          0x0084cd44        0x0 ../server_bsp/\libucosii_bsp.a(altera_avalon_uart_write.o)
 .data          0x0084cd44        0x0 ../server_bsp/\libucosii_bsp.a(epcs_commands.o)
 .data          0x0084cd44        0x0 ../server_bsp/\libucosii_bsp.a(alt_iniche_close.o)
 .data          0x0084cd44        0x0 ../server_bsp/\libucosii_bsp.a(alt_iniche_dev.o)
 .data          0x0084cd44        0x0 ../server_bsp/\libucosii_bsp.a(alt_iniche_read.o)
 .data          0x0084cd44        0x0 ../server_bsp/\libucosii_bsp.a(alt_iniche_write.o)
 .data          0x0084cd44        0x0 ../server_bsp/\libucosii_bsp.a(ipnet.o)
 .data          0x0084cd44        0x0 ../server_bsp/\libucosii_bsp.a(ipstart.o)
 .data          0x0084cd44        0x0 ../server_bsp/\libucosii_bsp.a(igmp_cmn.o)
 .data          0x0084cd44        0x0 ../server_bsp/\libucosii_bsp.a(bsdsock.o)
 .data          0x0084cd44        0x0 ../server_bsp/\libucosii_bsp.a(cksum.o)
 .data          0x0084cd44        0x0 ../server_bsp/\libucosii_bsp.a(in_utils.o)
 .data          0x0084cd44       0x30 ../server_bsp/\libucosii_bsp.a(netmain.o)
                0x0084cd44                nettasks
 .data          0x0084cd74        0x0 ../server_bsp/\libucosii_bsp.a(parseip.o)
 .data          0x0084cd74        0x0 ../server_bsp/\libucosii_bsp.a(tk_crnos.o)
 .data          0x0084cd74        0x0 ../server_bsp/\libucosii_bsp.a(dhcpclnt.o)
 .data          0x0084cd74        0x0 ../server_bsp/\libucosii_bsp.a(dhcputil.o)
 .data          0x0084cd74        0x0 ../server_bsp/\libucosii_bsp.a(pktalloc.o)
 .data          0x0084cd74        0x0 ../server_bsp/\libucosii_bsp.a(q.o)
 .data          0x0084cd74        0x0 ../server_bsp/\libucosii_bsp.a(udp_open.o)
 .data          0x0084cd74        0x0 ../server_bsp/\libucosii_bsp.a(asm_cksum.o)
 .data          0x0084cd74        0x0 ../server_bsp/\libucosii_bsp.a(brdutils.o)
 .data          0x0084cd74        0x0 ../server_bsp/\libucosii_bsp.a(osportco.o)
 .data          0x0084cd74        0x0 ../server_bsp/\libucosii_bsp.a(targnios.o)
 .data          0x0084cd74       0x48 ../server_bsp/\libucosii_bsp.a(nptcp.o)
                0x0084cd74                tcp_protosw
                0x0084cd8c                udp_protosw
                0x0084cda4                rawip_protosw
 .data          0x0084cdbc        0x0 ../server_bsp/\libucosii_bsp.a(rawsock.o)
 .data          0x0084cdbc        0x0 ../server_bsp/\libucosii_bsp.a(sockcall.o)
 .data          0x0084cdbc        0x0 ../server_bsp/\libucosii_bsp.a(socket.o)
 .data          0x0084cdbc        0x0 ../server_bsp/\libucosii_bsp.a(socket2.o)
 .data          0x0084cdbc        0x0 ../server_bsp/\libucosii_bsp.a(soselect.o)
 .data          0x0084cdbc        0x0 ../server_bsp/\libucosii_bsp.a(tcp_in.o)
 .data          0x0084cdbc        0xc ../server_bsp/\libucosii_bsp.a(tcp_out.o)
                0x0084cdbc                tcp_outflags
 .data          0x0084cdc8        0x0 ../server_bsp/\libucosii_bsp.a(tcp_subr.o)
 .data          0x0084cdc8       0x10 ../server_bsp/\libucosii_bsp.a(tcp_timr.o)
                0x0084cdc8                tcp_backoff
 .data          0x0084cdd8        0x0 ../server_bsp/\libucosii_bsp.a(tcp_usr.o)
 .data          0x0084cdd8        0x0 ../server_bsp/\libucosii_bsp.a(tcpport.o)
 .data          0x0084cdd8        0x0 ../server_bsp/\libucosii_bsp.a(udpsock.o)
 .data          0x0084cdd8        0x0 ../server_bsp/\libucosii_bsp.a(alt_alarm_start.o)
 .data          0x0084cdd8        0x0 ../server_bsp/\libucosii_bsp.a(alt_busy_sleep.o)
 .data          0x0084cdd8        0x0 ../server_bsp/\libucosii_bsp.a(alt_close.o)
 .data          0x0084cdd8        0x0 ../server_bsp/\libucosii_bsp.a(alt_dcache_flush.o)
 .data          0x0084cdd8      0x1a8 ../server_bsp/\libucosii_bsp.a(alt_dev.o)
                0x0084cdd8                alt_dev_null
                0x0084ce00                alt_fd_list
 .data          0x0084cf80        0x0 ../server_bsp/\libucosii_bsp.a(alt_dev_llist_insert.o)
 .data          0x0084cf80        0x0 ../server_bsp/\libucosii_bsp.a(alt_do_ctors.o)
 .data          0x0084cf80        0x0 ../server_bsp/\libucosii_bsp.a(alt_do_dtors.o)
 .data          0x0084cf80        0x0 ../server_bsp/\libucosii_bsp.a(alt_errno.o)
 .data          0x0084cf80        0x0 ../server_bsp/\libucosii_bsp.a(alt_find_dev.o)
 .data          0x0084cf80        0x0 ../server_bsp/\libucosii_bsp.a(alt_iic.o)
 .data          0x0084cf80        0x0 ../server_bsp/\libucosii_bsp.a(alt_iic_isr_register.o)
 .data          0x0084cf80        0x0 ../server_bsp/\libucosii_bsp.a(alt_io_redirect.o)
 .data          0x0084cf80        0x0 ../server_bsp/\libucosii_bsp.a(alt_irq_entry.o)
 .data          0x0084cf80        0x0 ../server_bsp/\libucosii_bsp.a(alt_irq_handler.o)
 .data          0x0084cf80        0x0 ../server_bsp/\libucosii_bsp.a(alt_open.o)
 .data          0x0084cf80        0x0 ../server_bsp/\libucosii_bsp.a(alt_read.o)
 .data          0x0084cf80        0x0 ../server_bsp/\libucosii_bsp.a(alt_release_fd.o)
 .data          0x0084cf80        0x0 ../server_bsp/\libucosii_bsp.a(alt_remap_cached.o)
 .data          0x0084cf80        0x0 ../server_bsp/\libucosii_bsp.a(alt_remap_uncached.o)
 .data          0x0084cf80        0x0 ../server_bsp/\libucosii_bsp.a(alt_tick.o)
 .data          0x0084cf80        0x0 ../server_bsp/\libucosii_bsp.a(alt_write.o)
 .data          0x0084cf80        0x0 ../server_bsp/\libucosii_bsp.a(altera_nios2_qsys_irq.o)
 .data          0x0084cf80        0x0 ../server_bsp/\libucosii_bsp.a(os_cpu_a.o)
 .data          0x0084cf80        0x0 ../server_bsp/\libucosii_bsp.a(os_cpu_c.o)
 .data          0x0084cf80        0x0 ../server_bsp/\libucosii_bsp.a(altera_avalon_cfi_flash_amd.o)
 .data          0x0084cf80        0x0 ../server_bsp/\libucosii_bsp.a(altera_avalon_cfi_flash_intel.o)
 .data          0x0084cf80        0x0 ../server_bsp/\libucosii_bsp.a(altera_avalon_spi.o)
 .data          0x0084cf80       0x18 ../server_bsp/\libucosii_bsp.a(allports.o)
                0x0084cf80                icmpdu_types
 .data          0x0084cf98        0x0 ../server_bsp/\libucosii_bsp.a(timeouts.o)
 .data          0x0084cf98        0x0 ../server_bsp/\libucosii_bsp.a(tk_misc.o)
 .data          0x0084cf98        0x0 ../server_bsp/\libucosii_bsp.a(alt_iniche_fcntl.o)
 .data          0x0084cf98        0x0 ../server_bsp/\libucosii_bsp.a(et_arp.o)
 .data          0x0084cf98        0x0 ../server_bsp/\libucosii_bsp.a(iface.o)
 .data          0x0084cf98        0x0 ../server_bsp/\libucosii_bsp.a(ip.o)
 .data          0x0084cf98        0x0 ../server_bsp/\libucosii_bsp.a(ip_reasm.o)
 .data          0x0084cf98        0x0 ../server_bsp/\libucosii_bsp.a(ipdemux.o)
 .data          0x0084cf98        0x0 ../server_bsp/\libucosii_bsp.a(ipmc.o)
 .data          0x0084cf98        0x0 ../server_bsp/\libucosii_bsp.a(ipport.o)
 .data          0x0084cf98        0x0 ../server_bsp/\libucosii_bsp.a(ipraw.o)
 .data          0x0084cf98        0xc ../server_bsp/\libucosii_bsp.a(iproute.o)
                0x0084cf98                rtp_priority
 .data          0x0084cfa4        0x0 ../server_bsp/\libucosii_bsp.a(udp.o)
 .data          0x0084cfa4        0x0 ../server_bsp/\libucosii_bsp.a(igmp.o)
 .data          0x0084cfa4        0x0 ../server_bsp/\libucosii_bsp.a(igmp2.o)
 .data          0x0084cfa4        0x0 ../server_bsp/\libucosii_bsp.a(ipopt.o)
 .data          0x0084cfa4        0x0 ../server_bsp/\libucosii_bsp.a(u_mctest.o)
 .data          0x0084cfa4        0x0 ../server_bsp/\libucosii_bsp.a(dhcsetup.o)
 .data          0x0084cfa4       0xd4 ../server_bsp/\libucosii_bsp.a(memdev.o)
                0x0084cfa4                mdio
                0x0084cfc8                mdlist
 .data          0x0084d078        0x0 ../server_bsp/\libucosii_bsp.a(tcpcksum.o)
 .data          0x0084d078        0x0 ../server_bsp/\libucosii_bsp.a(in_pcb.o)
 .data          0x0084d078       0x80 ../server_bsp/\libucosii_bsp.a(vfsfiles.o)
                0x0084d078                vfs_root_path
 .data          0x0084d0f8        0x0 ../server_bsp/\libucosii_bsp.a(vfsport.o)
 .data          0x0084d0f8        0x0 ../server_bsp/\libucosii_bsp.a(alt_exception_entry.o)
 .data          0x0084d0f8        0x0 ../server_bsp/\libucosii_bsp.a(alt_fcntl.o)
 .data          0x0084d0f8        0x0 ../server_bsp/\libucosii_bsp.a(alt_find_file.o)
 .data          0x0084d0f8        0x0 ../server_bsp/\libucosii_bsp.a(alt_get_fd.o)
 .data          0x0084d0f8       0x18 ../server_bsp/\libucosii_bsp.a(icmp.o)
 .data          0x0084d110        0x0 c:/altera/13.0/nios2eds/bin/gnu/h-i686-mingw32/bin/../lib/gcc/nios2-elf/4.1.2/../../../../nios2-elf/lib\libc.a(lib_a-atexit.o)
 .data          0x0084d110        0x0 c:/altera/13.0/nios2eds/bin/gnu/h-i686-mingw32/bin/../lib/gcc/nios2-elf/4.1.2/../../../../nios2-elf/lib\libc.a(lib_a-atoi.o)
 .data          0x0084d110        0x0 c:/altera/13.0/nios2eds/bin/gnu/h-i686-mingw32/bin/../lib/gcc/nios2-elf/4.1.2/../../../../nios2-elf/lib\libc.a(lib_a-calloc.o)
 .data          0x0084d110        0x0 c:/altera/13.0/nios2eds/bin/gnu/h-i686-mingw32/bin/../lib/gcc/nios2-elf/4.1.2/../../../../nios2-elf/lib\libc.a(lib_a-malloc.o)
 .data          0x0084d110        0x0 c:/altera/13.0/nios2eds/bin/gnu/h-i686-mingw32/bin/../lib/gcc/nios2-elf/4.1.2/../../../../nios2-elf/lib\libc.a(lib_a-memcmp.o)
 .data          0x0084d110        0x0 c:/altera/13.0/nios2eds/bin/gnu/h-i686-mingw32/bin/../lib/gcc/nios2-elf/4.1.2/../../../../nios2-elf/lib\libc.a(lib_a-sprintf.o)
 .data          0x0084d110        0x0 c:/altera/13.0/nios2eds/bin/gnu/h-i686-mingw32/bin/../lib/gcc/nios2-elf/4.1.2/../../../../nios2-elf/lib\libc.a(lib_a-strcpy.o)
 .data          0x0084d110        0x0 c:/altera/13.0/nios2eds/bin/gnu/h-i686-mingw32/bin/../lib/gcc/nios2-elf/4.1.2/../../../../nios2-elf/lib\libc.a(lib_a-strncmp.o)
 .data          0x0084d110        0x0 c:/altera/13.0/nios2eds/bin/gnu/h-i686-mingw32/bin/../lib/gcc/nios2-elf/4.1.2/../../../../nios2-elf/lib\libc.a(lib_a-strncpy.o)
 .data          0x0084d110        0x0 c:/altera/13.0/nios2eds/bin/gnu/h-i686-mingw32/bin/../lib/gcc/nios2-elf/4.1.2/../../../../nios2-elf/lib\libc.a(lib_a-strtol.o)
 .data          0x0084d110        0x0 c:/altera/13.0/nios2eds/bin/gnu/h-i686-mingw32/bin/../lib/gcc/nios2-elf/4.1.2/../../../../nios2-elf/lib\libc.a(lib_a-vprintf.o)
 .data          0x0084d110        0x0 c:/altera/13.0/nios2eds/bin/gnu/h-i686-mingw32/bin/../lib/gcc/nios2-elf/4.1.2/../../../../nios2-elf/lib\libc.a(lib_a-vsprintf.o)
 .data          0x0084d110        0x0 c:/altera/13.0/nios2eds/bin/gnu/h-i686-mingw32/bin/../lib/gcc/nios2-elf/4.1.2/../../../../nios2-elf/lib\libc.a(lib_a-__atexit.o)
                0x00855110                _gp = ABSOLUTE ((. + 0x8000))
                0x00855110                PROVIDE (gp, _gp)
 *(.rwdata .rwdata.*)
 *(.sdata .sdata.* .gnu.linkonce.s.*)
 .sdata         0x0084d110        0x4 c:/altera/13.0/nios2eds/bin/gnu/h-i686-mingw32/bin/../lib/gcc/nios2-elf/4.1.2/../../../../nios2-elf/lib\libc.a(lib_a-ctype_.o)
                0x0084d110                __ctype_ptr
 .sdata         0x0084d114        0x8 c:/altera/13.0/nios2eds/bin/gnu/h-i686-mingw32/bin/../lib/gcc/nios2-elf/4.1.2/../../../../nios2-elf/lib\libc.a(lib_a-impure.o)
                0x0084d114                _impure_ptr
                0x0084d118                _global_impure_ptr
 .sdata         0x0084d11c        0x8 c:/altera/13.0/nios2eds/bin/gnu/h-i686-mingw32/bin/../lib/gcc/nios2-elf/4.1.2/../../../../nios2-elf/lib\libc.a(lib_a-locale.o)
                0x0084d11c                __mb_cur_max
 .sdata         0x0084d124        0x8 c:/altera/13.0/nios2eds/bin/gnu/h-i686-mingw32/bin/../lib/gcc/nios2-elf/4.1.2/../../../../nios2-elf/lib\libc.a(lib_a-mallocr.o)
                0x0084d124                __malloc_trim_threshold
                0x0084d128                __malloc_sbrk_base
 .sdata         0x0084d12c        0x8 ../server_bsp/\libucosii_bsp.a(alt_flash_dev.o)
                0x0084d12c                alt_flash_dev_list
 .sdata         0x0084d134        0x4 ../server_bsp/\libucosii_bsp.a(alt_irq_vars.o)
                0x0084d134                alt_priority_mask
 .sdata         0x0084d138        0x4 ../server_bsp/\libucosii_bsp.a(alt_sbrk.o)
 .sdata         0x0084d13c        0x4 ../server_bsp/\libucosii_bsp.a(alt_env_lock.o)
 .sdata         0x0084d140        0x4 ../server_bsp/\libucosii_bsp.a(alt_malloc_lock.o)
 .sdata         0x0084d144       0x74 ../server_bsp/\libucosii_bsp.a(os_dbg.o)
                0x0084d144                OSDebugEn
                0x0084d148                OSEndiannessTest
                0x0084d14c                OSEventEn
                0x0084d14e                OSEventMax
                0x0084d150                OSEventNameSize
                0x0084d152                OSEventSize
                0x0084d154                OSEventTblSize
                0x0084d156                OSEventMultiEn
                0x0084d158                OSFlagEn
                0x0084d15a                OSFlagGrpSize
                0x0084d15c                OSFlagNodeSize
                0x0084d15e                OSFlagWidth
                0x0084d160                OSFlagMax
                0x0084d162                OSFlagNameSize
                0x0084d164                OSLowestPrio
                0x0084d166                OSMboxEn
                0x0084d168                OSMemEn
                0x0084d16a                OSMemMax
                0x0084d16c                OSMemNameSize
                0x0084d16e                OSMemSize
                0x0084d170                OSMemTblSize
                0x0084d172                OSMutexEn
                0x0084d174                OSPtrSize
                0x0084d176                OSQEn
                0x0084d178                OSQMax
                0x0084d17a                OSQSize
                0x0084d17c                OSRdyTblSize
                0x0084d17e                OSSemEn
                0x0084d180                OSStkWidth
                0x0084d182                OSTaskCreateEn
                0x0084d184                OSTaskCreateExtEn
                0x0084d186                OSTaskDelEn
                0x0084d188                OSTaskIdleStkSize
                0x0084d18a                OSTaskProfileEn
                0x0084d18c                OSTaskMax
                0x0084d18e                OSTaskNameSize
                0x0084d190                OSTaskStatEn
                0x0084d192                OSTaskStatStkSize
                0x0084d194                OSTaskStatStkChkEn
                0x0084d196                OSTaskSwHookEn
                0x0084d198                OSTCBPrioTblMax
                0x0084d19a                OSTCBSize
                0x0084d19c                OSTicksPerSec
                0x0084d19e                OSTimeTickHookEn
                0x0084d1a0                OSVersionNbr
                0x0084d1a2                OSTmrEn
                0x0084d1a4                OSTmrCfgMax
                0x0084d1a6                OSTmrCfgNameSize
                0x0084d1a8                OSTmrCfgWheelSize
                0x0084d1aa                OSTmrCfgTicksPerSec
                0x0084d1ac                OSTmrSize
                0x0084d1ae                OSTmrTblSize
                0x0084d1b0                OSTmrWheelSize
                0x0084d1b2                OSTmrWheelTblSize
                0x0084d1b4                OSDataSize
 .sdata         0x0084d1b8        0x4 ../server_bsp/\libucosii_bsp.a(altera_avalon_lcd_16207.o)
 .sdata         0x0084d1bc        0x8 ../server_bsp/\libucosii_bsp.a(alt_iniche_dev.o)
                0x0084d1bc                alt_iniche_dev_list
 .sdata         0x0084d1c4        0x4 ../server_bsp/\libucosii_bsp.a(ipstart.o)
                0x0084d1c4                ipmcfail_str
 .sdata         0x0084d1c8        0x4 ../server_bsp/\libucosii_bsp.a(cksum.o)
 .sdata         0x0084d1cc        0x4 ../server_bsp/\libucosii_bsp.a(netmain.o)
                0x0084d1cc                num_net_tasks
 .sdata         0x0084d1d0        0x4 ../server_bsp/\libucosii_bsp.a(parseip.o)
                0x0084d1d0                pton_error
 .sdata         0x0084d1d4        0xc ../server_bsp/\libucosii_bsp.a(dhcpclnt.o)
                0x0084d1d4                xids
                0x0084d1d8                reqlist
                0x0084d1dc                reqlist_len
 .sdata         0x0084d1e0       0x10 ../server_bsp/\libucosii_bsp.a(pktalloc.o)
                0x0084d1e0                lilbufs
                0x0084d1e4                lilbufsiz
                0x0084d1e8                bigbufs
                0x0084d1ec                bigbufsiz
 .sdata         0x0084d1f0        0x4 ../server_bsp/\libucosii_bsp.a(brdutils.o)
                0x0084d1f0                kb_last
 .sdata         0x0084d1f4        0x4 ../server_bsp/\libucosii_bsp.a(nptcp.o)
                0x0084d1f4                TCPTV_MSL
 .sdata         0x0084d1f8        0x2 ../server_bsp/\libucosii_bsp.a(socket.o)
                0x0084d1f8                socket_defaults
 .sdata         0x0084d1fa        0x1 ../server_bsp/\libucosii_bsp.a(tcp_in.o)
                0x0084d1fa                tcprexmtthresh
 *fill*         0x0084d1fb        0x1 00
 .sdata         0x0084d1fc        0x4 ../server_bsp/\libucosii_bsp.a(tcp_subr.o)
                0x0084d1fc                tcp_ttl
 .sdata         0x0084d200        0x8 ../server_bsp/\libucosii_bsp.a(tcp_timr.o)
                0x0084d200                tcp_keepidle
                0x0084d204                tcp_keepintvl
 .sdata         0x0084d208        0x8 ../server_bsp/\libucosii_bsp.a(tcp_usr.o)
                0x0084d208                tcp_sendspace
                0x0084d20c                tcp_recvspace
 .sdata         0x0084d210       0x14 ../server_bsp/\libucosii_bsp.a(alt_dev.o)
                0x0084d210                alt_fs_list
                0x0084d218                alt_dev_list
                0x0084d220                alt_max_fd
 .sdata         0x0084d224        0x4 ../server_bsp/\libucosii_bsp.a(alt_errno.o)
                0x0084d224                alt_errno
 .sdata         0x0084d228        0x8 ../server_bsp/\libucosii_bsp.a(alt_tick.o)
                0x0084d228                alt_alarm_list
 .sdata         0x0084d230       0x10 ../server_bsp/\libucosii_bsp.a(allports.o)
                0x0084d230                name
                0x0084d234                prompt
                0x0084d238                pingdelay
                0x0084d23c                deflength
 .sdata         0x0084d240        0x4 ../server_bsp/\libucosii_bsp.a(et_arp.o)
                0x0084d240                arp_ageout
 .sdata         0x0084d244        0x8 ../server_bsp/\libucosii_bsp.a(ip.o)
                0x0084d248                ipRoutes
 .sdata         0x0084d24c        0x4 ../server_bsp/\libucosii_bsp.a(u_mctest.o)
 .sdata         0x0084d250        0x4 ../server_bsp/\libucosii_bsp.a(memdev.o)
                0x0084d250                mdlist_size
 .sdata         0x0084d254        0x4 ../server_bsp/\libucosii_bsp.a(vfsfiles.o)
                0x0084d254                http_root_path
 *(.sdata2 .sdata2.* .gnu.linkonce.s2.*)
                0x0084d258                . = ALIGN (0x4)
                0x0084d258                _edata = ABSOLUTE (.)
                0x0084d258                PROVIDE (edata, ABSOLUTE (.))
                0x0084d258                PROVIDE (__ram_rwdata_end, ABSOLUTE (.))
                0x0084b118                PROVIDE (__flash_rwdata_start, LOADADDR (.rwdata))

.bss            0x0084d258     0xaa2c
                0x0084d258                __bss_start = ABSOLUTE (.)
                0x0084d258                PROVIDE (__sbss_start, ABSOLUTE (.))
                0x0084d258                PROVIDE (___sbss_start, ABSOLUTE (.))
 *(.dynsbss)
 *(.sbss .sbss.* .gnu.linkonce.sb.*)
 .sbss          0x0084d258        0x8 obj/default/SSS_DE2_115.o
                0x0084d258                last_flash_sector_offset
                0x0084d25c                last_flash_sector
 .sbss          0x0084d260        0x8 obj/default/dm9000a.o
                0x0084d260                autoReset
                0x0084d264                netisrs
 .sbss          0x0084d268        0x1 obj/default/iniche_init.o
                0x0084d268                to_ssstask
 *fill*         0x0084d269        0x3 00
 .sbss          0x0084d26c       0x10 obj/default/simple_socket_server.o
                0x0084d270                SSSLEDCommandQ
                0x0084d274                SSSLEDLightshowSem
                0x0084d278                SSSLEDEventFlag
 .sbss          0x0084d27c        0xc c:/altera/13.0/nios2eds/bin/gnu/h-i686-mingw32/bin/../lib/gcc/nios2-elf/4.1.2/../../../../nios2-elf/lib\libc.a(lib_a-locale.o)
                0x0084d27c                __nlocale_changed
                0x0084d280                __mlocale_changed
                0x0084d284                _PathLocale
 .sbss          0x0084d288        0xc c:/altera/13.0/nios2eds/bin/gnu/h-i686-mingw32/bin/../lib/gcc/nios2-elf/4.1.2/../../../../nios2-elf/lib\libc.a(lib_a-mallocr.o)
                0x0084d288                __malloc_top_pad
                0x0084d28c                __malloc_max_sbrked_mem
                0x0084d290                __malloc_max_total_mem
 .sbss          0x0084d294        0x4 c:/altera/13.0/nios2eds/bin/gnu/h-i686-mingw32/bin/../lib/gcc/nios2-elf/4.1.2/../../../../nios2-elf/lib\libc.a(lib_a-int_errno.o)
                0x0084d294                errno
 .sbss          0x0084d298        0x4 ../server_bsp/\libucosii_bsp.a(alt_irq_vars.o)
                0x0084d298                alt_irq_active
 .sbss          0x0084d29c        0xc ../server_bsp/\libucosii_bsp.a(alt_main.o)
                0x0084d29c                alt_argc
                0x0084d2a0                alt_argv
                0x0084d2a4                alt_envp
 .sbss          0x0084d2a8        0x8 ../server_bsp/\libucosii_bsp.a(alt_env_lock.o)
                0x0084d2ac                alt_envsem
 .sbss          0x0084d2b0        0x8 ../server_bsp/\libucosii_bsp.a(alt_malloc_lock.o)
                0x0084d2b4                alt_heapsem
 .sbss          0x0084d2b8       0x54 ../server_bsp/\libucosii_bsp.a(os_core.o)
                0x0084d2b8                OSLockNesting
                0x0084d2b9                OSRunning
                0x0084d2bc                OSIdleCtr
                0x0084d2c0                OSPrioHighRdy
                0x0084d2c1                OSPrioCur
                0x0084d2c4                OSTCBList
                0x0084d2c8                OSTickStepState
                0x0084d2cc                OSCtxSwCtr
                0x0084d2d0                OSIdleCtrMax
                0x0084d2d4                OSTCBFreeList
                0x0084d2d8                OSCPUUsage
                0x0084d2d9                OSTaskCtr
                0x0084d2dc                OSMemFreeList
                0x0084d2e0                OSTCBHighRdy
                0x0084d2e4                OSQFreeList
                0x0084d2e8                OSRdyGrp
                0x0084d2ec                OSRdyTbl
                0x0084d2f0                OSEventFreeList
                0x0084d2f4                OSIntNesting
                0x0084d2f8                OSTCBCur
                0x0084d2fc                OSTime
                0x0084d300                OSFlagFreeList
                0x0084d304                OSStatRdy
                0x0084d308                OSIdleCtrRun
 .sbss          0x0084d30c        0xc ../server_bsp/\libucosii_bsp.a(ipnet.o)
                0x0084d30c                MaxLnh
                0x0084d310                MaxMtu
                0x0084d314                NDEBUG
 .sbss          0x0084d318        0x8 ../server_bsp/\libucosii_bsp.a(ipstart.o)
                0x0084d318                ifNumber
 .sbss          0x0084d320       0x10 ../server_bsp/\libucosii_bsp.a(igmp_cmn.o)
                0x0084d320                igmp_timers_are_running
                0x0084d324                igmp_cticks
                0x0084d328                igmp_all_hosts_group
                0x0084d32c                igmp_all_rtrs_group
 .sbss          0x0084d330        0xe ../server_bsp/\libucosii_bsp.a(netmain.o)
                0x0084d330                netmain_wakes
                0x0084d334                nettick_wakes
                0x0084d338                iniche_net_ready
                0x0084d33c                to_netmain
                0x0084d33d                to_nettick
 *fill*         0x0084d33e        0x2 00
 .sbss          0x0084d340        0x4 ../server_bsp/\libucosii_bsp.a(tk_crnos.o)
                0x0084d340                tcp_sleep_timeout
 .sbss          0x0084d344       0x34 ../server_bsp/\libucosii_bsp.a(dhcpclnt.o)
                0x0084d344                dhc_conn
                0x0084d348                dsc_errors
                0x0084d34c                dsc_discovers
                0x0084d350                dsc_offers
                0x0084d354                dsc_requests
                0x0084d358                dsc_acks
                0x0084d35c                dsc_bpreplys
                0x0084d360                dsc_declines
                0x0084d364                dsc_releases
                0x0084d368                dsc_naks
                0x0084d36c                dsc_renew
                0x0084d370                dsc_rebind
                0x0084d374                dsc_rlyerrs
 .sbss          0x0084d378        0x4 ../server_bsp/\libucosii_bsp.a(udp_open.o)
                0x0084d378                firstudp
 .sbss          0x0084d37c       0x18 ../server_bsp/\libucosii_bsp.a(brdutils.o)
                0x0084d380                cticks_initialized
                0x0084d384                irq_level
                0x0084d38c                cticks_factor
                0x0084d390                OS_TPS
 .sbss          0x0084d394       0x18 ../server_bsp/\libucosii_bsp.a(osportco.o)
                0x0084d394                tcp_sleep_count
                0x0084d398                tcp_wakeup_count
                0x0084d39c                netq_intmask
                0x0084d3a0                old_mode
                0x0084d3a4                global_TCPwakeup_setIndx
                0x0084d3a8                cticks
 .sbss          0x0084d3ac        0xc ../server_bsp/\libucosii_bsp.a(targnios.o)
                0x0084d3ac                memtrapsize
                0x0084d3b0                mheap_sem_ptr
                0x0084d3b4                rcvdq_sem_ptr
 .sbss          0x0084d3b8       0x12 ../server_bsp/\libucosii_bsp.a(nptcp.o)
                0x0084d3b8                nextslow
                0x0084d3c0                mbstat
                0x0084d3c8                select_wait
 *fill*         0x0084d3ca        0x2 00
 .sbss          0x0084d3cc        0x8 ../server_bsp/\libucosii_bsp.a(tcp_in.o)
                0x0084d3cc                tcpprintfs
                0x0084d3d0                dropline
 .sbss          0x0084d3d4        0x4 ../server_bsp/\libucosii_bsp.a(tcp_out.o)
                0x0084d3d4                tcp_optionbuf
 .sbss          0x0084d3d8        0x8 ../server_bsp/\libucosii_bsp.a(tcp_timr.o)
                0x0084d3d8                tcp_maxidle
                0x0084d3dc                tcp_iss
 .sbss          0x0084d3e0        0x4 ../server_bsp/\libucosii_bsp.a(alt_dev.o)
                0x0084d3e0                alt_fd_list_lock
 .sbss          0x0084d3e4        0x8 ../server_bsp/\libucosii_bsp.a(alt_tick.o)
                0x0084d3e4                _alt_tick_rate
                0x0084d3e8                _alt_nticks
 .sbss          0x0084d3ec        0x8 ../server_bsp/\libucosii_bsp.a(allports.o)
                0x0084d3ec                activehost
 .sbss          0x0084d3f4        0xc ../server_bsp/\libucosii_bsp.a(timeouts.o)
                0x0084d3f4                nextppp
                0x0084d3f8                port_1s_callout
 .sbss          0x0084d400       0x1c ../server_bsp/\libucosii_bsp.a(et_arp.o)
                0x0084d404                arpcache
                0x0084d408                arpReqsIn
                0x0084d40c                arpReqsOut
                0x0084d410                arpRepsIn
                0x0084d414                arpRepsOut
 .sbss          0x0084d41c        0x4 ../server_bsp/\libucosii_bsp.a(ip.o)
                0x0084d41c                rt_mib
 .sbss          0x0084d420        0xc ../server_bsp/\libucosii_bsp.a(ip_reasm.o)
                0x0084d420                ipr_curr_mem
                0x0084d424                h_ireq
                0x0084d428                ire_cticks
 .sbss          0x0084d42c       0x11 ../server_bsp/\libucosii_bsp.a(ipport.o)
                0x0084d42c                port_prep
                0x0084d430                net_system_exit
                0x0084d434                so_evtmap_create
                0x0084d438                so_evtmap_delete
                0x0084d43c                so_evtmap
 *fill*         0x0084d43d        0x3 00
 .sbss          0x0084d440        0x4 ../server_bsp/\libucosii_bsp.a(ipraw.o)
                0x0084d440                ipraw_eps
 .sbss          0x0084d444        0x4 ../server_bsp/\libucosii_bsp.a(iproute.o)
                0x0084d444                cachedRoute
 .sbss          0x0084d448        0x2 ../server_bsp/\libucosii_bsp.a(udp.o)
 *fill*         0x0084d44a        0x2 00
 .sbss          0x0084d44c        0x8 ../server_bsp/\libucosii_bsp.a(in_pcb.o)
                0x0084d44c                inpcb_cachehits
                0x0084d450                inpcb_cachemiss
 .sbss          0x0084d454       0x20 ../server_bsp/\libucosii_bsp.a(vfsfiles.o)
                0x0084d454                vfsystems
                0x0084d458                vfiles
                0x0084d45c                vfsfiles
                0x0084d460                vfopen_error
                0x0084d464                vfs_dir_stale
                0x0084d468                vfs_open_files
                0x0084d46c                vfs_total_rw_space
                0x0084d470                vfs_total_dyna_files
 .sbss          0x0084d474        0x4 ../server_bsp/\libucosii_bsp.a(icmp.o)
                0x0084d474                icmpdu_hook
 *(.sbss2 .sbss2.* .gnu.linkonce.sb2.*)
 *(.scommon)
                0x0084d478                PROVIDE (__sbss_end, ABSOLUTE (.))
                0x0084d478                PROVIDE (___sbss_end, ABSOLUTE (.))
 *(.dynbss)
 *(.bss .bss.* .gnu.linkonce.b.*)
 .bss           0x0084d478        0x0 ../server_bsp//obj/HAL/src/crt0.o
 .bss           0x0084d478        0x0 obj/default/LCD.o
 .bss           0x0084d478        0x0 obj/default/SSS_DE2_115.o
 .bss           0x0084d478        0x0 obj/default/alt_error_handler.o
 .bss           0x0084d478        0x0 obj/default/dm9000a.o
 .bss           0x0084d478        0x0 obj/default/iniche_init.o
 .bss           0x0084d478        0x0 obj/default/led.o
 .bss           0x0084d478        0x0 obj/default/network_utilities.o
 .bss           0x0084d478      0x5f0 obj/default/simple_socket_server.o
 .bss           0x0084da68        0x0 obj/default/tse_my_system.o
 .bss           0x0084da68        0x0 c:/altera/13.0/nios2eds/bin/gnu/h-i686-mingw32/bin/../lib/gcc/nios2-elf/4.1.2\libgcc.a(_fixunsdfsi.o)
 .bss           0x0084da68        0x0 c:/altera/13.0/nios2eds/bin/gnu/h-i686-mingw32/bin/../lib/gcc/nios2-elf/4.1.2\libgcc.a(_addsub_df.o)
 .bss           0x0084da68        0x0 c:/altera/13.0/nios2eds/bin/gnu/h-i686-mingw32/bin/../lib/gcc/nios2-elf/4.1.2\libgcc.a(_mul_df.o)
 .bss           0x0084da68        0x0 c:/altera/13.0/nios2eds/bin/gnu/h-i686-mingw32/bin/../lib/gcc/nios2-elf/4.1.2\libgcc.a(_ge_df.o)
 .bss           0x0084da68        0x0 c:/altera/13.0/nios2eds/bin/gnu/h-i686-mingw32/bin/../lib/gcc/nios2-elf/4.1.2\libgcc.a(_df_to_si.o)
 .bss           0x0084da68        0x0 c:/altera/13.0/nios2eds/bin/gnu/h-i686-mingw32/bin/../lib/gcc/nios2-elf/4.1.2\libgcc.a(_thenan_df.o)
 .bss           0x0084da68        0x0 c:/altera/13.0/nios2eds/bin/gnu/h-i686-mingw32/bin/../lib/gcc/nios2-elf/4.1.2\libgcc.a(_usi_to_df.o)
 .bss           0x0084da68        0x0 c:/altera/13.0/nios2eds/bin/gnu/h-i686-mingw32/bin/../lib/gcc/nios2-elf/4.1.2\libgcc.a(_muldi3.o)
 .bss           0x0084da68        0x0 c:/altera/13.0/nios2eds/bin/gnu/h-i686-mingw32/bin/../lib/gcc/nios2-elf/4.1.2\libgcc.a(_clzsi2.o)
 .bss           0x0084da68        0x0 c:/altera/13.0/nios2eds/bin/gnu/h-i686-mingw32/bin/../lib/gcc/nios2-elf/4.1.2\libgcc.a(_pack_df.o)
 .bss           0x0084da68        0x0 c:/altera/13.0/nios2eds/bin/gnu/h-i686-mingw32/bin/../lib/gcc/nios2-elf/4.1.2\libgcc.a(_unpack_df.o)
 .bss           0x0084da68        0x0 c:/altera/13.0/nios2eds/bin/gnu/h-i686-mingw32/bin/../lib/gcc/nios2-elf/4.1.2\libgcc.a(_fpcmp_parts_df.o)
 .bss           0x0084da68        0x0 c:/altera/13.0/nios2eds/bin/gnu/h-i686-mingw32/bin/../lib/gcc/nios2-elf/4.1.2\libgcc.a(_clz.o)
 .bss           0x0084da68        0x0 c:/altera/13.0/nios2eds/bin/gnu/h-i686-mingw32/bin/../lib/gcc/nios2-elf/4.1.2/../../../../nios2-elf/lib\libc.a(lib_a-ctype_.o)
 .bss           0x0084da68        0x0 c:/altera/13.0/nios2eds/bin/gnu/h-i686-mingw32/bin/../lib/gcc/nios2-elf/4.1.2/../../../../nios2-elf/lib\libc.a(lib_a-exit.o)
 .bss           0x0084da68        0x0 c:/altera/13.0/nios2eds/bin/gnu/h-i686-mingw32/bin/../lib/gcc/nios2-elf/4.1.2/../../../../nios2-elf/lib\libc.a(lib_a-fprintf.o)
 .bss           0x0084da68        0x0 c:/altera/13.0/nios2eds/bin/gnu/h-i686-mingw32/bin/../lib/gcc/nios2-elf/4.1.2/../../../../nios2-elf/lib\libc.a(lib_a-fwrite.o)
 .bss           0x0084da68        0x0 c:/altera/13.0/nios2eds/bin/gnu/h-i686-mingw32/bin/../lib/gcc/nios2-elf/4.1.2/../../../../nios2-elf/lib\libc.a(lib_a-getc.o)
 .bss           0x0084da68        0x0 c:/altera/13.0/nios2eds/bin/gnu/h-i686-mingw32/bin/../lib/gcc/nios2-elf/4.1.2/../../../../nios2-elf/lib\libc.a(lib_a-impure.o)
 .bss           0x0084da68        0x0 c:/altera/13.0/nios2eds/bin/gnu/h-i686-mingw32/bin/../lib/gcc/nios2-elf/4.1.2/../../../../nios2-elf/lib\libc.a(lib_a-memcpy.o)
 .bss           0x0084da68        0x0 c:/altera/13.0/nios2eds/bin/gnu/h-i686-mingw32/bin/../lib/gcc/nios2-elf/4.1.2/../../../../nios2-elf/lib\libc.a(lib_a-memmove.o)
 .bss           0x0084da68        0x0 c:/altera/13.0/nios2eds/bin/gnu/h-i686-mingw32/bin/../lib/gcc/nios2-elf/4.1.2/../../../../nios2-elf/lib\libc.a(lib_a-memset.o)
 .bss           0x0084da68        0x0 c:/altera/13.0/nios2eds/bin/gnu/h-i686-mingw32/bin/../lib/gcc/nios2-elf/4.1.2/../../../../nios2-elf/lib\libc.a(lib_a-perror.o)
 .bss           0x0084da68        0x0 c:/altera/13.0/nios2eds/bin/gnu/h-i686-mingw32/bin/../lib/gcc/nios2-elf/4.1.2/../../../../nios2-elf/lib\libc.a(lib_a-printf.o)
 .bss           0x0084da68        0x0 c:/altera/13.0/nios2eds/bin/gnu/h-i686-mingw32/bin/../lib/gcc/nios2-elf/4.1.2/../../../../nios2-elf/lib\libc.a(lib_a-putc.o)
 .bss           0x0084da68        0x0 c:/altera/13.0/nios2eds/bin/gnu/h-i686-mingw32/bin/../lib/gcc/nios2-elf/4.1.2/../../../../nios2-elf/lib\libc.a(lib_a-putchar.o)
 .bss           0x0084da68        0x0 c:/altera/13.0/nios2eds/bin/gnu/h-i686-mingw32/bin/../lib/gcc/nios2-elf/4.1.2/../../../../nios2-elf/lib\libc.a(lib_a-puts.o)
 .bss           0x0084da68        0x0 c:/altera/13.0/nios2eds/bin/gnu/h-i686-mingw32/bin/../lib/gcc/nios2-elf/4.1.2/../../../../nios2-elf/lib\libc.a(lib_a-rget.o)
 .bss           0x0084da68        0x0 c:/altera/13.0/nios2eds/bin/gnu/h-i686-mingw32/bin/../lib/gcc/nios2-elf/4.1.2/../../../../nios2-elf/lib\libc.a(lib_a-strchr.o)
 .bss           0x0084da68        0x0 c:/altera/13.0/nios2eds/bin/gnu/h-i686-mingw32/bin/../lib/gcc/nios2-elf/4.1.2/../../../../nios2-elf/lib\libc.a(lib_a-strerror.o)
 .bss           0x0084da68        0x0 c:/altera/13.0/nios2eds/bin/gnu/h-i686-mingw32/bin/../lib/gcc/nios2-elf/4.1.2/../../../../nios2-elf/lib\libc.a(lib_a-strlen.o)
 .bss           0x0084da68        0x0 c:/altera/13.0/nios2eds/bin/gnu/h-i686-mingw32/bin/../lib/gcc/nios2-elf/4.1.2/../../../../nios2-elf/lib\libc.a(lib_a-u_strerr.o)
 .bss           0x0084da68        0x0 c:/altera/13.0/nios2eds/bin/gnu/h-i686-mingw32/bin/../lib/gcc/nios2-elf/4.1.2/../../../../nios2-elf/lib\libc.a(lib_a-vfprintf.o)
 .bss           0x0084da68        0x0 c:/altera/13.0/nios2eds/bin/gnu/h-i686-mingw32/bin/../lib/gcc/nios2-elf/4.1.2/../../../../nios2-elf/lib\libc.a(lib_a-wbuf.o)
 .bss           0x0084da68        0x0 c:/altera/13.0/nios2eds/bin/gnu/h-i686-mingw32/bin/../lib/gcc/nios2-elf/4.1.2/../../../../nios2-elf/lib\libc.a(lib_a-wsetup.o)
 .bss           0x0084da68        0x0 c:/altera/13.0/nios2eds/bin/gnu/h-i686-mingw32/bin/../lib/gcc/nios2-elf/4.1.2/../../../../nios2-elf/lib\libc.a(lib_a-__call_atexit.o)
 .bss           0x0084da68        0x0 c:/altera/13.0/nios2eds/bin/gnu/h-i686-mingw32/bin/../lib/gcc/nios2-elf/4.1.2/../../../../nios2-elf/lib\libc.a(lib_a-dtoa.o)
 .bss           0x0084da68        0x0 c:/altera/13.0/nios2eds/bin/gnu/h-i686-mingw32/bin/../lib/gcc/nios2-elf/4.1.2/../../../../nios2-elf/lib\libc.a(lib_a-fflush.o)
 .bss           0x0084da68        0x0 c:/altera/13.0/nios2eds/bin/gnu/h-i686-mingw32/bin/../lib/gcc/nios2-elf/4.1.2/../../../../nios2-elf/lib\libc.a(lib_a-findfp.o)
 .bss           0x0084da68        0x0 c:/altera/13.0/nios2eds/bin/gnu/h-i686-mingw32/bin/../lib/gcc/nios2-elf/4.1.2/../../../../nios2-elf/lib\libc.a(lib_a-fputc.o)
 .bss           0x0084da68        0x0 c:/altera/13.0/nios2eds/bin/gnu/h-i686-mingw32/bin/../lib/gcc/nios2-elf/4.1.2/../../../../nios2-elf/lib\libc.a(lib_a-fputs.o)
 .bss           0x0084da68        0x0 c:/altera/13.0/nios2eds/bin/gnu/h-i686-mingw32/bin/../lib/gcc/nios2-elf/4.1.2/../../../../nios2-elf/lib\libc.a(lib_a-freer.o)
 .bss           0x0084da68        0x0 c:/altera/13.0/nios2eds/bin/gnu/h-i686-mingw32/bin/../lib/gcc/nios2-elf/4.1.2/../../../../nios2-elf/lib\libc.a(lib_a-fvwrite.o)
 .bss           0x0084da68        0x0 c:/altera/13.0/nios2eds/bin/gnu/h-i686-mingw32/bin/../lib/gcc/nios2-elf/4.1.2/../../../../nios2-elf/lib\libc.a(lib_a-fwalk.o)
 .bss           0x0084da68        0x0 c:/altera/13.0/nios2eds/bin/gnu/h-i686-mingw32/bin/../lib/gcc/nios2-elf/4.1.2/../../../../nios2-elf/lib\libc.a(lib_a-locale.o)
 .bss           0x0084da68        0x0 c:/altera/13.0/nios2eds/bin/gnu/h-i686-mingw32/bin/../lib/gcc/nios2-elf/4.1.2/../../../../nios2-elf/lib\libc.a(lib_a-makebuf.o)
 .bss           0x0084da68       0x28 c:/altera/13.0/nios2eds/bin/gnu/h-i686-mingw32/bin/../lib/gcc/nios2-elf/4.1.2/../../../../nios2-elf/lib\libc.a(lib_a-mallocr.o)
                0x0084da68                __malloc_current_mallinfo
 .bss           0x0084da90        0x0 c:/altera/13.0/nios2eds/bin/gnu/h-i686-mingw32/bin/../lib/gcc/nios2-elf/4.1.2/../../../../nios2-elf/lib\libc.a(lib_a-memchr.o)
 .bss           0x0084da90        0x0 c:/altera/13.0/nios2eds/bin/gnu/h-i686-mingw32/bin/../lib/gcc/nios2-elf/4.1.2/../../../../nios2-elf/lib\libc.a(lib_a-mprec.o)
 .bss           0x0084da90        0x0 c:/altera/13.0/nios2eds/bin/gnu/h-i686-mingw32/bin/../lib/gcc/nios2-elf/4.1.2/../../../../nios2-elf/lib\libc.a(lib_a-reallocr.o)
 .bss           0x0084da90        0x0 c:/altera/13.0/nios2eds/bin/gnu/h-i686-mingw32/bin/../lib/gcc/nios2-elf/4.1.2/../../../../nios2-elf/lib\libc.a(lib_a-refill.o)
 .bss           0x0084da90        0x0 c:/altera/13.0/nios2eds/bin/gnu/h-i686-mingw32/bin/../lib/gcc/nios2-elf/4.1.2/../../../../nios2-elf/lib\libc.a(lib_a-s_isinfd.o)
 .bss           0x0084da90        0x0 c:/altera/13.0/nios2eds/bin/gnu/h-i686-mingw32/bin/../lib/gcc/nios2-elf/4.1.2/../../../../nios2-elf/lib\libc.a(lib_a-s_isnand.o)
 .bss           0x0084da90        0x0 c:/altera/13.0/nios2eds/bin/gnu/h-i686-mingw32/bin/../lib/gcc/nios2-elf/4.1.2/../../../../nios2-elf/lib\libc.a(lib_a-sbrkr.o)
 .bss           0x0084da90        0x0 c:/altera/13.0/nios2eds/bin/gnu/h-i686-mingw32/bin/../lib/gcc/nios2-elf/4.1.2/../../../../nios2-elf/lib\libc.a(lib_a-stdio.o)
 .bss           0x0084da90        0x0 c:/altera/13.0/nios2eds/bin/gnu/h-i686-mingw32/bin/../lib/gcc/nios2-elf/4.1.2/../../../../nios2-elf/lib\libc.a(lib_a-strcmp.o)
 .bss           0x0084da90        0x0 c:/altera/13.0/nios2eds/bin/gnu/h-i686-mingw32/bin/../lib/gcc/nios2-elf/4.1.2/../../../../nios2-elf/lib\libc.a(lib_a-writer.o)
 .bss           0x0084da90        0x0 c:/altera/13.0/nios2eds/bin/gnu/h-i686-mingw32/bin/../lib/gcc/nios2-elf/4.1.2/../../../../nios2-elf/lib\libc.a(lib_a-callocr.o)
 .bss           0x0084da90        0x0 c:/altera/13.0/nios2eds/bin/gnu/h-i686-mingw32/bin/../lib/gcc/nios2-elf/4.1.2/../../../../nios2-elf/lib\libc.a(lib_a-closer.o)
 .bss           0x0084da90        0x0 c:/altera/13.0/nios2eds/bin/gnu/h-i686-mingw32/bin/../lib/gcc/nios2-elf/4.1.2/../../../../nios2-elf/lib\libc.a(lib_a-fclose.o)
 .bss           0x0084da90        0x0 c:/altera/13.0/nios2eds/bin/gnu/h-i686-mingw32/bin/../lib/gcc/nios2-elf/4.1.2/../../../../nios2-elf/lib\libc.a(lib_a-fstatr.o)
 .bss           0x0084da90        0x0 c:/altera/13.0/nios2eds/bin/gnu/h-i686-mingw32/bin/../lib/gcc/nios2-elf/4.1.2/../../../../nios2-elf/lib\libc.a(lib_a-int_errno.o)
 .bss           0x0084da90        0x0 c:/altera/13.0/nios2eds/bin/gnu/h-i686-mingw32/bin/../lib/gcc/nios2-elf/4.1.2/../../../../nios2-elf/lib\libc.a(lib_a-isattyr.o)
 .bss           0x0084da90        0x0 c:/altera/13.0/nios2eds/bin/gnu/h-i686-mingw32/bin/../lib/gcc/nios2-elf/4.1.2/../../../../nios2-elf/lib\libc.a(lib_a-lseekr.o)
 .bss           0x0084da90        0x0 c:/altera/13.0/nios2eds/bin/gnu/h-i686-mingw32/bin/../lib/gcc/nios2-elf/4.1.2/../../../../nios2-elf/lib\libc.a(lib_a-readr.o)
 .bss           0x0084da90        0x0 c:/altera/13.0/nios2eds/bin/gnu/h-i686-mingw32/bin/../lib/gcc/nios2-elf/4.1.2\libgcc.a(_udivdi3.o)
 .bss           0x0084da90        0x0 c:/altera/13.0/nios2eds/bin/gnu/h-i686-mingw32/bin/../lib/gcc/nios2-elf/4.1.2\libgcc.a(_umoddi3.o)
 .bss           0x0084da90        0x0 c:/altera/13.0/nios2eds/bin/gnu/h-i686-mingw32/bin/../lib/gcc/nios2-elf/4.1.2\libgcc.a(_div_df.o)
 .bss           0x0084da90        0x0 c:/altera/13.0/nios2eds/bin/gnu/h-i686-mingw32/bin/../lib/gcc/nios2-elf/4.1.2\libgcc.a(_eq_df.o)
 .bss           0x0084da90        0x0 c:/altera/13.0/nios2eds/bin/gnu/h-i686-mingw32/bin/../lib/gcc/nios2-elf/4.1.2\libgcc.a(_ne_df.o)
 .bss           0x0084da90        0x0 c:/altera/13.0/nios2eds/bin/gnu/h-i686-mingw32/bin/../lib/gcc/nios2-elf/4.1.2\libgcc.a(_gt_df.o)
 .bss           0x0084da90        0x0 c:/altera/13.0/nios2eds/bin/gnu/h-i686-mingw32/bin/../lib/gcc/nios2-elf/4.1.2\libgcc.a(_lt_df.o)
 .bss           0x0084da90        0x0 c:/altera/13.0/nios2eds/bin/gnu/h-i686-mingw32/bin/../lib/gcc/nios2-elf/4.1.2\libgcc.a(_si_to_df.o)
 .bss           0x0084da90        0x0 c:/altera/13.0/nios2eds/bin/gnu/h-i686-mingw32/bin/../lib/gcc/nios2-elf/4.1.2\libgcc.a(lib2-divmod.o)
 .bss           0x0084da90        0x0 ../server_bsp/\libucosii_bsp.a(alt_exit.o)
 .bss           0x0084da90        0x0 ../server_bsp/\libucosii_bsp.a(alt_flash_dev.o)
 .bss           0x0084da90        0x0 ../server_bsp/\libucosii_bsp.a(alt_fstat.o)
 .bss           0x0084da90        0x0 ../server_bsp/\libucosii_bsp.a(alt_irq_register.o)
 .bss           0x0084da90        0x0 ../server_bsp/\libucosii_bsp.a(alt_irq_vars.o)
 .bss           0x0084da90        0x0 ../server_bsp/\libucosii_bsp.a(alt_isatty.o)
 .bss           0x0084da90        0x0 ../server_bsp/\libucosii_bsp.a(alt_lseek.o)
 .bss           0x0084da90        0x0 ../server_bsp/\libucosii_bsp.a(alt_main.o)
 .bss           0x0084da90        0x0 ../server_bsp/\libucosii_bsp.a(alt_sbrk.o)
 .bss           0x0084da90        0x0 ../server_bsp/\libucosii_bsp.a(alt_usleep.o)
 .bss           0x0084da90        0x0 ../server_bsp/\libucosii_bsp.a(alt_env_lock.o)
 .bss           0x0084da90        0x0 ../server_bsp/\libucosii_bsp.a(alt_malloc_lock.o)
 .bss           0x0084da90        0x0 ../server_bsp/\libucosii_bsp.a(os_core.o)
 .bss           0x0084da90        0x0 ../server_bsp/\libucosii_bsp.a(os_dbg.o)
 .bss           0x0084da90        0x0 ../server_bsp/\libucosii_bsp.a(os_flag.o)
 .bss           0x0084da90        0x0 ../server_bsp/\libucosii_bsp.a(os_mem.o)
 .bss           0x0084da90        0x0 ../server_bsp/\libucosii_bsp.a(os_q.o)
 .bss           0x0084da90        0x0 ../server_bsp/\libucosii_bsp.a(os_sem.o)
 .bss           0x0084da90        0x0 ../server_bsp/\libucosii_bsp.a(os_task.o)
 .bss           0x0084da90        0x0 ../server_bsp/\libucosii_bsp.a(os_time.o)
 .bss           0x0084da90        0x0 ../server_bsp/\libucosii_bsp.a(alt_sys_init.o)
 .bss           0x0084da90        0x0 ../server_bsp/\libucosii_bsp.a(altera_avalon_cfi_flash.o)
 .bss           0x0084da90        0x0 ../server_bsp/\libucosii_bsp.a(altera_avalon_cfi_flash_table.o)
 .bss           0x0084da90        0x0 ../server_bsp/\libucosii_bsp.a(altera_avalon_epcs_flash_controller.o)
 .bss           0x0084da90        0x0 ../server_bsp/\libucosii_bsp.a(altera_avalon_jtag_uart_fd.o)
 .bss           0x0084da90        0x0 ../server_bsp/\libucosii_bsp.a(altera_avalon_jtag_uart_init.o)
 .bss           0x0084da90        0x0 ../server_bsp/\libucosii_bsp.a(altera_avalon_jtag_uart_ioctl.o)
 .bss           0x0084da90        0x0 ../server_bsp/\libucosii_bsp.a(altera_avalon_jtag_uart_read.o)
 .bss           0x0084da90        0x0 ../server_bsp/\libucosii_bsp.a(altera_avalon_jtag_uart_write.o)
 .bss           0x0084da90        0x0 ../server_bsp/\libucosii_bsp.a(altera_avalon_lcd_16207.o)
 .bss           0x0084da90        0x0 ../server_bsp/\libucosii_bsp.a(altera_avalon_lcd_16207_fd.o)
 .bss           0x0084da90        0x0 ../server_bsp/\libucosii_bsp.a(altera_avalon_timer_sc.o)
 .bss           0x0084da90        0x0 ../server_bsp/\libucosii_bsp.a(altera_avalon_uart_fd.o)
 .bss           0x0084da90        0x0 ../server_bsp/\libucosii_bsp.a(altera_avalon_uart_init.o)
 .bss           0x0084da90        0x0 ../server_bsp/\libucosii_bsp.a(altera_avalon_uart_read.o)
 .bss           0x0084da90        0x0 ../server_bsp/\libucosii_bsp.a(altera_avalon_uart_write.o)
 .bss           0x0084da90        0x0 ../server_bsp/\libucosii_bsp.a(epcs_commands.o)
 .bss           0x0084da90        0x0 ../server_bsp/\libucosii_bsp.a(alt_iniche_close.o)
 .bss           0x0084da90        0x0 ../server_bsp/\libucosii_bsp.a(alt_iniche_dev.o)
 .bss           0x0084da90        0x0 ../server_bsp/\libucosii_bsp.a(alt_iniche_read.o)
 .bss           0x0084da90        0x0 ../server_bsp/\libucosii_bsp.a(alt_iniche_write.o)
 .bss           0x0084da90        0x0 ../server_bsp/\libucosii_bsp.a(ipnet.o)
 .bss           0x0084da90       0x3c ../server_bsp/\libucosii_bsp.a(ipstart.o)
 .bss           0x0084dacc        0x0 ../server_bsp/\libucosii_bsp.a(igmp_cmn.o)
 .bss           0x0084dacc        0x0 ../server_bsp/\libucosii_bsp.a(bsdsock.o)
 .bss           0x0084dacc        0x0 ../server_bsp/\libucosii_bsp.a(cksum.o)
 .bss           0x0084dacc       0x18 ../server_bsp/\libucosii_bsp.a(in_utils.o)
 .bss           0x0084dae4        0x0 ../server_bsp/\libucosii_bsp.a(netmain.o)
 .bss           0x0084dae4       0x20 ../server_bsp/\libucosii_bsp.a(parseip.o)
 .bss           0x0084db04        0x0 ../server_bsp/\libucosii_bsp.a(tk_crnos.o)
 .bss           0x0084db04        0x0 ../server_bsp/\libucosii_bsp.a(dhcpclnt.o)
 .bss           0x0084db04        0x0 ../server_bsp/\libucosii_bsp.a(dhcputil.o)
 .bss           0x0084db04        0x0 ../server_bsp/\libucosii_bsp.a(pktalloc.o)
 .bss           0x0084db04        0x0 ../server_bsp/\libucosii_bsp.a(q.o)
 .bss           0x0084db04        0x0 ../server_bsp/\libucosii_bsp.a(udp_open.o)
 .bss           0x0084db04        0x0 ../server_bsp/\libucosii_bsp.a(asm_cksum.o)
 .bss           0x0084db04        0x0 ../server_bsp/\libucosii_bsp.a(brdutils.o)
 .bss           0x0084db04        0x0 ../server_bsp/\libucosii_bsp.a(osportco.o)
 .bss           0x0084db04        0x0 ../server_bsp/\libucosii_bsp.a(targnios.o)
 .bss           0x0084db04        0x0 ../server_bsp/\libucosii_bsp.a(nptcp.o)
 .bss           0x0084db04        0x0 ../server_bsp/\libucosii_bsp.a(rawsock.o)
 .bss           0x0084db04        0x0 ../server_bsp/\libucosii_bsp.a(sockcall.o)
 .bss           0x0084db04        0x0 ../server_bsp/\libucosii_bsp.a(socket.o)
 .bss           0x0084db04        0x0 ../server_bsp/\libucosii_bsp.a(socket2.o)
 .bss           0x0084db04        0x0 ../server_bsp/\libucosii_bsp.a(soselect.o)
 .bss           0x0084db04        0x0 ../server_bsp/\libucosii_bsp.a(tcp_in.o)
 .bss           0x0084db04        0x0 ../server_bsp/\libucosii_bsp.a(tcp_out.o)
 .bss           0x0084db04        0x0 ../server_bsp/\libucosii_bsp.a(tcp_subr.o)
 .bss           0x0084db04        0x0 ../server_bsp/\libucosii_bsp.a(tcp_timr.o)
 .bss           0x0084db04        0x0 ../server_bsp/\libucosii_bsp.a(tcp_usr.o)
 .bss           0x0084db04        0x0 ../server_bsp/\libucosii_bsp.a(tcpport.o)
 .bss           0x0084db04        0x0 ../server_bsp/\libucosii_bsp.a(udpsock.o)
 .bss           0x0084db04        0x0 ../server_bsp/\libucosii_bsp.a(alt_alarm_start.o)
 .bss           0x0084db04        0x0 ../server_bsp/\libucosii_bsp.a(alt_busy_sleep.o)
 .bss           0x0084db04        0x0 ../server_bsp/\libucosii_bsp.a(alt_close.o)
 .bss           0x0084db04        0x0 ../server_bsp/\libucosii_bsp.a(alt_dcache_flush.o)
 .bss           0x0084db04        0x0 ../server_bsp/\libucosii_bsp.a(alt_dev.o)
 .bss           0x0084db04        0x0 ../server_bsp/\libucosii_bsp.a(alt_dev_llist_insert.o)
 .bss           0x0084db04        0x0 ../server_bsp/\libucosii_bsp.a(alt_do_ctors.o)
 .bss           0x0084db04        0x0 ../server_bsp/\libucosii_bsp.a(alt_do_dtors.o)
 .bss           0x0084db04        0x0 ../server_bsp/\libucosii_bsp.a(alt_errno.o)
 .bss           0x0084db04        0x0 ../server_bsp/\libucosii_bsp.a(alt_find_dev.o)
 .bss           0x0084db04        0x0 ../server_bsp/\libucosii_bsp.a(alt_iic.o)
 .bss           0x0084db04        0x0 ../server_bsp/\libucosii_bsp.a(alt_iic_isr_register.o)
 .bss           0x0084db04        0x0 ../server_bsp/\libucosii_bsp.a(alt_io_redirect.o)
 .bss           0x0084db04        0x0 ../server_bsp/\libucosii_bsp.a(alt_irq_entry.o)
 .bss           0x0084db04        0x0 ../server_bsp/\libucosii_bsp.a(alt_irq_handler.o)
 .bss           0x0084db04        0x0 ../server_bsp/\libucosii_bsp.a(alt_open.o)
 .bss           0x0084db04        0x0 ../server_bsp/\libucosii_bsp.a(alt_read.o)
 .bss           0x0084db04        0x0 ../server_bsp/\libucosii_bsp.a(alt_release_fd.o)
 .bss           0x0084db04        0x0 ../server_bsp/\libucosii_bsp.a(alt_remap_cached.o)
 .bss           0x0084db04        0x0 ../server_bsp/\libucosii_bsp.a(alt_remap_uncached.o)
 .bss           0x0084db04        0x0 ../server_bsp/\libucosii_bsp.a(alt_tick.o)
 .bss           0x0084db04        0x0 ../server_bsp/\libucosii_bsp.a(alt_write.o)
 .bss           0x0084db04        0x0 ../server_bsp/\libucosii_bsp.a(altera_nios2_qsys_irq.o)
 .bss           0x0084db04        0x0 ../server_bsp/\libucosii_bsp.a(os_cpu_a.o)
 .bss           0x0084db04        0x0 ../server_bsp/\libucosii_bsp.a(os_cpu_c.o)
 .bss           0x0084db04        0x0 ../server_bsp/\libucosii_bsp.a(altera_avalon_cfi_flash_amd.o)
 .bss           0x0084db04        0x0 ../server_bsp/\libucosii_bsp.a(altera_avalon_cfi_flash_intel.o)
 .bss           0x0084db04        0x0 ../server_bsp/\libucosii_bsp.a(altera_avalon_spi.o)
 .bss           0x0084db04        0x0 ../server_bsp/\libucosii_bsp.a(allports.o)
 .bss           0x0084db04        0x0 ../server_bsp/\libucosii_bsp.a(timeouts.o)
 .bss           0x0084db04        0x0 ../server_bsp/\libucosii_bsp.a(tk_misc.o)
 .bss           0x0084db04        0x0 ../server_bsp/\libucosii_bsp.a(alt_iniche_fcntl.o)
 .bss           0x0084db04        0x0 ../server_bsp/\libucosii_bsp.a(et_arp.o)
 .bss           0x0084db04        0x0 ../server_bsp/\libucosii_bsp.a(iface.o)
 .bss           0x0084db04        0x0 ../server_bsp/\libucosii_bsp.a(ip.o)
 .bss           0x0084db04        0x0 ../server_bsp/\libucosii_bsp.a(ip_reasm.o)
 .bss           0x0084db04        0x0 ../server_bsp/\libucosii_bsp.a(ipdemux.o)
 .bss           0x0084db04        0x0 ../server_bsp/\libucosii_bsp.a(ipmc.o)
 .bss           0x0084db04        0x0 ../server_bsp/\libucosii_bsp.a(ipport.o)
 .bss           0x0084db04        0x0 ../server_bsp/\libucosii_bsp.a(ipraw.o)
 .bss           0x0084db04        0x0 ../server_bsp/\libucosii_bsp.a(iproute.o)
 .bss           0x0084db04        0x0 ../server_bsp/\libucosii_bsp.a(udp.o)
 .bss           0x0084db04        0x0 ../server_bsp/\libucosii_bsp.a(igmp.o)
 .bss           0x0084db04        0x0 ../server_bsp/\libucosii_bsp.a(igmp2.o)
 .bss           0x0084db04        0x0 ../server_bsp/\libucosii_bsp.a(ipopt.o)
 .bss           0x0084db04        0x0 ../server_bsp/\libucosii_bsp.a(u_mctest.o)
 .bss           0x0084db04        0x0 ../server_bsp/\libucosii_bsp.a(dhcsetup.o)
 .bss           0x0084db04        0x0 ../server_bsp/\libucosii_bsp.a(memdev.o)
 .bss           0x0084db04        0x0 ../server_bsp/\libucosii_bsp.a(tcpcksum.o)
 .bss           0x0084db04        0x0 ../server_bsp/\libucosii_bsp.a(in_pcb.o)
 .bss           0x0084db04        0x0 ../server_bsp/\libucosii_bsp.a(vfsfiles.o)
 .bss           0x0084db04        0x0 ../server_bsp/\libucosii_bsp.a(vfsport.o)
 .bss           0x0084db04        0x0 ../server_bsp/\libucosii_bsp.a(alt_exception_entry.o)
 .bss           0x0084db04        0x0 ../server_bsp/\libucosii_bsp.a(alt_fcntl.o)
 .bss           0x0084db04        0x0 ../server_bsp/\libucosii_bsp.a(alt_find_file.o)
 .bss           0x0084db04        0x0 ../server_bsp/\libucosii_bsp.a(alt_get_fd.o)
 .bss           0x0084db04        0x0 ../server_bsp/\libucosii_bsp.a(icmp.o)
 .bss           0x0084db04        0x0 c:/altera/13.0/nios2eds/bin/gnu/h-i686-mingw32/bin/../lib/gcc/nios2-elf/4.1.2/../../../../nios2-elf/lib\libc.a(lib_a-atexit.o)
 .bss           0x0084db04        0x0 c:/altera/13.0/nios2eds/bin/gnu/h-i686-mingw32/bin/../lib/gcc/nios2-elf/4.1.2/../../../../nios2-elf/lib\libc.a(lib_a-atoi.o)
 .bss           0x0084db04        0x0 c:/altera/13.0/nios2eds/bin/gnu/h-i686-mingw32/bin/../lib/gcc/nios2-elf/4.1.2/../../../../nios2-elf/lib\libc.a(lib_a-calloc.o)
 .bss           0x0084db04        0x0 c:/altera/13.0/nios2eds/bin/gnu/h-i686-mingw32/bin/../lib/gcc/nios2-elf/4.1.2/../../../../nios2-elf/lib\libc.a(lib_a-malloc.o)
 .bss           0x0084db04        0x0 c:/altera/13.0/nios2eds/bin/gnu/h-i686-mingw32/bin/../lib/gcc/nios2-elf/4.1.2/../../../../nios2-elf/lib\libc.a(lib_a-memcmp.o)
 .bss           0x0084db04        0x0 c:/altera/13.0/nios2eds/bin/gnu/h-i686-mingw32/bin/../lib/gcc/nios2-elf/4.1.2/../../../../nios2-elf/lib\libc.a(lib_a-sprintf.o)
 .bss           0x0084db04        0x0 c:/altera/13.0/nios2eds/bin/gnu/h-i686-mingw32/bin/../lib/gcc/nios2-elf/4.1.2/../../../../nios2-elf/lib\libc.a(lib_a-strcpy.o)
 .bss           0x0084db04        0x0 c:/altera/13.0/nios2eds/bin/gnu/h-i686-mingw32/bin/../lib/gcc/nios2-elf/4.1.2/../../../../nios2-elf/lib\libc.a(lib_a-strncmp.o)
 .bss           0x0084db04        0x0 c:/altera/13.0/nios2eds/bin/gnu/h-i686-mingw32/bin/../lib/gcc/nios2-elf/4.1.2/../../../../nios2-elf/lib\libc.a(lib_a-strncpy.o)
 .bss           0x0084db04        0x0 c:/altera/13.0/nios2eds/bin/gnu/h-i686-mingw32/bin/../lib/gcc/nios2-elf/4.1.2/../../../../nios2-elf/lib\libc.a(lib_a-strtol.o)
 .bss           0x0084db04        0x0 c:/altera/13.0/nios2eds/bin/gnu/h-i686-mingw32/bin/../lib/gcc/nios2-elf/4.1.2/../../../../nios2-elf/lib\libc.a(lib_a-vprintf.o)
 .bss           0x0084db04        0x0 c:/altera/13.0/nios2eds/bin/gnu/h-i686-mingw32/bin/../lib/gcc/nios2-elf/4.1.2/../../../../nios2-elf/lib\libc.a(lib_a-vsprintf.o)
 .bss           0x0084db04        0x0 c:/altera/13.0/nios2eds/bin/gnu/h-i686-mingw32/bin/../lib/gcc/nios2-elf/4.1.2/../../../../nios2-elf/lib\libc.a(lib_a-__atexit.o)
 *(COMMON)
 COMMON         0x0084db04       0x44 obj/default/dm9000a.o
                0x0084db04                g_dm9ka
 COMMON         0x0084db48     0x2000 obj/default/iniche_init.o
                0x0084db48                SSSInitialTaskStk
 COMMON         0x0084fb48     0x4078 obj/default/simple_socket_server.o
                0x0084fb48                LED7SegLightshowTaskStk
                0x00851b48                SSSLEDCommandQTbl
                0x00851bc0                LEDManagementTaskStk
 COMMON         0x00853bc0     0x3224 ../server_bsp/\libucosii_bsp.a(os_core.o)
                0x00853bc0                OSFlagTbl
                0x00853f30                OSMemTbl
                0x00854b60                OSTaskStatStk
                0x00855360                OSQTbl
                0x00855540                OSTaskIdleStk
                0x00855d40                OSEventTbl
                0x00856880                OSTCBTbl
                0x00856d90                OSTCBPrioTbl
 COMMON         0x00856de4       0x14 ../server_bsp/\libucosii_bsp.a(ipnet.o)
                0x00856de4                rcvdq
 COMMON         0x00856df8      0x310 ../server_bsp/\libucosii_bsp.a(ipstart.o)
                0x00856df8                netstatic
                0x008570f8                nets
 COMMON         0x00857108       0x64 ../server_bsp/\libucosii_bsp.a(igmp_cmn.o)
                0x00857108                igmpstats
 COMMON         0x0085716c       0x26 ../server_bsp/\libucosii_bsp.a(in_utils.o)
                0x0085716c                eth_prt_buf
                0x00857180                ipreturn
 *fill*         0x00857192        0x2 00
 COMMON         0x00857194       0xf0 ../server_bsp/\libucosii_bsp.a(dhcpclnt.o)
                0x00857194                dhc_states
 COMMON         0x00857284      0x128 ../server_bsp/\libucosii_bsp.a(pktalloc.o)
                0x00857284                lilfreeq
                0x00857298                memestats
                0x008572a8                pktlog
                0x00857398                bigfreeq
 COMMON         0x008573ac      0x1ec ../server_bsp/\libucosii_bsp.a(osportco.o)
                0x008573ac                global_tcb_ext
                0x008574a8                global_TCPwakeup_set
 COMMON         0x00857598       0x58 ../server_bsp/\libucosii_bsp.a(targnios.o)
                0x00857598                resid_semaphore
                0x008575d8                app_semaphore
 COMMON         0x008575f0       0x78 ../server_bsp/\libucosii_bsp.a(nptcp.o)
                0x008575f0                soq
                0x00857604                tcpmib
                0x00857640                mbufq
                0x00857654                mfreeq
 COMMON         0x00857668       0x28 ../server_bsp/\libucosii_bsp.a(tcp_in.o)
                0x00857668                tcp_saveti
 COMMON         0x00857690      0x10c ../server_bsp/\libucosii_bsp.a(tcp_subr.o)
                0x00857690                tcb
                0x008576bc                tcpstat
 COMMON         0x0085779c      0x100 ../server_bsp/\libucosii_bsp.a(alt_irq_handler.o)
                0x0085779c                alt_irq
 COMMON         0x0085789c       0x64 ../server_bsp/\libucosii_bsp.a(timeouts.o)
                0x0085789c                intimers
 COMMON         0x00857900      0x100 ../server_bsp/\libucosii_bsp.a(et_arp.o)
                0x00857900                arp_table
 COMMON         0x00857a00       0x14 ../server_bsp/\libucosii_bsp.a(iface.o)
                0x00857a00                netlist
 COMMON         0x00857a14       0x50 ../server_bsp/\libucosii_bsp.a(ip.o)
                0x00857a14                ip_mib
 COMMON         0x00857a64       0x18 ../server_bsp/\libucosii_bsp.a(ip_reasm.o)
                0x00857a64                ire_stats
 COMMON         0x00857a7c       0x10 ../server_bsp/\libucosii_bsp.a(udp.o)
                0x00857a7c                udp_mib
 COMMON         0x00857a8c       0x68 ../server_bsp/\libucosii_bsp.a(icmp.o)
                0x00857a8c                icmp_mib
 COMMON         0x00857af4      0x190 c:/altera/13.0/nios2eds/bin/gnu/h-i686-mingw32/bin/../lib/gcc/nios2-elf/4.1.2/../../../../nios2-elf/lib\libc.a(lib_a-atexit.o)
                0x00857af4                _atexit0
                0x00857c84                . = ALIGN (0x4)
                0x00857c84                __bss_end = ABSOLUTE (.)

.sdram_0        0x00857c84        0x0
                0x00857c84                PROVIDE (_alt_partition_sdram_0_start, ABSOLUTE (.))
 *(.sdram_0. sdram_0.*)
                0x00857c84                . = ALIGN (0x4)
                0x00857c84                PROVIDE (_alt_partition_sdram_0_end, ABSOLUTE (.))
                0x00857c84                _end = ABSOLUTE (.)
                0x00857c84                end = ABSOLUTE (.)
                0x00857c84                __alt_stack_base = ABSOLUTE (.)
                0x00857c84                PROVIDE (_alt_partition_sdram_0_load_addr, LOADADDR (.sdram_0))

.cfi_flash_0    0x01400020        0x0
                0x01400020                PROVIDE (_alt_partition_cfi_flash_0_start, ABSOLUTE (.))
 *(.cfi_flash_0. cfi_flash_0.*)
                0x01400020                . = ALIGN (0x4)
                0x01400020                PROVIDE (_alt_partition_cfi_flash_0_end, ABSOLUTE (.))
                0x01400020                PROVIDE (_alt_partition_cfi_flash_0_load_addr, LOADADDR (.cfi_flash_0))

.sram_0         0x01a00000        0x0
                0x01a00000                PROVIDE (_alt_partition_sram_0_start, ABSOLUTE (.))
 *(.sram_0. sram_0.*)
                0x01a00000                . = ALIGN (0x4)
                0x01a00000                PROVIDE (_alt_partition_sram_0_end, ABSOLUTE (.))
                0x01a00000                PROVIDE (_alt_partition_sram_0_load_addr, LOADADDR (.sram_0))

.epcs_controller
                0x01a81000        0x0
                0x01a81000                PROVIDE (_alt_partition_epcs_controller_start, ABSOLUTE (.))
 *(.epcs_controller. epcs_controller.*)
                0x01a81000                . = ALIGN (0x4)
                0x01a81000                PROVIDE (_alt_partition_epcs_controller_end, ABSOLUTE (.))
                0x01a81000                PROVIDE (_alt_partition_epcs_controller_load_addr, LOADADDR (.epcs_controller))

.stab
 *(.stab)

.stabstr
 *(.stabstr)

.stab.excl
 *(.stab.excl)

.stab.exclstr
 *(.stab.exclstr)

.stab.index
 *(.stab.index)

.stab.indexstr
 *(.stab.indexstr)

.comment        0x00000000       0x23
 *(.comment)
 .comment       0x00000000       0x23 obj/default/LCD.o
                                 0x24 (size before relaxing)
 .comment       0x00000000       0x24 obj/default/SSS_DE2_115.o
 .comment       0x00000000       0x24 obj/default/alt_error_handler.o
 .comment       0x00000000       0x24 obj/default/dm9000a.o
 .comment       0x00000000       0x24 obj/default/iniche_init.o
 .comment       0x00000000       0x24 obj/default/led.o
 .comment       0x00000000       0x24 obj/default/network_utilities.o
 .comment       0x00000000       0x24 obj/default/simple_socket_server.o
 .comment       0x00000000       0x24 obj/default/tse_my_system.o
 .comment       0x00000000       0x24 c:/altera/13.0/nios2eds/bin/gnu/h-i686-mingw32/bin/../lib/gcc/nios2-elf/4.1.2\libgcc.a(_fixunsdfsi.o)
 .comment       0x00000000       0x24 c:/altera/13.0/nios2eds/bin/gnu/h-i686-mingw32/bin/../lib/gcc/nios2-elf/4.1.2\libgcc.a(_addsub_df.o)
 .comment       0x00000000       0x24 c:/altera/13.0/nios2eds/bin/gnu/h-i686-mingw32/bin/../lib/gcc/nios2-elf/4.1.2\libgcc.a(_mul_df.o)
 .comment       0x00000000       0x24 c:/altera/13.0/nios2eds/bin/gnu/h-i686-mingw32/bin/../lib/gcc/nios2-elf/4.1.2\libgcc.a(_ge_df.o)
 .comment       0x00000000       0x24 c:/altera/13.0/nios2eds/bin/gnu/h-i686-mingw32/bin/../lib/gcc/nios2-elf/4.1.2\libgcc.a(_df_to_si.o)
 .comment       0x00000000       0x24 c:/altera/13.0/nios2eds/bin/gnu/h-i686-mingw32/bin/../lib/gcc/nios2-elf/4.1.2\libgcc.a(_thenan_df.o)
 .comment       0x00000000       0x24 c:/altera/13.0/nios2eds/bin/gnu/h-i686-mingw32/bin/../lib/gcc/nios2-elf/4.1.2\libgcc.a(_usi_to_df.o)
 .comment       0x00000000       0x24 c:/altera/13.0/nios2eds/bin/gnu/h-i686-mingw32/bin/../lib/gcc/nios2-elf/4.1.2\libgcc.a(_muldi3.o)
 .comment       0x00000000       0x24 c:/altera/13.0/nios2eds/bin/gnu/h-i686-mingw32/bin/../lib/gcc/nios2-elf/4.1.2\libgcc.a(_clzsi2.o)
 .comment       0x00000000       0x24 c:/altera/13.0/nios2eds/bin/gnu/h-i686-mingw32/bin/../lib/gcc/nios2-elf/4.1.2\libgcc.a(_pack_df.o)
 .comment       0x00000000       0x24 c:/altera/13.0/nios2eds/bin/gnu/h-i686-mingw32/bin/../lib/gcc/nios2-elf/4.1.2\libgcc.a(_unpack_df.o)
 .comment       0x00000000       0x24 c:/altera/13.0/nios2eds/bin/gnu/h-i686-mingw32/bin/../lib/gcc/nios2-elf/4.1.2\libgcc.a(_fpcmp_parts_df.o)
 .comment       0x00000000       0x24 c:/altera/13.0/nios2eds/bin/gnu/h-i686-mingw32/bin/../lib/gcc/nios2-elf/4.1.2\libgcc.a(_clz.o)
 .comment       0x00000000       0x24 c:/altera/13.0/nios2eds/bin/gnu/h-i686-mingw32/bin/../lib/gcc/nios2-elf/4.1.2/../../../../nios2-elf/lib\libc.a(lib_a-ctype_.o)
 .comment       0x00000000       0x24 c:/altera/13.0/nios2eds/bin/gnu/h-i686-mingw32/bin/../lib/gcc/nios2-elf/4.1.2/../../../../nios2-elf/lib\libc.a(lib_a-exit.o)
 .comment       0x00000000       0x24 c:/altera/13.0/nios2eds/bin/gnu/h-i686-mingw32/bin/../lib/gcc/nios2-elf/4.1.2/../../../../nios2-elf/lib\libc.a(lib_a-fprintf.o)
 .comment       0x00000000       0x24 c:/altera/13.0/nios2eds/bin/gnu/h-i686-mingw32/bin/../lib/gcc/nios2-elf/4.1.2/../../../../nios2-elf/lib\libc.a(lib_a-fwrite.o)
 .comment       0x00000000       0x24 c:/altera/13.0/nios2eds/bin/gnu/h-i686-mingw32/bin/../lib/gcc/nios2-elf/4.1.2/../../../../nios2-elf/lib\libc.a(lib_a-getc.o)
 .comment       0x00000000       0x24 c:/altera/13.0/nios2eds/bin/gnu/h-i686-mingw32/bin/../lib/gcc/nios2-elf/4.1.2/../../../../nios2-elf/lib\libc.a(lib_a-impure.o)
 .comment       0x00000000       0x24 c:/altera/13.0/nios2eds/bin/gnu/h-i686-mingw32/bin/../lib/gcc/nios2-elf/4.1.2/../../../../nios2-elf/lib\libc.a(lib_a-memcpy.o)
 .comment       0x00000000       0x24 c:/altera/13.0/nios2eds/bin/gnu/h-i686-mingw32/bin/../lib/gcc/nios2-elf/4.1.2/../../../../nios2-elf/lib\libc.a(lib_a-memmove.o)
 .comment       0x00000000       0x24 c:/altera/13.0/nios2eds/bin/gnu/h-i686-mingw32/bin/../lib/gcc/nios2-elf/4.1.2/../../../../nios2-elf/lib\libc.a(lib_a-memset.o)
 .comment       0x00000000       0x24 c:/altera/13.0/nios2eds/bin/gnu/h-i686-mingw32/bin/../lib/gcc/nios2-elf/4.1.2/../../../../nios2-elf/lib\libc.a(lib_a-perror.o)
 .comment       0x00000000       0x24 c:/altera/13.0/nios2eds/bin/gnu/h-i686-mingw32/bin/../lib/gcc/nios2-elf/4.1.2/../../../../nios2-elf/lib\libc.a(lib_a-printf.o)
 .comment       0x00000000       0x24 c:/altera/13.0/nios2eds/bin/gnu/h-i686-mingw32/bin/../lib/gcc/nios2-elf/4.1.2/../../../../nios2-elf/lib\libc.a(lib_a-putc.o)
 .comment       0x00000000       0x24 c:/altera/13.0/nios2eds/bin/gnu/h-i686-mingw32/bin/../lib/gcc/nios2-elf/4.1.2/../../../../nios2-elf/lib\libc.a(lib_a-putchar.o)
 .comment       0x00000000       0x24 c:/altera/13.0/nios2eds/bin/gnu/h-i686-mingw32/bin/../lib/gcc/nios2-elf/4.1.2/../../../../nios2-elf/lib\libc.a(lib_a-puts.o)
 .comment       0x00000000       0x24 c:/altera/13.0/nios2eds/bin/gnu/h-i686-mingw32/bin/../lib/gcc/nios2-elf/4.1.2/../../../../nios2-elf/lib\libc.a(lib_a-rget.o)
 .comment       0x00000000       0x24 c:/altera/13.0/nios2eds/bin/gnu/h-i686-mingw32/bin/../lib/gcc/nios2-elf/4.1.2/../../../../nios2-elf/lib\libc.a(lib_a-strchr.o)
 .comment       0x00000000       0x24 c:/altera/13.0/nios2eds/bin/gnu/h-i686-mingw32/bin/../lib/gcc/nios2-elf/4.1.2/../../../../nios2-elf/lib\libc.a(lib_a-strerror.o)
 .comment       0x00000000       0x24 c:/altera/13.0/nios2eds/bin/gnu/h-i686-mingw32/bin/../lib/gcc/nios2-elf/4.1.2/../../../../nios2-elf/lib\libc.a(lib_a-strlen.o)
 .comment       0x00000000       0x24 c:/altera/13.0/nios2eds/bin/gnu/h-i686-mingw32/bin/../lib/gcc/nios2-elf/4.1.2/../../../../nios2-elf/lib\libc.a(lib_a-u_strerr.o)
 .comment       0x00000000       0x24 c:/altera/13.0/nios2eds/bin/gnu/h-i686-mingw32/bin/../lib/gcc/nios2-elf/4.1.2/../../../../nios2-elf/lib\libc.a(lib_a-vfprintf.o)
 .comment       0x00000000       0x24 c:/altera/13.0/nios2eds/bin/gnu/h-i686-mingw32/bin/../lib/gcc/nios2-elf/4.1.2/../../../../nios2-elf/lib\libc.a(lib_a-wbuf.o)
 .comment       0x00000000       0x24 c:/altera/13.0/nios2eds/bin/gnu/h-i686-mingw32/bin/../lib/gcc/nios2-elf/4.1.2/../../../../nios2-elf/lib\libc.a(lib_a-wsetup.o)
 .comment       0x00000000       0x24 c:/altera/13.0/nios2eds/bin/gnu/h-i686-mingw32/bin/../lib/gcc/nios2-elf/4.1.2/../../../../nios2-elf/lib\libc.a(lib_a-__call_atexit.o)
 .comment       0x00000000       0x24 c:/altera/13.0/nios2eds/bin/gnu/h-i686-mingw32/bin/../lib/gcc/nios2-elf/4.1.2/../../../../nios2-elf/lib\libc.a(lib_a-dtoa.o)
 .comment       0x00000000       0x24 c:/altera/13.0/nios2eds/bin/gnu/h-i686-mingw32/bin/../lib/gcc/nios2-elf/4.1.2/../../../../nios2-elf/lib\libc.a(lib_a-fflush.o)
 .comment       0x00000000       0x24 c:/altera/13.0/nios2eds/bin/gnu/h-i686-mingw32/bin/../lib/gcc/nios2-elf/4.1.2/../../../../nios2-elf/lib\libc.a(lib_a-findfp.o)
 .comment       0x00000000       0x24 c:/altera/13.0/nios2eds/bin/gnu/h-i686-mingw32/bin/../lib/gcc/nios2-elf/4.1.2/../../../../nios2-elf/lib\libc.a(lib_a-fputc.o)
 .comment       0x00000000       0x24 c:/altera/13.0/nios2eds/bin/gnu/h-i686-mingw32/bin/../lib/gcc/nios2-elf/4.1.2/../../../../nios2-elf/lib\libc.a(lib_a-fputs.o)
 .comment       0x00000000       0x24 c:/altera/13.0/nios2eds/bin/gnu/h-i686-mingw32/bin/../lib/gcc/nios2-elf/4.1.2/../../../../nios2-elf/lib\libc.a(lib_a-freer.o)
 .comment       0x00000000       0x24 c:/altera/13.0/nios2eds/bin/gnu/h-i686-mingw32/bin/../lib/gcc/nios2-elf/4.1.2/../../../../nios2-elf/lib\libc.a(lib_a-fvwrite.o)
 .comment       0x00000000       0x24 c:/altera/13.0/nios2eds/bin/gnu/h-i686-mingw32/bin/../lib/gcc/nios2-elf/4.1.2/../../../../nios2-elf/lib\libc.a(lib_a-fwalk.o)
 .comment       0x00000000       0x24 c:/altera/13.0/nios2eds/bin/gnu/h-i686-mingw32/bin/../lib/gcc/nios2-elf/4.1.2/../../../../nios2-elf/lib\libc.a(lib_a-locale.o)
 .comment       0x00000000       0x24 c:/altera/13.0/nios2eds/bin/gnu/h-i686-mingw32/bin/../lib/gcc/nios2-elf/4.1.2/../../../../nios2-elf/lib\libc.a(lib_a-makebuf.o)
 .comment       0x00000000       0x24 c:/altera/13.0/nios2eds/bin/gnu/h-i686-mingw32/bin/../lib/gcc/nios2-elf/4.1.2/../../../../nios2-elf/lib\libc.a(lib_a-mallocr.o)
 .comment       0x00000000       0x24 c:/altera/13.0/nios2eds/bin/gnu/h-i686-mingw32/bin/../lib/gcc/nios2-elf/4.1.2/../../../../nios2-elf/lib\libc.a(lib_a-memchr.o)
 .comment       0x00000000       0x24 c:/altera/13.0/nios2eds/bin/gnu/h-i686-mingw32/bin/../lib/gcc/nios2-elf/4.1.2/../../../../nios2-elf/lib\libc.a(lib_a-mprec.o)
 .comment       0x00000000       0x24 c:/altera/13.0/nios2eds/bin/gnu/h-i686-mingw32/bin/../lib/gcc/nios2-elf/4.1.2/../../../../nios2-elf/lib\libc.a(lib_a-reallocr.o)
 .comment       0x00000000       0x24 c:/altera/13.0/nios2eds/bin/gnu/h-i686-mingw32/bin/../lib/gcc/nios2-elf/4.1.2/../../../../nios2-elf/lib\libc.a(lib_a-refill.o)
 .comment       0x00000000       0x24 c:/altera/13.0/nios2eds/bin/gnu/h-i686-mingw32/bin/../lib/gcc/nios2-elf/4.1.2/../../../../nios2-elf/lib\libc.a(lib_a-s_isinfd.o)
 .comment       0x00000000       0x24 c:/altera/13.0/nios2eds/bin/gnu/h-i686-mingw32/bin/../lib/gcc/nios2-elf/4.1.2/../../../../nios2-elf/lib\libc.a(lib_a-s_isnand.o)
 .comment       0x00000000       0x24 c:/altera/13.0/nios2eds/bin/gnu/h-i686-mingw32/bin/../lib/gcc/nios2-elf/4.1.2/../../../../nios2-elf/lib\libc.a(lib_a-sbrkr.o)
 .comment       0x00000000       0x24 c:/altera/13.0/nios2eds/bin/gnu/h-i686-mingw32/bin/../lib/gcc/nios2-elf/4.1.2/../../../../nios2-elf/lib\libc.a(lib_a-stdio.o)
 .comment       0x00000000       0x24 c:/altera/13.0/nios2eds/bin/gnu/h-i686-mingw32/bin/../lib/gcc/nios2-elf/4.1.2/../../../../nios2-elf/lib\libc.a(lib_a-strcmp.o)
 .comment       0x00000000       0x24 c:/altera/13.0/nios2eds/bin/gnu/h-i686-mingw32/bin/../lib/gcc/nios2-elf/4.1.2/../../../../nios2-elf/lib\libc.a(lib_a-writer.o)
 .comment       0x00000000       0x24 c:/altera/13.0/nios2eds/bin/gnu/h-i686-mingw32/bin/../lib/gcc/nios2-elf/4.1.2/../../../../nios2-elf/lib\libc.a(lib_a-callocr.o)
 .comment       0x00000000       0x24 c:/altera/13.0/nios2eds/bin/gnu/h-i686-mingw32/bin/../lib/gcc/nios2-elf/4.1.2/../../../../nios2-elf/lib\libc.a(lib_a-closer.o)
 .comment       0x00000000       0x24 c:/altera/13.0/nios2eds/bin/gnu/h-i686-mingw32/bin/../lib/gcc/nios2-elf/4.1.2/../../../../nios2-elf/lib\libc.a(lib_a-fclose.o)
 .comment       0x00000000       0x24 c:/altera/13.0/nios2eds/bin/gnu/h-i686-mingw32/bin/../lib/gcc/nios2-elf/4.1.2/../../../../nios2-elf/lib\libc.a(lib_a-fstatr.o)
 .comment       0x00000000       0x24 c:/altera/13.0/nios2eds/bin/gnu/h-i686-mingw32/bin/../lib/gcc/nios2-elf/4.1.2/../../../../nios2-elf/lib\libc.a(lib_a-int_errno.o)
 .comment       0x00000000       0x24 c:/altera/13.0/nios2eds/bin/gnu/h-i686-mingw32/bin/../lib/gcc/nios2-elf/4.1.2/../../../../nios2-elf/lib\libc.a(lib_a-isattyr.o)
 .comment       0x00000000       0x24 c:/altera/13.0/nios2eds/bin/gnu/h-i686-mingw32/bin/../lib/gcc/nios2-elf/4.1.2/../../../../nios2-elf/lib\libc.a(lib_a-lseekr.o)
 .comment       0x00000000       0x24 c:/altera/13.0/nios2eds/bin/gnu/h-i686-mingw32/bin/../lib/gcc/nios2-elf/4.1.2/../../../../nios2-elf/lib\libc.a(lib_a-readr.o)
 .comment       0x00000000       0x24 c:/altera/13.0/nios2eds/bin/gnu/h-i686-mingw32/bin/../lib/gcc/nios2-elf/4.1.2\libgcc.a(_udivdi3.o)
 .comment       0x00000000       0x24 c:/altera/13.0/nios2eds/bin/gnu/h-i686-mingw32/bin/../lib/gcc/nios2-elf/4.1.2\libgcc.a(_umoddi3.o)
 .comment       0x00000000       0x24 c:/altera/13.0/nios2eds/bin/gnu/h-i686-mingw32/bin/../lib/gcc/nios2-elf/4.1.2\libgcc.a(_div_df.o)
 .comment       0x00000000       0x24 c:/altera/13.0/nios2eds/bin/gnu/h-i686-mingw32/bin/../lib/gcc/nios2-elf/4.1.2\libgcc.a(_eq_df.o)
 .comment       0x00000000       0x24 c:/altera/13.0/nios2eds/bin/gnu/h-i686-mingw32/bin/../lib/gcc/nios2-elf/4.1.2\libgcc.a(_ne_df.o)
 .comment       0x00000000       0x24 c:/altera/13.0/nios2eds/bin/gnu/h-i686-mingw32/bin/../lib/gcc/nios2-elf/4.1.2\libgcc.a(_gt_df.o)
 .comment       0x00000000       0x24 c:/altera/13.0/nios2eds/bin/gnu/h-i686-mingw32/bin/../lib/gcc/nios2-elf/4.1.2\libgcc.a(_lt_df.o)
 .comment       0x00000000       0x24 c:/altera/13.0/nios2eds/bin/gnu/h-i686-mingw32/bin/../lib/gcc/nios2-elf/4.1.2\libgcc.a(_si_to_df.o)
 .comment       0x00000000       0x24 c:/altera/13.0/nios2eds/bin/gnu/h-i686-mingw32/bin/../lib/gcc/nios2-elf/4.1.2\libgcc.a(lib2-divmod.o)
 .comment       0x00000000       0x24 ../server_bsp/\libucosii_bsp.a(alt_exit.o)
 .comment       0x00000000       0x24 ../server_bsp/\libucosii_bsp.a(alt_flash_dev.o)
 .comment       0x00000000       0x24 ../server_bsp/\libucosii_bsp.a(alt_fstat.o)
 .comment       0x00000000       0x24 ../server_bsp/\libucosii_bsp.a(alt_irq_register.o)
 .comment       0x00000000       0x24 ../server_bsp/\libucosii_bsp.a(alt_irq_vars.o)
 .comment       0x00000000       0x24 ../server_bsp/\libucosii_bsp.a(alt_isatty.o)
 .comment       0x00000000       0x24 ../server_bsp/\libucosii_bsp.a(alt_lseek.o)
 .comment       0x00000000       0x24 ../server_bsp/\libucosii_bsp.a(alt_main.o)
 .comment       0x00000000       0x24 ../server_bsp/\libucosii_bsp.a(alt_sbrk.o)
 .comment       0x00000000       0x24 ../server_bsp/\libucosii_bsp.a(alt_usleep.o)
 .comment       0x00000000       0x24 ../server_bsp/\libucosii_bsp.a(alt_env_lock.o)
 .comment       0x00000000       0x24 ../server_bsp/\libucosii_bsp.a(alt_malloc_lock.o)
 .comment       0x00000000       0x24 ../server_bsp/\libucosii_bsp.a(os_core.o)
 .comment       0x00000000       0x24 ../server_bsp/\libucosii_bsp.a(os_dbg.o)
 .comment       0x00000000       0x24 ../server_bsp/\libucosii_bsp.a(os_flag.o)
 .comment       0x00000000       0x24 ../server_bsp/\libucosii_bsp.a(os_mem.o)
 .comment       0x00000000       0x24 ../server_bsp/\libucosii_bsp.a(os_q.o)
 .comment       0x00000000       0x24 ../server_bsp/\libucosii_bsp.a(os_sem.o)
 .comment       0x00000000       0x24 ../server_bsp/\libucosii_bsp.a(os_task.o)
 .comment       0x00000000       0x24 ../server_bsp/\libucosii_bsp.a(os_time.o)
 .comment       0x00000000       0x24 ../server_bsp/\libucosii_bsp.a(alt_sys_init.o)
 .comment       0x00000000       0x24 ../server_bsp/\libucosii_bsp.a(altera_avalon_cfi_flash.o)
 .comment       0x00000000       0x24 ../server_bsp/\libucosii_bsp.a(altera_avalon_cfi_flash_table.o)
 .comment       0x00000000       0x24 ../server_bsp/\libucosii_bsp.a(altera_avalon_epcs_flash_controller.o)
 .comment       0x00000000       0x24 ../server_bsp/\libucosii_bsp.a(altera_avalon_jtag_uart_fd.o)
 .comment       0x00000000       0x24 ../server_bsp/\libucosii_bsp.a(altera_avalon_jtag_uart_init.o)
 .comment       0x00000000       0x24 ../server_bsp/\libucosii_bsp.a(altera_avalon_jtag_uart_ioctl.o)
 .comment       0x00000000       0x24 ../server_bsp/\libucosii_bsp.a(altera_avalon_jtag_uart_read.o)
 .comment       0x00000000       0x24 ../server_bsp/\libucosii_bsp.a(altera_avalon_jtag_uart_write.o)
 .comment       0x00000000       0x24 ../server_bsp/\libucosii_bsp.a(altera_avalon_lcd_16207.o)
 .comment       0x00000000       0x24 ../server_bsp/\libucosii_bsp.a(altera_avalon_lcd_16207_fd.o)
 .comment       0x00000000       0x24 ../server_bsp/\libucosii_bsp.a(altera_avalon_timer_sc.o)
 .comment       0x00000000       0x24 ../server_bsp/\libucosii_bsp.a(altera_avalon_uart_fd.o)
 .comment       0x00000000       0x24 ../server_bsp/\libucosii_bsp.a(altera_avalon_uart_init.o)
 .comment       0x00000000       0x24 ../server_bsp/\libucosii_bsp.a(altera_avalon_uart_read.o)
 .comment       0x00000000       0x24 ../server_bsp/\libucosii_bsp.a(altera_avalon_uart_write.o)
 .comment       0x00000000       0x24 ../server_bsp/\libucosii_bsp.a(epcs_commands.o)
 .comment       0x00000000       0x24 ../server_bsp/\libucosii_bsp.a(alt_iniche_close.o)
 .comment       0x00000000       0x24 ../server_bsp/\libucosii_bsp.a(alt_iniche_dev.o)
 .comment       0x00000000       0x24 ../server_bsp/\libucosii_bsp.a(alt_iniche_read.o)
 .comment       0x00000000       0x24 ../server_bsp/\libucosii_bsp.a(alt_iniche_write.o)
 .comment       0x00000000       0x24 ../server_bsp/\libucosii_bsp.a(ipnet.o)
 .comment       0x00000000       0x24 ../server_bsp/\libucosii_bsp.a(ipstart.o)
 .comment       0x00000000       0x24 ../server_bsp/\libucosii_bsp.a(igmp_cmn.o)
 .comment       0x00000000       0x24 ../server_bsp/\libucosii_bsp.a(bsdsock.o)
 .comment       0x00000000       0x24 ../server_bsp/\libucosii_bsp.a(cksum.o)
 .comment       0x00000000       0x24 ../server_bsp/\libucosii_bsp.a(in_utils.o)
 .comment       0x00000000       0x24 ../server_bsp/\libucosii_bsp.a(netmain.o)
 .comment       0x00000000       0x24 ../server_bsp/\libucosii_bsp.a(parseip.o)
 .comment       0x00000000       0x24 ../server_bsp/\libucosii_bsp.a(tk_crnos.o)
 .comment       0x00000000       0x24 ../server_bsp/\libucosii_bsp.a(dhcpclnt.o)
 .comment       0x00000000       0x24 ../server_bsp/\libucosii_bsp.a(dhcputil.o)
 .comment       0x00000000       0x24 ../server_bsp/\libucosii_bsp.a(pktalloc.o)
 .comment       0x00000000       0x24 ../server_bsp/\libucosii_bsp.a(q.o)
 .comment       0x00000000       0x24 ../server_bsp/\libucosii_bsp.a(udp_open.o)
 .comment       0x00000000       0x24 ../server_bsp/\libucosii_bsp.a(brdutils.o)
 .comment       0x00000000       0x24 ../server_bsp/\libucosii_bsp.a(osportco.o)
 .comment       0x00000000       0x24 ../server_bsp/\libucosii_bsp.a(targnios.o)
 .comment       0x00000000       0x24 ../server_bsp/\libucosii_bsp.a(nptcp.o)
 .comment       0x00000000       0x24 ../server_bsp/\libucosii_bsp.a(rawsock.o)
 .comment       0x00000000       0x24 ../server_bsp/\libucosii_bsp.a(sockcall.o)
 .comment       0x00000000       0x24 ../server_bsp/\libucosii_bsp.a(socket.o)
 .comment       0x00000000       0x24 ../server_bsp/\libucosii_bsp.a(socket2.o)
 .comment       0x00000000       0x24 ../server_bsp/\libucosii_bsp.a(soselect.o)
 .comment       0x00000000       0x24 ../server_bsp/\libucosii_bsp.a(tcp_in.o)
 .comment       0x00000000       0x24 ../server_bsp/\libucosii_bsp.a(tcp_out.o)
 .comment       0x00000000       0x24 ../server_bsp/\libucosii_bsp.a(tcp_subr.o)
 .comment       0x00000000       0x24 ../server_bsp/\libucosii_bsp.a(tcp_timr.o)
 .comment       0x00000000       0x24 ../server_bsp/\libucosii_bsp.a(tcp_usr.o)
 .comment       0x00000000       0x24 ../server_bsp/\libucosii_bsp.a(tcpport.o)
 .comment       0x00000000       0x24 ../server_bsp/\libucosii_bsp.a(udpsock.o)
 .comment       0x00000000       0x24 ../server_bsp/\libucosii_bsp.a(alt_alarm_start.o)
 .comment       0x00000000       0x24 ../server_bsp/\libucosii_bsp.a(alt_busy_sleep.o)
 .comment       0x00000000       0x24 ../server_bsp/\libucosii_bsp.a(alt_close.o)
 .comment       0x00000000       0x24 ../server_bsp/\libucosii_bsp.a(alt_dcache_flush.o)
 .comment       0x00000000       0x24 ../server_bsp/\libucosii_bsp.a(alt_dev.o)
 .comment       0x00000000       0x24 ../server_bsp/\libucosii_bsp.a(alt_dev_llist_insert.o)
 .comment       0x00000000       0x24 ../server_bsp/\libucosii_bsp.a(alt_do_ctors.o)
 .comment       0x00000000       0x24 ../server_bsp/\libucosii_bsp.a(alt_do_dtors.o)
 .comment       0x00000000       0x24 ../server_bsp/\libucosii_bsp.a(alt_errno.o)
 .comment       0x00000000       0x24 ../server_bsp/\libucosii_bsp.a(alt_find_dev.o)
 .comment       0x00000000       0x24 ../server_bsp/\libucosii_bsp.a(alt_iic.o)
 .comment       0x00000000       0x24 ../server_bsp/\libucosii_bsp.a(alt_iic_isr_register.o)
 .comment       0x00000000       0x24 ../server_bsp/\libucosii_bsp.a(alt_io_redirect.o)
 .comment       0x00000000       0x24 ../server_bsp/\libucosii_bsp.a(alt_irq_handler.o)
 .comment       0x00000000       0x24 ../server_bsp/\libucosii_bsp.a(alt_open.o)
 .comment       0x00000000       0x24 ../server_bsp/\libucosii_bsp.a(alt_read.o)
 .comment       0x00000000       0x24 ../server_bsp/\libucosii_bsp.a(alt_release_fd.o)
 .comment       0x00000000       0x24 ../server_bsp/\libucosii_bsp.a(alt_remap_cached.o)
 .comment       0x00000000       0x24 ../server_bsp/\libucosii_bsp.a(alt_remap_uncached.o)
 .comment       0x00000000       0x24 ../server_bsp/\libucosii_bsp.a(alt_tick.o)
 .comment       0x00000000       0x24 ../server_bsp/\libucosii_bsp.a(alt_write.o)
 .comment       0x00000000       0x24 ../server_bsp/\libucosii_bsp.a(altera_nios2_qsys_irq.o)
 .comment       0x00000000       0x24 ../server_bsp/\libucosii_bsp.a(os_cpu_c.o)
 .comment       0x00000000       0x24 ../server_bsp/\libucosii_bsp.a(altera_avalon_cfi_flash_amd.o)
 .comment       0x00000000       0x24 ../server_bsp/\libucosii_bsp.a(altera_avalon_cfi_flash_intel.o)
 .comment       0x00000000       0x24 ../server_bsp/\libucosii_bsp.a(altera_avalon_spi.o)
 .comment       0x00000000       0x24 ../server_bsp/\libucosii_bsp.a(allports.o)
 .comment       0x00000000       0x24 ../server_bsp/\libucosii_bsp.a(timeouts.o)
 .comment       0x00000000       0x24 ../server_bsp/\libucosii_bsp.a(tk_misc.o)
 .comment       0x00000000       0x24 ../server_bsp/\libucosii_bsp.a(alt_iniche_fcntl.o)
 .comment       0x00000000       0x24 ../server_bsp/\libucosii_bsp.a(et_arp.o)
 .comment       0x00000000       0x24 ../server_bsp/\libucosii_bsp.a(iface.o)
 .comment       0x00000000       0x24 ../server_bsp/\libucosii_bsp.a(ip.o)
 .comment       0x00000000       0x24 ../server_bsp/\libucosii_bsp.a(ip_reasm.o)
 .comment       0x00000000       0x24 ../server_bsp/\libucosii_bsp.a(ipdemux.o)
 .comment       0x00000000       0x24 ../server_bsp/\libucosii_bsp.a(ipmc.o)
 .comment       0x00000000       0x24 ../server_bsp/\libucosii_bsp.a(ipport.o)
 .comment       0x00000000       0x24 ../server_bsp/\libucosii_bsp.a(ipraw.o)
 .comment       0x00000000       0x24 ../server_bsp/\libucosii_bsp.a(iproute.o)
 .comment       0x00000000       0x24 ../server_bsp/\libucosii_bsp.a(udp.o)
 .comment       0x00000000       0x24 ../server_bsp/\libucosii_bsp.a(igmp.o)
 .comment       0x00000000       0x24 ../server_bsp/\libucosii_bsp.a(igmp2.o)
 .comment       0x00000000       0x24 ../server_bsp/\libucosii_bsp.a(ipopt.o)
 .comment       0x00000000       0x24 ../server_bsp/\libucosii_bsp.a(u_mctest.o)
 .comment       0x00000000       0x24 ../server_bsp/\libucosii_bsp.a(dhcsetup.o)
 .comment       0x00000000       0x24 ../server_bsp/\libucosii_bsp.a(memdev.o)
 .comment       0x00000000       0x24 ../server_bsp/\libucosii_bsp.a(tcpcksum.o)
 .comment       0x00000000       0x24 ../server_bsp/\libucosii_bsp.a(in_pcb.o)
 .comment       0x00000000       0x24 ../server_bsp/\libucosii_bsp.a(vfsfiles.o)
 .comment       0x00000000       0x24 ../server_bsp/\libucosii_bsp.a(vfsport.o)
 .comment       0x00000000       0x24 ../server_bsp/\libucosii_bsp.a(alt_fcntl.o)
 .comment       0x00000000       0x24 ../server_bsp/\libucosii_bsp.a(alt_find_file.o)
 .comment       0x00000000       0x24 ../server_bsp/\libucosii_bsp.a(alt_get_fd.o)
 .comment       0x00000000       0x24 ../server_bsp/\libucosii_bsp.a(icmp.o)
 .comment       0x00000000       0x24 c:/altera/13.0/nios2eds/bin/gnu/h-i686-mingw32/bin/../lib/gcc/nios2-elf/4.1.2/../../../../nios2-elf/lib\libc.a(lib_a-atexit.o)
 .comment       0x00000000       0x24 c:/altera/13.0/nios2eds/bin/gnu/h-i686-mingw32/bin/../lib/gcc/nios2-elf/4.1.2/../../../../nios2-elf/lib\libc.a(lib_a-atoi.o)
 .comment       0x00000000       0x24 c:/altera/13.0/nios2eds/bin/gnu/h-i686-mingw32/bin/../lib/gcc/nios2-elf/4.1.2/../../../../nios2-elf/lib\libc.a(lib_a-calloc.o)
 .comment       0x00000000       0x24 c:/altera/13.0/nios2eds/bin/gnu/h-i686-mingw32/bin/../lib/gcc/nios2-elf/4.1.2/../../../../nios2-elf/lib\libc.a(lib_a-malloc.o)
 .comment       0x00000000       0x24 c:/altera/13.0/nios2eds/bin/gnu/h-i686-mingw32/bin/../lib/gcc/nios2-elf/4.1.2/../../../../nios2-elf/lib\libc.a(lib_a-memcmp.o)
 .comment       0x00000000       0x24 c:/altera/13.0/nios2eds/bin/gnu/h-i686-mingw32/bin/../lib/gcc/nios2-elf/4.1.2/../../../../nios2-elf/lib\libc.a(lib_a-sprintf.o)
 .comment       0x00000000       0x24 c:/altera/13.0/nios2eds/bin/gnu/h-i686-mingw32/bin/../lib/gcc/nios2-elf/4.1.2/../../../../nios2-elf/lib\libc.a(lib_a-strcpy.o)
 .comment       0x00000000       0x24 c:/altera/13.0/nios2eds/bin/gnu/h-i686-mingw32/bin/../lib/gcc/nios2-elf/4.1.2/../../../../nios2-elf/lib\libc.a(lib_a-strncmp.o)
 .comment       0x00000000       0x24 c:/altera/13.0/nios2eds/bin/gnu/h-i686-mingw32/bin/../lib/gcc/nios2-elf/4.1.2/../../../../nios2-elf/lib\libc.a(lib_a-strncpy.o)
 .comment       0x00000000       0x24 c:/altera/13.0/nios2eds/bin/gnu/h-i686-mingw32/bin/../lib/gcc/nios2-elf/4.1.2/../../../../nios2-elf/lib\libc.a(lib_a-strtol.o)
 .comment       0x00000000       0x24 c:/altera/13.0/nios2eds/bin/gnu/h-i686-mingw32/bin/../lib/gcc/nios2-elf/4.1.2/../../../../nios2-elf/lib\libc.a(lib_a-vprintf.o)
 .comment       0x00000000       0x24 c:/altera/13.0/nios2eds/bin/gnu/h-i686-mingw32/bin/../lib/gcc/nios2-elf/4.1.2/../../../../nios2-elf/lib\libc.a(lib_a-vsprintf.o)
 .comment       0x00000000       0x24 c:/altera/13.0/nios2eds/bin/gnu/h-i686-mingw32/bin/../lib/gcc/nios2-elf/4.1.2/../../../../nios2-elf/lib\libc.a(lib_a-__atexit.o)

.debug
 *(.debug)

.line
 *(.line)

.debug_srcinfo
 *(.debug_srcinfo)

.debug_sfnames
 *(.debug_sfnames)

.debug_aranges  0x00000000     0x1b70
 *(.debug_aranges)
 .debug_aranges
                0x00000000       0x20 ../server_bsp//obj/HAL/src/crt0.o
 .debug_aranges
                0x00000020       0x20 obj/default/LCD.o
 .debug_aranges
                0x00000040       0x20 obj/default/SSS_DE2_115.o
 .debug_aranges
                0x00000060       0x20 obj/default/alt_error_handler.o
 .debug_aranges
                0x00000080       0x20 obj/default/dm9000a.o
 .debug_aranges
                0x000000a0       0x20 obj/default/iniche_init.o
 .debug_aranges
                0x000000c0       0x20 obj/default/led.o
 .debug_aranges
                0x000000e0       0x20 obj/default/network_utilities.o
 .debug_aranges
                0x00000100       0x20 obj/default/simple_socket_server.o
 .debug_aranges
                0x00000120       0x20 c:/altera/13.0/nios2eds/bin/gnu/h-i686-mingw32/bin/../lib/gcc/nios2-elf/4.1.2\libgcc.a(_fixunsdfsi.o)
 .debug_aranges
                0x00000140       0x20 c:/altera/13.0/nios2eds/bin/gnu/h-i686-mingw32/bin/../lib/gcc/nios2-elf/4.1.2\libgcc.a(_addsub_df.o)
 .debug_aranges
                0x00000160       0x20 c:/altera/13.0/nios2eds/bin/gnu/h-i686-mingw32/bin/../lib/gcc/nios2-elf/4.1.2\libgcc.a(_mul_df.o)
 .debug_aranges
                0x00000180       0x20 c:/altera/13.0/nios2eds/bin/gnu/h-i686-mingw32/bin/../lib/gcc/nios2-elf/4.1.2\libgcc.a(_ge_df.o)
 .debug_aranges
                0x000001a0       0x20 c:/altera/13.0/nios2eds/bin/gnu/h-i686-mingw32/bin/../lib/gcc/nios2-elf/4.1.2\libgcc.a(_df_to_si.o)
 .debug_aranges
                0x000001c0       0x20 c:/altera/13.0/nios2eds/bin/gnu/h-i686-mingw32/bin/../lib/gcc/nios2-elf/4.1.2\libgcc.a(_usi_to_df.o)
 .debug_aranges
                0x000001e0       0x20 c:/altera/13.0/nios2eds/bin/gnu/h-i686-mingw32/bin/../lib/gcc/nios2-elf/4.1.2\libgcc.a(_muldi3.o)
 .debug_aranges
                0x00000200       0x20 c:/altera/13.0/nios2eds/bin/gnu/h-i686-mingw32/bin/../lib/gcc/nios2-elf/4.1.2\libgcc.a(_clzsi2.o)
 .debug_aranges
                0x00000220       0x20 c:/altera/13.0/nios2eds/bin/gnu/h-i686-mingw32/bin/../lib/gcc/nios2-elf/4.1.2\libgcc.a(_pack_df.o)
 .debug_aranges
                0x00000240       0x20 c:/altera/13.0/nios2eds/bin/gnu/h-i686-mingw32/bin/../lib/gcc/nios2-elf/4.1.2\libgcc.a(_unpack_df.o)
 .debug_aranges
                0x00000260       0x20 c:/altera/13.0/nios2eds/bin/gnu/h-i686-mingw32/bin/../lib/gcc/nios2-elf/4.1.2\libgcc.a(_fpcmp_parts_df.o)
 .debug_aranges
                0x00000280       0x20 c:/altera/13.0/nios2eds/bin/gnu/h-i686-mingw32/bin/../lib/gcc/nios2-elf/4.1.2/../../../../nios2-elf/lib\libc.a(lib_a-exit.o)
 .debug_aranges
                0x000002a0       0x20 c:/altera/13.0/nios2eds/bin/gnu/h-i686-mingw32/bin/../lib/gcc/nios2-elf/4.1.2/../../../../nios2-elf/lib\libc.a(lib_a-fprintf.o)
 .debug_aranges
                0x000002c0       0x20 c:/altera/13.0/nios2eds/bin/gnu/h-i686-mingw32/bin/../lib/gcc/nios2-elf/4.1.2/../../../../nios2-elf/lib\libc.a(lib_a-fwrite.o)
 .debug_aranges
                0x000002e0       0x20 c:/altera/13.0/nios2eds/bin/gnu/h-i686-mingw32/bin/../lib/gcc/nios2-elf/4.1.2/../../../../nios2-elf/lib\libc.a(lib_a-getc.o)
 .debug_aranges
                0x00000300       0x20 c:/altera/13.0/nios2eds/bin/gnu/h-i686-mingw32/bin/../lib/gcc/nios2-elf/4.1.2/../../../../nios2-elf/lib\libc.a(lib_a-memcpy.o)
 .debug_aranges
                0x00000320       0x20 c:/altera/13.0/nios2eds/bin/gnu/h-i686-mingw32/bin/../lib/gcc/nios2-elf/4.1.2/../../../../nios2-elf/lib\libc.a(lib_a-memmove.o)
 .debug_aranges
                0x00000340       0x20 c:/altera/13.0/nios2eds/bin/gnu/h-i686-mingw32/bin/../lib/gcc/nios2-elf/4.1.2/../../../../nios2-elf/lib\libc.a(lib_a-memset.o)
 .debug_aranges
                0x00000360       0x20 c:/altera/13.0/nios2eds/bin/gnu/h-i686-mingw32/bin/../lib/gcc/nios2-elf/4.1.2/../../../../nios2-elf/lib\libc.a(lib_a-perror.o)
 .debug_aranges
                0x00000380       0x20 c:/altera/13.0/nios2eds/bin/gnu/h-i686-mingw32/bin/../lib/gcc/nios2-elf/4.1.2/../../../../nios2-elf/lib\libc.a(lib_a-printf.o)
 .debug_aranges
                0x000003a0       0x20 c:/altera/13.0/nios2eds/bin/gnu/h-i686-mingw32/bin/../lib/gcc/nios2-elf/4.1.2/../../../../nios2-elf/lib\libc.a(lib_a-putc.o)
 .debug_aranges
                0x000003c0       0x20 c:/altera/13.0/nios2eds/bin/gnu/h-i686-mingw32/bin/../lib/gcc/nios2-elf/4.1.2/../../../../nios2-elf/lib\libc.a(lib_a-putchar.o)
 .debug_aranges
                0x000003e0       0x20 c:/altera/13.0/nios2eds/bin/gnu/h-i686-mingw32/bin/../lib/gcc/nios2-elf/4.1.2/../../../../nios2-elf/lib\libc.a(lib_a-puts.o)
 .debug_aranges
                0x00000400       0x20 c:/altera/13.0/nios2eds/bin/gnu/h-i686-mingw32/bin/../lib/gcc/nios2-elf/4.1.2/../../../../nios2-elf/lib\libc.a(lib_a-rget.o)
 .debug_aranges
                0x00000420       0x20 c:/altera/13.0/nios2eds/bin/gnu/h-i686-mingw32/bin/../lib/gcc/nios2-elf/4.1.2/../../../../nios2-elf/lib\libc.a(lib_a-strchr.o)
 .debug_aranges
                0x00000440       0x20 c:/altera/13.0/nios2eds/bin/gnu/h-i686-mingw32/bin/../lib/gcc/nios2-elf/4.1.2/../../../../nios2-elf/lib\libc.a(lib_a-strerror.o)
 .debug_aranges
                0x00000460       0x20 c:/altera/13.0/nios2eds/bin/gnu/h-i686-mingw32/bin/../lib/gcc/nios2-elf/4.1.2/../../../../nios2-elf/lib\libc.a(lib_a-strlen.o)
 .debug_aranges
                0x00000480       0x20 c:/altera/13.0/nios2eds/bin/gnu/h-i686-mingw32/bin/../lib/gcc/nios2-elf/4.1.2/../../../../nios2-elf/lib\libc.a(lib_a-u_strerr.o)
 .debug_aranges
                0x000004a0       0x20 c:/altera/13.0/nios2eds/bin/gnu/h-i686-mingw32/bin/../lib/gcc/nios2-elf/4.1.2/../../../../nios2-elf/lib\libc.a(lib_a-vfprintf.o)
 .debug_aranges
                0x000004c0       0x20 c:/altera/13.0/nios2eds/bin/gnu/h-i686-mingw32/bin/../lib/gcc/nios2-elf/4.1.2/../../../../nios2-elf/lib\libc.a(lib_a-wbuf.o)
 .debug_aranges
                0x000004e0       0x20 c:/altera/13.0/nios2eds/bin/gnu/h-i686-mingw32/bin/../lib/gcc/nios2-elf/4.1.2/../../../../nios2-elf/lib\libc.a(lib_a-wsetup.o)
 .debug_aranges
                0x00000500       0x20 c:/altera/13.0/nios2eds/bin/gnu/h-i686-mingw32/bin/../lib/gcc/nios2-elf/4.1.2/../../../../nios2-elf/lib\libc.a(lib_a-__call_atexit.o)
 .debug_aranges
                0x00000520       0x20 c:/altera/13.0/nios2eds/bin/gnu/h-i686-mingw32/bin/../lib/gcc/nios2-elf/4.1.2/../../../../nios2-elf/lib\libc.a(lib_a-dtoa.o)
 .debug_aranges
                0x00000540       0x20 c:/altera/13.0/nios2eds/bin/gnu/h-i686-mingw32/bin/../lib/gcc/nios2-elf/4.1.2/../../../../nios2-elf/lib\libc.a(lib_a-fflush.o)
 .debug_aranges
                0x00000560       0x20 c:/altera/13.0/nios2eds/bin/gnu/h-i686-mingw32/bin/../lib/gcc/nios2-elf/4.1.2/../../../../nios2-elf/lib\libc.a(lib_a-findfp.o)
 .debug_aranges
                0x00000580       0x20 c:/altera/13.0/nios2eds/bin/gnu/h-i686-mingw32/bin/../lib/gcc/nios2-elf/4.1.2/../../../../nios2-elf/lib\libc.a(lib_a-fputc.o)
 .debug_aranges
                0x000005a0       0x20 c:/altera/13.0/nios2eds/bin/gnu/h-i686-mingw32/bin/../lib/gcc/nios2-elf/4.1.2/../../../../nios2-elf/lib\libc.a(lib_a-fputs.o)
 .debug_aranges
                0x000005c0       0x20 c:/altera/13.0/nios2eds/bin/gnu/h-i686-mingw32/bin/../lib/gcc/nios2-elf/4.1.2/../../../../nios2-elf/lib\libc.a(lib_a-freer.o)
 .debug_aranges
                0x000005e0       0x20 c:/altera/13.0/nios2eds/bin/gnu/h-i686-mingw32/bin/../lib/gcc/nios2-elf/4.1.2/../../../../nios2-elf/lib\libc.a(lib_a-fvwrite.o)
 .debug_aranges
                0x00000600       0x20 c:/altera/13.0/nios2eds/bin/gnu/h-i686-mingw32/bin/../lib/gcc/nios2-elf/4.1.2/../../../../nios2-elf/lib\libc.a(lib_a-fwalk.o)
 .debug_aranges
                0x00000620       0x20 c:/altera/13.0/nios2eds/bin/gnu/h-i686-mingw32/bin/../lib/gcc/nios2-elf/4.1.2/../../../../nios2-elf/lib\libc.a(lib_a-locale.o)
 .debug_aranges
                0x00000640       0x20 c:/altera/13.0/nios2eds/bin/gnu/h-i686-mingw32/bin/../lib/gcc/nios2-elf/4.1.2/../../../../nios2-elf/lib\libc.a(lib_a-makebuf.o)
 .debug_aranges
                0x00000660       0x20 c:/altera/13.0/nios2eds/bin/gnu/h-i686-mingw32/bin/../lib/gcc/nios2-elf/4.1.2/../../../../nios2-elf/lib\libc.a(lib_a-mallocr.o)
 .debug_aranges
                0x00000680       0x20 c:/altera/13.0/nios2eds/bin/gnu/h-i686-mingw32/bin/../lib/gcc/nios2-elf/4.1.2/../../../../nios2-elf/lib\libc.a(lib_a-memchr.o)
 .debug_aranges
                0x000006a0       0x20 c:/altera/13.0/nios2eds/bin/gnu/h-i686-mingw32/bin/../lib/gcc/nios2-elf/4.1.2/../../../../nios2-elf/lib\libc.a(lib_a-mprec.o)
 .debug_aranges
                0x000006c0       0x20 c:/altera/13.0/nios2eds/bin/gnu/h-i686-mingw32/bin/../lib/gcc/nios2-elf/4.1.2/../../../../nios2-elf/lib\libc.a(lib_a-reallocr.o)
 .debug_aranges
                0x000006e0       0x20 c:/altera/13.0/nios2eds/bin/gnu/h-i686-mingw32/bin/../lib/gcc/nios2-elf/4.1.2/../../../../nios2-elf/lib\libc.a(lib_a-refill.o)
 .debug_aranges
                0x00000700       0x20 c:/altera/13.0/nios2eds/bin/gnu/h-i686-mingw32/bin/../lib/gcc/nios2-elf/4.1.2/../../../../nios2-elf/lib\libc.a(lib_a-s_isinfd.o)
 .debug_aranges
                0x00000720       0x20 c:/altera/13.0/nios2eds/bin/gnu/h-i686-mingw32/bin/../lib/gcc/nios2-elf/4.1.2/../../../../nios2-elf/lib\libc.a(lib_a-s_isnand.o)
 .debug_aranges
                0x00000740       0x20 c:/altera/13.0/nios2eds/bin/gnu/h-i686-mingw32/bin/../lib/gcc/nios2-elf/4.1.2/../../../../nios2-elf/lib\libc.a(lib_a-sbrkr.o)
 .debug_aranges
                0x00000760       0x20 c:/altera/13.0/nios2eds/bin/gnu/h-i686-mingw32/bin/../lib/gcc/nios2-elf/4.1.2/../../../../nios2-elf/lib\libc.a(lib_a-stdio.o)
 .debug_aranges
                0x00000780       0x20 c:/altera/13.0/nios2eds/bin/gnu/h-i686-mingw32/bin/../lib/gcc/nios2-elf/4.1.2/../../../../nios2-elf/lib\libc.a(lib_a-strcmp.o)
 .debug_aranges
                0x000007a0       0x20 c:/altera/13.0/nios2eds/bin/gnu/h-i686-mingw32/bin/../lib/gcc/nios2-elf/4.1.2/../../../../nios2-elf/lib\libc.a(lib_a-writer.o)
 .debug_aranges
                0x000007c0       0x20 c:/altera/13.0/nios2eds/bin/gnu/h-i686-mingw32/bin/../lib/gcc/nios2-elf/4.1.2/../../../../nios2-elf/lib\libc.a(lib_a-callocr.o)
 .debug_aranges
                0x000007e0       0x20 c:/altera/13.0/nios2eds/bin/gnu/h-i686-mingw32/bin/../lib/gcc/nios2-elf/4.1.2/../../../../nios2-elf/lib\libc.a(lib_a-closer.o)
 .debug_aranges
                0x00000800       0x20 c:/altera/13.0/nios2eds/bin/gnu/h-i686-mingw32/bin/../lib/gcc/nios2-elf/4.1.2/../../../../nios2-elf/lib\libc.a(lib_a-fclose.o)
 .debug_aranges
                0x00000820       0x20 c:/altera/13.0/nios2eds/bin/gnu/h-i686-mingw32/bin/../lib/gcc/nios2-elf/4.1.2/../../../../nios2-elf/lib\libc.a(lib_a-fstatr.o)
 .debug_aranges
                0x00000840       0x20 c:/altera/13.0/nios2eds/bin/gnu/h-i686-mingw32/bin/../lib/gcc/nios2-elf/4.1.2/../../../../nios2-elf/lib\libc.a(lib_a-isattyr.o)
 .debug_aranges
                0x00000860       0x20 c:/altera/13.0/nios2eds/bin/gnu/h-i686-mingw32/bin/../lib/gcc/nios2-elf/4.1.2/../../../../nios2-elf/lib\libc.a(lib_a-lseekr.o)
 .debug_aranges
                0x00000880       0x20 c:/altera/13.0/nios2eds/bin/gnu/h-i686-mingw32/bin/../lib/gcc/nios2-elf/4.1.2/../../../../nios2-elf/lib\libc.a(lib_a-readr.o)
 .debug_aranges
                0x000008a0       0x20 c:/altera/13.0/nios2eds/bin/gnu/h-i686-mingw32/bin/../lib/gcc/nios2-elf/4.1.2\libgcc.a(_udivdi3.o)
 .debug_aranges
                0x000008c0       0x20 c:/altera/13.0/nios2eds/bin/gnu/h-i686-mingw32/bin/../lib/gcc/nios2-elf/4.1.2\libgcc.a(_umoddi3.o)
 .debug_aranges
                0x000008e0       0x20 c:/altera/13.0/nios2eds/bin/gnu/h-i686-mingw32/bin/../lib/gcc/nios2-elf/4.1.2\libgcc.a(_div_df.o)
 .debug_aranges
                0x00000900       0x20 c:/altera/13.0/nios2eds/bin/gnu/h-i686-mingw32/bin/../lib/gcc/nios2-elf/4.1.2\libgcc.a(_eq_df.o)
 .debug_aranges
                0x00000920       0x20 c:/altera/13.0/nios2eds/bin/gnu/h-i686-mingw32/bin/../lib/gcc/nios2-elf/4.1.2\libgcc.a(_ne_df.o)
 .debug_aranges
                0x00000940       0x20 c:/altera/13.0/nios2eds/bin/gnu/h-i686-mingw32/bin/../lib/gcc/nios2-elf/4.1.2\libgcc.a(_gt_df.o)
 .debug_aranges
                0x00000960       0x20 c:/altera/13.0/nios2eds/bin/gnu/h-i686-mingw32/bin/../lib/gcc/nios2-elf/4.1.2\libgcc.a(_lt_df.o)
 .debug_aranges
                0x00000980       0x20 c:/altera/13.0/nios2eds/bin/gnu/h-i686-mingw32/bin/../lib/gcc/nios2-elf/4.1.2\libgcc.a(_si_to_df.o)
 .debug_aranges
                0x000009a0       0x20 c:/altera/13.0/nios2eds/bin/gnu/h-i686-mingw32/bin/../lib/gcc/nios2-elf/4.1.2\libgcc.a(lib2-divmod.o)
 .debug_aranges
                0x000009c0       0x20 ../server_bsp/\libucosii_bsp.a(alt_exit.o)
 .debug_aranges
                0x000009e0       0x20 ../server_bsp/\libucosii_bsp.a(alt_flash_dev.o)
 .debug_aranges
                0x00000a00       0x20 ../server_bsp/\libucosii_bsp.a(alt_fstat.o)
 .debug_aranges
                0x00000a20       0x20 ../server_bsp/\libucosii_bsp.a(alt_irq_register.o)
 .debug_aranges
                0x00000a40       0x20 ../server_bsp/\libucosii_bsp.a(alt_isatty.o)
 .debug_aranges
                0x00000a60       0x20 ../server_bsp/\libucosii_bsp.a(alt_lseek.o)
 .debug_aranges
                0x00000a80       0x20 ../server_bsp/\libucosii_bsp.a(alt_main.o)
 .debug_aranges
                0x00000aa0       0x20 ../server_bsp/\libucosii_bsp.a(alt_sbrk.o)
 .debug_aranges
                0x00000ac0       0x20 ../server_bsp/\libucosii_bsp.a(alt_usleep.o)
 .debug_aranges
                0x00000ae0       0x20 ../server_bsp/\libucosii_bsp.a(alt_env_lock.o)
 .debug_aranges
                0x00000b00       0x20 ../server_bsp/\libucosii_bsp.a(alt_malloc_lock.o)
 .debug_aranges
                0x00000b20       0x20 ../server_bsp/\libucosii_bsp.a(os_core.o)
 .debug_aranges
                0x00000b40       0x20 ../server_bsp/\libucosii_bsp.a(os_dbg.o)
 .debug_aranges
                0x00000b60       0x20 ../server_bsp/\libucosii_bsp.a(os_flag.o)
 .debug_aranges
                0x00000b80       0x20 ../server_bsp/\libucosii_bsp.a(os_mem.o)
 .debug_aranges
                0x00000ba0       0x20 ../server_bsp/\libucosii_bsp.a(os_q.o)
 .debug_aranges
                0x00000bc0       0x20 ../server_bsp/\libucosii_bsp.a(os_sem.o)
 .debug_aranges
                0x00000be0       0x20 ../server_bsp/\libucosii_bsp.a(os_task.o)
 .debug_aranges
                0x00000c00       0x20 ../server_bsp/\libucosii_bsp.a(os_time.o)
 .debug_aranges
                0x00000c20       0x20 ../server_bsp/\libucosii_bsp.a(alt_sys_init.o)
 .debug_aranges
                0x00000c40       0x20 ../server_bsp/\libucosii_bsp.a(altera_avalon_cfi_flash.o)
 .debug_aranges
                0x00000c60       0x20 ../server_bsp/\libucosii_bsp.a(altera_avalon_cfi_flash_table.o)
 .debug_aranges
                0x00000c80       0x20 ../server_bsp/\libucosii_bsp.a(altera_avalon_epcs_flash_controller.o)
 .debug_aranges
                0x00000ca0       0x20 ../server_bsp/\libucosii_bsp.a(altera_avalon_jtag_uart_fd.o)
 .debug_aranges
                0x00000cc0       0x20 ../server_bsp/\libucosii_bsp.a(altera_avalon_jtag_uart_init.o)
 .debug_aranges
                0x00000ce0       0x20 ../server_bsp/\libucosii_bsp.a(altera_avalon_jtag_uart_ioctl.o)
 .debug_aranges
                0x00000d00       0x20 ../server_bsp/\libucosii_bsp.a(altera_avalon_jtag_uart_read.o)
 .debug_aranges
                0x00000d20       0x20 ../server_bsp/\libucosii_bsp.a(altera_avalon_jtag_uart_write.o)
 .debug_aranges
                0x00000d40       0x20 ../server_bsp/\libucosii_bsp.a(altera_avalon_lcd_16207.o)
 .debug_aranges
                0x00000d60       0x20 ../server_bsp/\libucosii_bsp.a(altera_avalon_lcd_16207_fd.o)
 .debug_aranges
                0x00000d80       0x20 ../server_bsp/\libucosii_bsp.a(altera_avalon_timer_sc.o)
 .debug_aranges
                0x00000da0       0x20 ../server_bsp/\libucosii_bsp.a(altera_avalon_uart_fd.o)
 .debug_aranges
                0x00000dc0       0x20 ../server_bsp/\libucosii_bsp.a(altera_avalon_uart_init.o)
 .debug_aranges
                0x00000de0       0x20 ../server_bsp/\libucosii_bsp.a(altera_avalon_uart_read.o)
 .debug_aranges
                0x00000e00       0x20 ../server_bsp/\libucosii_bsp.a(altera_avalon_uart_write.o)
 .debug_aranges
                0x00000e20       0x20 ../server_bsp/\libucosii_bsp.a(epcs_commands.o)
 .debug_aranges
                0x00000e40       0x20 ../server_bsp/\libucosii_bsp.a(alt_iniche_close.o)
 .debug_aranges
                0x00000e60       0x20 ../server_bsp/\libucosii_bsp.a(alt_iniche_dev.o)
 .debug_aranges
                0x00000e80       0x20 ../server_bsp/\libucosii_bsp.a(alt_iniche_read.o)
 .debug_aranges
                0x00000ea0       0x20 ../server_bsp/\libucosii_bsp.a(alt_iniche_write.o)
 .debug_aranges
                0x00000ec0       0x20 ../server_bsp/\libucosii_bsp.a(ipnet.o)
 .debug_aranges
                0x00000ee0       0x20 ../server_bsp/\libucosii_bsp.a(ipstart.o)
 .debug_aranges
                0x00000f00       0x20 ../server_bsp/\libucosii_bsp.a(igmp_cmn.o)
 .debug_aranges
                0x00000f20       0x20 ../server_bsp/\libucosii_bsp.a(bsdsock.o)
 .debug_aranges
                0x00000f40       0x20 ../server_bsp/\libucosii_bsp.a(cksum.o)
 .debug_aranges
                0x00000f60       0x20 ../server_bsp/\libucosii_bsp.a(in_utils.o)
 .debug_aranges
                0x00000f80       0x20 ../server_bsp/\libucosii_bsp.a(netmain.o)
 .debug_aranges
                0x00000fa0       0x20 ../server_bsp/\libucosii_bsp.a(parseip.o)
 .debug_aranges
                0x00000fc0       0x20 ../server_bsp/\libucosii_bsp.a(tk_crnos.o)
 .debug_aranges
                0x00000fe0       0x20 ../server_bsp/\libucosii_bsp.a(dhcpclnt.o)
 .debug_aranges
                0x00001000       0x20 ../server_bsp/\libucosii_bsp.a(dhcputil.o)
 .debug_aranges
                0x00001020       0x20 ../server_bsp/\libucosii_bsp.a(pktalloc.o)
 .debug_aranges
                0x00001040       0x20 ../server_bsp/\libucosii_bsp.a(q.o)
 .debug_aranges
                0x00001060       0x20 ../server_bsp/\libucosii_bsp.a(udp_open.o)
 .debug_aranges
                0x00001080       0x20 ../server_bsp/\libucosii_bsp.a(asm_cksum.o)
 .debug_aranges
                0x000010a0       0x20 ../server_bsp/\libucosii_bsp.a(brdutils.o)
 .debug_aranges
                0x000010c0       0x20 ../server_bsp/\libucosii_bsp.a(osportco.o)
 .debug_aranges
                0x000010e0       0x20 ../server_bsp/\libucosii_bsp.a(targnios.o)
 .debug_aranges
                0x00001100       0x20 ../server_bsp/\libucosii_bsp.a(nptcp.o)
 .debug_aranges
                0x00001120       0x20 ../server_bsp/\libucosii_bsp.a(rawsock.o)
 .debug_aranges
                0x00001140       0x20 ../server_bsp/\libucosii_bsp.a(sockcall.o)
 .debug_aranges
                0x00001160       0x20 ../server_bsp/\libucosii_bsp.a(socket.o)
 .debug_aranges
                0x00001180       0x20 ../server_bsp/\libucosii_bsp.a(socket2.o)
 .debug_aranges
                0x000011a0       0x20 ../server_bsp/\libucosii_bsp.a(soselect.o)
 .debug_aranges
                0x000011c0       0x20 ../server_bsp/\libucosii_bsp.a(tcp_in.o)
 .debug_aranges
                0x000011e0       0x20 ../server_bsp/\libucosii_bsp.a(tcp_out.o)
 .debug_aranges
                0x00001200       0x20 ../server_bsp/\libucosii_bsp.a(tcp_subr.o)
 .debug_aranges
                0x00001220       0x20 ../server_bsp/\libucosii_bsp.a(tcp_timr.o)
 .debug_aranges
                0x00001240       0x20 ../server_bsp/\libucosii_bsp.a(tcp_usr.o)
 .debug_aranges
                0x00001260       0x20 ../server_bsp/\libucosii_bsp.a(tcpport.o)
 .debug_aranges
                0x00001280       0x20 ../server_bsp/\libucosii_bsp.a(udpsock.o)
 .debug_aranges
                0x000012a0       0x20 ../server_bsp/\libucosii_bsp.a(alt_alarm_start.o)
 .debug_aranges
                0x000012c0       0x20 ../server_bsp/\libucosii_bsp.a(alt_busy_sleep.o)
 .debug_aranges
                0x000012e0       0x20 ../server_bsp/\libucosii_bsp.a(alt_close.o)
 .debug_aranges
                0x00001300       0x20 ../server_bsp/\libucosii_bsp.a(alt_dcache_flush.o)
 .debug_aranges
                0x00001320       0x20 ../server_bsp/\libucosii_bsp.a(alt_dev.o)
 .debug_aranges
                0x00001340       0x20 ../server_bsp/\libucosii_bsp.a(alt_dev_llist_insert.o)
 .debug_aranges
                0x00001360       0x20 ../server_bsp/\libucosii_bsp.a(alt_do_ctors.o)
 .debug_aranges
                0x00001380       0x20 ../server_bsp/\libucosii_bsp.a(alt_do_dtors.o)
 .debug_aranges
                0x000013a0       0x20 ../server_bsp/\libucosii_bsp.a(alt_find_dev.o)
 .debug_aranges
                0x000013c0       0x20 ../server_bsp/\libucosii_bsp.a(alt_iic.o)
 .debug_aranges
                0x000013e0       0x20 ../server_bsp/\libucosii_bsp.a(alt_iic_isr_register.o)
 .debug_aranges
                0x00001400       0x20 ../server_bsp/\libucosii_bsp.a(alt_io_redirect.o)
 .debug_aranges
                0x00001420       0x30 ../server_bsp/\libucosii_bsp.a(alt_irq_entry.o)
 .debug_aranges
                0x00001450       0x28 ../server_bsp/\libucosii_bsp.a(alt_irq_handler.o)
 .debug_aranges
                0x00001478       0x20 ../server_bsp/\libucosii_bsp.a(alt_open.o)
 .debug_aranges
                0x00001498       0x20 ../server_bsp/\libucosii_bsp.a(alt_read.o)
 .debug_aranges
                0x000014b8       0x20 ../server_bsp/\libucosii_bsp.a(alt_release_fd.o)
 .debug_aranges
                0x000014d8       0x20 ../server_bsp/\libucosii_bsp.a(alt_remap_cached.o)
 .debug_aranges
                0x000014f8       0x20 ../server_bsp/\libucosii_bsp.a(alt_remap_uncached.o)
 .debug_aranges
                0x00001518       0x20 ../server_bsp/\libucosii_bsp.a(alt_tick.o)
 .debug_aranges
                0x00001538       0x20 ../server_bsp/\libucosii_bsp.a(alt_write.o)
 .debug_aranges
                0x00001558       0x20 ../server_bsp/\libucosii_bsp.a(altera_nios2_qsys_irq.o)
 .debug_aranges
                0x00001578       0x20 ../server_bsp/\libucosii_bsp.a(os_cpu_a.o)
 .debug_aranges
                0x00001598       0x20 ../server_bsp/\libucosii_bsp.a(os_cpu_c.o)
 .debug_aranges
                0x000015b8       0x20 ../server_bsp/\libucosii_bsp.a(altera_avalon_cfi_flash_amd.o)
 .debug_aranges
                0x000015d8       0x20 ../server_bsp/\libucosii_bsp.a(altera_avalon_cfi_flash_intel.o)
 .debug_aranges
                0x000015f8       0x20 ../server_bsp/\libucosii_bsp.a(altera_avalon_spi.o)
 .debug_aranges
                0x00001618       0x20 ../server_bsp/\libucosii_bsp.a(allports.o)
 .debug_aranges
                0x00001638       0x20 ../server_bsp/\libucosii_bsp.a(timeouts.o)
 .debug_aranges
                0x00001658       0x20 ../server_bsp/\libucosii_bsp.a(tk_misc.o)
 .debug_aranges
                0x00001678       0x20 ../server_bsp/\libucosii_bsp.a(alt_iniche_fcntl.o)
 .debug_aranges
                0x00001698       0x20 ../server_bsp/\libucosii_bsp.a(et_arp.o)
 .debug_aranges
                0x000016b8       0x20 ../server_bsp/\libucosii_bsp.a(iface.o)
 .debug_aranges
                0x000016d8       0x20 ../server_bsp/\libucosii_bsp.a(ip.o)
 .debug_aranges
                0x000016f8       0x20 ../server_bsp/\libucosii_bsp.a(ip_reasm.o)
 .debug_aranges
                0x00001718       0x20 ../server_bsp/\libucosii_bsp.a(ipdemux.o)
 .debug_aranges
                0x00001738       0x20 ../server_bsp/\libucosii_bsp.a(ipmc.o)
 .debug_aranges
                0x00001758       0x20 ../server_bsp/\libucosii_bsp.a(ipport.o)
 .debug_aranges
                0x00001778       0x20 ../server_bsp/\libucosii_bsp.a(ipraw.o)
 .debug_aranges
                0x00001798       0x20 ../server_bsp/\libucosii_bsp.a(iproute.o)
 .debug_aranges
                0x000017b8       0x20 ../server_bsp/\libucosii_bsp.a(udp.o)
 .debug_aranges
                0x000017d8       0x20 ../server_bsp/\libucosii_bsp.a(igmp.o)
 .debug_aranges
                0x000017f8       0x20 ../server_bsp/\libucosii_bsp.a(igmp2.o)
 .debug_aranges
                0x00001818       0x20 ../server_bsp/\libucosii_bsp.a(ipopt.o)
 .debug_aranges
                0x00001838       0x20 ../server_bsp/\libucosii_bsp.a(u_mctest.o)
 .debug_aranges
                0x00001858       0x20 ../server_bsp/\libucosii_bsp.a(dhcsetup.o)
 .debug_aranges
                0x00001878       0x20 ../server_bsp/\libucosii_bsp.a(memdev.o)
 .debug_aranges
                0x00001898       0x20 ../server_bsp/\libucosii_bsp.a(tcpcksum.o)
 .debug_aranges
                0x000018b8       0x20 ../server_bsp/\libucosii_bsp.a(in_pcb.o)
 .debug_aranges
                0x000018d8       0x20 ../server_bsp/\libucosii_bsp.a(vfsfiles.o)
 .debug_aranges
                0x000018f8       0x20 ../server_bsp/\libucosii_bsp.a(vfsport.o)
 .debug_aranges
                0x00001918       0x38 ../server_bsp/\libucosii_bsp.a(alt_exception_entry.o)
 .debug_aranges
                0x00001950       0x20 ../server_bsp/\libucosii_bsp.a(alt_fcntl.o)
 .debug_aranges
                0x00001970       0x20 ../server_bsp/\libucosii_bsp.a(alt_find_file.o)
 .debug_aranges
                0x00001990       0x20 ../server_bsp/\libucosii_bsp.a(alt_get_fd.o)
 .debug_aranges
                0x000019b0       0x20 ../server_bsp/\libucosii_bsp.a(icmp.o)
 .debug_aranges
                0x000019d0       0x20 c:/altera/13.0/nios2eds/bin/gnu/h-i686-mingw32/bin/../lib/gcc/nios2-elf/4.1.2/../../../../nios2-elf/lib\libc.a(lib_a-atexit.o)
 .debug_aranges
                0x000019f0       0x20 c:/altera/13.0/nios2eds/bin/gnu/h-i686-mingw32/bin/../lib/gcc/nios2-elf/4.1.2/../../../../nios2-elf/lib\libc.a(lib_a-atoi.o)
 .debug_aranges
                0x00001a10       0x20 c:/altera/13.0/nios2eds/bin/gnu/h-i686-mingw32/bin/../lib/gcc/nios2-elf/4.1.2/../../../../nios2-elf/lib\libc.a(lib_a-calloc.o)
 .debug_aranges
                0x00001a30       0x20 c:/altera/13.0/nios2eds/bin/gnu/h-i686-mingw32/bin/../lib/gcc/nios2-elf/4.1.2/../../../../nios2-elf/lib\libc.a(lib_a-malloc.o)
 .debug_aranges
                0x00001a50       0x20 c:/altera/13.0/nios2eds/bin/gnu/h-i686-mingw32/bin/../lib/gcc/nios2-elf/4.1.2/../../../../nios2-elf/lib\libc.a(lib_a-memcmp.o)
 .debug_aranges
                0x00001a70       0x20 c:/altera/13.0/nios2eds/bin/gnu/h-i686-mingw32/bin/../lib/gcc/nios2-elf/4.1.2/../../../../nios2-elf/lib\libc.a(lib_a-sprintf.o)
 .debug_aranges
                0x00001a90       0x20 c:/altera/13.0/nios2eds/bin/gnu/h-i686-mingw32/bin/../lib/gcc/nios2-elf/4.1.2/../../../../nios2-elf/lib\libc.a(lib_a-strcpy.o)
 .debug_aranges
                0x00001ab0       0x20 c:/altera/13.0/nios2eds/bin/gnu/h-i686-mingw32/bin/../lib/gcc/nios2-elf/4.1.2/../../../../nios2-elf/lib\libc.a(lib_a-strncmp.o)
 .debug_aranges
                0x00001ad0       0x20 c:/altera/13.0/nios2eds/bin/gnu/h-i686-mingw32/bin/../lib/gcc/nios2-elf/4.1.2/../../../../nios2-elf/lib\libc.a(lib_a-strncpy.o)
 .debug_aranges
                0x00001af0       0x20 c:/altera/13.0/nios2eds/bin/gnu/h-i686-mingw32/bin/../lib/gcc/nios2-elf/4.1.2/../../../../nios2-elf/lib\libc.a(lib_a-strtol.o)
 .debug_aranges
                0x00001b10       0x20 c:/altera/13.0/nios2eds/bin/gnu/h-i686-mingw32/bin/../lib/gcc/nios2-elf/4.1.2/../../../../nios2-elf/lib\libc.a(lib_a-vprintf.o)
 .debug_aranges
                0x00001b30       0x20 c:/altera/13.0/nios2eds/bin/gnu/h-i686-mingw32/bin/../lib/gcc/nios2-elf/4.1.2/../../../../nios2-elf/lib\libc.a(lib_a-vsprintf.o)
 .debug_aranges
                0x00001b50       0x20 c:/altera/13.0/nios2eds/bin/gnu/h-i686-mingw32/bin/../lib/gcc/nios2-elf/4.1.2/../../../../nios2-elf/lib\libc.a(lib_a-__atexit.o)

.debug_pubnames
                0x00000000     0x55de
 *(.debug_pubnames)
 .debug_pubnames
                0x00000000       0x68 obj/default/LCD.o
 .debug_pubnames
                0x00000068       0x7c obj/default/SSS_DE2_115.o
 .debug_pubnames
                0x000000e4       0x61 obj/default/alt_error_handler.o
 .debug_pubnames
                0x00000145      0x102 obj/default/dm9000a.o
 .debug_pubnames
                0x00000247       0x73 obj/default/iniche_init.o
 .debug_pubnames
                0x000002ba       0x54 obj/default/led.o
 .debug_pubnames
                0x0000030e       0xc9 obj/default/network_utilities.o
 .debug_pubnames
                0x000003d7      0x154 obj/default/simple_socket_server.o
 .debug_pubnames
                0x0000052b       0x23 c:/altera/13.0/nios2eds/bin/gnu/h-i686-mingw32/bin/../lib/gcc/nios2-elf/4.1.2\libgcc.a(_fixunsdfsi.o)
 .debug_pubnames
                0x0000054e       0x2c c:/altera/13.0/nios2eds/bin/gnu/h-i686-mingw32/bin/../lib/gcc/nios2-elf/4.1.2\libgcc.a(_addsub_df.o)
 .debug_pubnames
                0x0000057a       0x1f c:/altera/13.0/nios2eds/bin/gnu/h-i686-mingw32/bin/../lib/gcc/nios2-elf/4.1.2\libgcc.a(_mul_df.o)
 .debug_pubnames
                0x00000599       0x1e c:/altera/13.0/nios2eds/bin/gnu/h-i686-mingw32/bin/../lib/gcc/nios2-elf/4.1.2\libgcc.a(_ge_df.o)
 .debug_pubnames
                0x000005b7       0x20 c:/altera/13.0/nios2eds/bin/gnu/h-i686-mingw32/bin/../lib/gcc/nios2-elf/4.1.2\libgcc.a(_df_to_si.o)
 .debug_pubnames
                0x000005d7       0x22 c:/altera/13.0/nios2eds/bin/gnu/h-i686-mingw32/bin/../lib/gcc/nios2-elf/4.1.2\libgcc.a(_thenan_df.o)
 .debug_pubnames
                0x000005f9       0x24 c:/altera/13.0/nios2eds/bin/gnu/h-i686-mingw32/bin/../lib/gcc/nios2-elf/4.1.2\libgcc.a(_usi_to_df.o)
 .debug_pubnames
                0x0000061d       0x1f c:/altera/13.0/nios2eds/bin/gnu/h-i686-mingw32/bin/../lib/gcc/nios2-elf/4.1.2\libgcc.a(_muldi3.o)
 .debug_pubnames
                0x0000063c       0x1f c:/altera/13.0/nios2eds/bin/gnu/h-i686-mingw32/bin/../lib/gcc/nios2-elf/4.1.2\libgcc.a(_clzsi2.o)
 .debug_pubnames
                0x0000065b       0x1f c:/altera/13.0/nios2eds/bin/gnu/h-i686-mingw32/bin/../lib/gcc/nios2-elf/4.1.2\libgcc.a(_pack_df.o)
 .debug_pubnames
                0x0000067a       0x21 c:/altera/13.0/nios2eds/bin/gnu/h-i686-mingw32/bin/../lib/gcc/nios2-elf/4.1.2\libgcc.a(_unpack_df.o)
 .debug_pubnames
                0x0000069b       0x26 c:/altera/13.0/nios2eds/bin/gnu/h-i686-mingw32/bin/../lib/gcc/nios2-elf/4.1.2\libgcc.a(_fpcmp_parts_df.o)
 .debug_pubnames
                0x000006c1       0x20 c:/altera/13.0/nios2eds/bin/gnu/h-i686-mingw32/bin/../lib/gcc/nios2-elf/4.1.2\libgcc.a(_clz.o)
 .debug_pubnames
                0x000006e1       0x2e c:/altera/13.0/nios2eds/bin/gnu/h-i686-mingw32/bin/../lib/gcc/nios2-elf/4.1.2/../../../../nios2-elf/lib\libc.a(lib_a-ctype_.o)
 .debug_pubnames
                0x0000070f       0x1b c:/altera/13.0/nios2eds/bin/gnu/h-i686-mingw32/bin/../lib/gcc/nios2-elf/4.1.2/../../../../nios2-elf/lib\libc.a(lib_a-exit.o)
 .debug_pubnames
                0x0000072a       0x2d c:/altera/13.0/nios2eds/bin/gnu/h-i686-mingw32/bin/../lib/gcc/nios2-elf/4.1.2/../../../../nios2-elf/lib\libc.a(lib_a-fprintf.o)
 .debug_pubnames
                0x00000757       0x2b c:/altera/13.0/nios2eds/bin/gnu/h-i686-mingw32/bin/../lib/gcc/nios2-elf/4.1.2/../../../../nios2-elf/lib\libc.a(lib_a-fwrite.o)
 .debug_pubnames
                0x00000782       0x27 c:/altera/13.0/nios2eds/bin/gnu/h-i686-mingw32/bin/../lib/gcc/nios2-elf/4.1.2/../../../../nios2-elf/lib\libc.a(lib_a-getc.o)
 .debug_pubnames
                0x000007a9       0x39 c:/altera/13.0/nios2eds/bin/gnu/h-i686-mingw32/bin/../lib/gcc/nios2-elf/4.1.2/../../../../nios2-elf/lib\libc.a(lib_a-impure.o)
 .debug_pubnames
                0x000007e2       0x1d c:/altera/13.0/nios2eds/bin/gnu/h-i686-mingw32/bin/../lib/gcc/nios2-elf/4.1.2/../../../../nios2-elf/lib\libc.a(lib_a-memcpy.o)
 .debug_pubnames
                0x000007ff       0x1e c:/altera/13.0/nios2eds/bin/gnu/h-i686-mingw32/bin/../lib/gcc/nios2-elf/4.1.2/../../../../nios2-elf/lib\libc.a(lib_a-memmove.o)
 .debug_pubnames
                0x0000081d       0x1d c:/altera/13.0/nios2eds/bin/gnu/h-i686-mingw32/bin/../lib/gcc/nios2-elf/4.1.2/../../../../nios2-elf/lib\libc.a(lib_a-memset.o)
 .debug_pubnames
                0x0000083a       0x2b c:/altera/13.0/nios2eds/bin/gnu/h-i686-mingw32/bin/../lib/gcc/nios2-elf/4.1.2/../../../../nios2-elf/lib\libc.a(lib_a-perror.o)
 .debug_pubnames
                0x00000865       0x2b c:/altera/13.0/nios2eds/bin/gnu/h-i686-mingw32/bin/../lib/gcc/nios2-elf/4.1.2/../../../../nios2-elf/lib\libc.a(lib_a-printf.o)
 .debug_pubnames
                0x00000890       0x27 c:/altera/13.0/nios2eds/bin/gnu/h-i686-mingw32/bin/../lib/gcc/nios2-elf/4.1.2/../../../../nios2-elf/lib\libc.a(lib_a-putc.o)
 .debug_pubnames
                0x000008b7       0x2d c:/altera/13.0/nios2eds/bin/gnu/h-i686-mingw32/bin/../lib/gcc/nios2-elf/4.1.2/../../../../nios2-elf/lib\libc.a(lib_a-putchar.o)
 .debug_pubnames
                0x000008e4       0x27 c:/altera/13.0/nios2eds/bin/gnu/h-i686-mingw32/bin/../lib/gcc/nios2-elf/4.1.2/../../../../nios2-elf/lib\libc.a(lib_a-puts.o)
 .debug_pubnames
                0x0000090b       0x2c c:/altera/13.0/nios2eds/bin/gnu/h-i686-mingw32/bin/../lib/gcc/nios2-elf/4.1.2/../../../../nios2-elf/lib\libc.a(lib_a-rget.o)
 .debug_pubnames
                0x00000937       0x1d c:/altera/13.0/nios2eds/bin/gnu/h-i686-mingw32/bin/../lib/gcc/nios2-elf/4.1.2/../../../../nios2-elf/lib\libc.a(lib_a-strchr.o)
 .debug_pubnames
                0x00000954       0x1f c:/altera/13.0/nios2eds/bin/gnu/h-i686-mingw32/bin/../lib/gcc/nios2-elf/4.1.2/../../../../nios2-elf/lib\libc.a(lib_a-strerror.o)
 .debug_pubnames
                0x00000973       0x1d c:/altera/13.0/nios2eds/bin/gnu/h-i686-mingw32/bin/../lib/gcc/nios2-elf/4.1.2/../../../../nios2-elf/lib\libc.a(lib_a-strlen.o)
 .debug_pubnames
                0x00000990       0x25 c:/altera/13.0/nios2eds/bin/gnu/h-i686-mingw32/bin/../lib/gcc/nios2-elf/4.1.2/../../../../nios2-elf/lib\libc.a(lib_a-u_strerr.o)
 .debug_pubnames
                0x000009b5       0x45 c:/altera/13.0/nios2eds/bin/gnu/h-i686-mingw32/bin/../lib/gcc/nios2-elf/4.1.2/../../../../nios2-elf/lib\libc.a(lib_a-vfprintf.o)
 .debug_pubnames
                0x000009fa       0x2c c:/altera/13.0/nios2eds/bin/gnu/h-i686-mingw32/bin/../lib/gcc/nios2-elf/4.1.2/../../../../nios2-elf/lib\libc.a(lib_a-wbuf.o)
 .debug_pubnames
                0x00000a26       0x22 c:/altera/13.0/nios2eds/bin/gnu/h-i686-mingw32/bin/../lib/gcc/nios2-elf/4.1.2/../../../../nios2-elf/lib\libc.a(lib_a-wsetup.o)
 .debug_pubnames
                0x00000a48       0x27 c:/altera/13.0/nios2eds/bin/gnu/h-i686-mingw32/bin/../lib/gcc/nios2-elf/4.1.2/../../../../nios2-elf/lib\libc.a(lib_a-__call_atexit.o)
 .debug_pubnames
                0x00000a6f       0x1e c:/altera/13.0/nios2eds/bin/gnu/h-i686-mingw32/bin/../lib/gcc/nios2-elf/4.1.2/../../../../nios2-elf/lib\libc.a(lib_a-dtoa.o)
 .debug_pubnames
                0x00000a8d       0x2b c:/altera/13.0/nios2eds/bin/gnu/h-i686-mingw32/bin/../lib/gcc/nios2-elf/4.1.2/../../../../nios2-elf/lib\libc.a(lib_a-fflush.o)
 .debug_pubnames
                0x00000ab8       0xdb c:/altera/13.0/nios2eds/bin/gnu/h-i686-mingw32/bin/../lib/gcc/nios2-elf/4.1.2/../../../../nios2-elf/lib\libc.a(lib_a-findfp.o)
 .debug_pubnames
                0x00000b93       0x29 c:/altera/13.0/nios2eds/bin/gnu/h-i686-mingw32/bin/../lib/gcc/nios2-elf/4.1.2/../../../../nios2-elf/lib\libc.a(lib_a-fputc.o)
 .debug_pubnames
                0x00000bbc       0x29 c:/altera/13.0/nios2eds/bin/gnu/h-i686-mingw32/bin/../lib/gcc/nios2-elf/4.1.2/../../../../nios2-elf/lib\libc.a(lib_a-fputs.o)
 .debug_pubnames
                0x00000be5       0x31 c:/altera/13.0/nios2eds/bin/gnu/h-i686-mingw32/bin/../lib/gcc/nios2-elf/4.1.2/../../../../nios2-elf/lib\libc.a(lib_a-freer.o)
 .debug_pubnames
                0x00000c16       0x23 c:/altera/13.0/nios2eds/bin/gnu/h-i686-mingw32/bin/../lib/gcc/nios2-elf/4.1.2/../../../../nios2-elf/lib\libc.a(lib_a-fvwrite.o)
 .debug_pubnames
                0x00000c39       0x2e c:/altera/13.0/nios2eds/bin/gnu/h-i686-mingw32/bin/../lib/gcc/nios2-elf/4.1.2/../../../../nios2-elf/lib\libc.a(lib_a-fwalk.o)
 .debug_pubnames
                0x00000c67       0xc3 c:/altera/13.0/nios2eds/bin/gnu/h-i686-mingw32/bin/../lib/gcc/nios2-elf/4.1.2/../../../../nios2-elf/lib\libc.a(lib_a-locale.o)
 .debug_pubnames
                0x00000d2a       0x23 c:/altera/13.0/nios2eds/bin/gnu/h-i686-mingw32/bin/../lib/gcc/nios2-elf/4.1.2/../../../../nios2-elf/lib\libc.a(lib_a-makebuf.o)
 .debug_pubnames
                0x00000d4d       0xce c:/altera/13.0/nios2eds/bin/gnu/h-i686-mingw32/bin/../lib/gcc/nios2-elf/4.1.2/../../../../nios2-elf/lib\libc.a(lib_a-mallocr.o)
 .debug_pubnames
                0x00000e1b       0x1d c:/altera/13.0/nios2eds/bin/gnu/h-i686-mingw32/bin/../lib/gcc/nios2-elf/4.1.2/../../../../nios2-elf/lib\libc.a(lib_a-memchr.o)
 .debug_pubnames
                0x00000e38      0x13a c:/altera/13.0/nios2eds/bin/gnu/h-i686-mingw32/bin/../lib/gcc/nios2-elf/4.1.2/../../../../nios2-elf/lib\libc.a(lib_a-mprec.o)
 .debug_pubnames
                0x00000f72       0x21 c:/altera/13.0/nios2eds/bin/gnu/h-i686-mingw32/bin/../lib/gcc/nios2-elf/4.1.2/../../../../nios2-elf/lib\libc.a(lib_a-reallocr.o)
 .debug_pubnames
                0x00000f93       0x22 c:/altera/13.0/nios2eds/bin/gnu/h-i686-mingw32/bin/../lib/gcc/nios2-elf/4.1.2/../../../../nios2-elf/lib\libc.a(lib_a-refill.o)
 .debug_pubnames
                0x00000fb5       0x1f c:/altera/13.0/nios2eds/bin/gnu/h-i686-mingw32/bin/../lib/gcc/nios2-elf/4.1.2/../../../../nios2-elf/lib\libc.a(lib_a-s_isinfd.o)
 .debug_pubnames
                0x00000fd4       0x1f c:/altera/13.0/nios2eds/bin/gnu/h-i686-mingw32/bin/../lib/gcc/nios2-elf/4.1.2/../../../../nios2-elf/lib\libc.a(lib_a-s_isnand.o)
 .debug_pubnames
                0x00000ff3       0x1e c:/altera/13.0/nios2eds/bin/gnu/h-i686-mingw32/bin/../lib/gcc/nios2-elf/4.1.2/../../../../nios2-elf/lib\libc.a(lib_a-sbrkr.o)
 .debug_pubnames
                0x00001011       0x44 c:/altera/13.0/nios2eds/bin/gnu/h-i686-mingw32/bin/../lib/gcc/nios2-elf/4.1.2/../../../../nios2-elf/lib\libc.a(lib_a-stdio.o)
 .debug_pubnames
                0x00001055       0x1d c:/altera/13.0/nios2eds/bin/gnu/h-i686-mingw32/bin/../lib/gcc/nios2-elf/4.1.2/../../../../nios2-elf/lib\libc.a(lib_a-strcmp.o)
 .debug_pubnames
                0x00001072       0x1f c:/altera/13.0/nios2eds/bin/gnu/h-i686-mingw32/bin/../lib/gcc/nios2-elf/4.1.2/../../../../nios2-elf/lib\libc.a(lib_a-writer.o)
 .debug_pubnames
                0x00001091       0x20 c:/altera/13.0/nios2eds/bin/gnu/h-i686-mingw32/bin/../lib/gcc/nios2-elf/4.1.2/../../../../nios2-elf/lib\libc.a(lib_a-callocr.o)
 .debug_pubnames
                0x000010b1       0x1f c:/altera/13.0/nios2eds/bin/gnu/h-i686-mingw32/bin/../lib/gcc/nios2-elf/4.1.2/../../../../nios2-elf/lib\libc.a(lib_a-closer.o)
 .debug_pubnames
                0x000010d0       0x2b c:/altera/13.0/nios2eds/bin/gnu/h-i686-mingw32/bin/../lib/gcc/nios2-elf/4.1.2/../../../../nios2-elf/lib\libc.a(lib_a-fclose.o)
 .debug_pubnames
                0x000010fb       0x1f c:/altera/13.0/nios2eds/bin/gnu/h-i686-mingw32/bin/../lib/gcc/nios2-elf/4.1.2/../../../../nios2-elf/lib\libc.a(lib_a-fstatr.o)
 .debug_pubnames
                0x0000111a       0x1c c:/altera/13.0/nios2eds/bin/gnu/h-i686-mingw32/bin/../lib/gcc/nios2-elf/4.1.2/../../../../nios2-elf/lib\libc.a(lib_a-int_errno.o)
 .debug_pubnames
                0x00001136       0x20 c:/altera/13.0/nios2eds/bin/gnu/h-i686-mingw32/bin/../lib/gcc/nios2-elf/4.1.2/../../../../nios2-elf/lib\libc.a(lib_a-isattyr.o)
 .debug_pubnames
                0x00001156       0x1f c:/altera/13.0/nios2eds/bin/gnu/h-i686-mingw32/bin/../lib/gcc/nios2-elf/4.1.2/../../../../nios2-elf/lib\libc.a(lib_a-lseekr.o)
 .debug_pubnames
                0x00001175       0x1e c:/altera/13.0/nios2eds/bin/gnu/h-i686-mingw32/bin/../lib/gcc/nios2-elf/4.1.2/../../../../nios2-elf/lib\libc.a(lib_a-readr.o)
 .debug_pubnames
                0x00001193       0x20 c:/altera/13.0/nios2eds/bin/gnu/h-i686-mingw32/bin/../lib/gcc/nios2-elf/4.1.2\libgcc.a(_udivdi3.o)
 .debug_pubnames
                0x000011b3       0x20 c:/altera/13.0/nios2eds/bin/gnu/h-i686-mingw32/bin/../lib/gcc/nios2-elf/4.1.2\libgcc.a(_umoddi3.o)
 .debug_pubnames
                0x000011d3       0x1f c:/altera/13.0/nios2eds/bin/gnu/h-i686-mingw32/bin/../lib/gcc/nios2-elf/4.1.2\libgcc.a(_div_df.o)
 .debug_pubnames
                0x000011f2       0x1e c:/altera/13.0/nios2eds/bin/gnu/h-i686-mingw32/bin/../lib/gcc/nios2-elf/4.1.2\libgcc.a(_eq_df.o)
 .debug_pubnames
                0x00001210       0x1e c:/altera/13.0/nios2eds/bin/gnu/h-i686-mingw32/bin/../lib/gcc/nios2-elf/4.1.2\libgcc.a(_ne_df.o)
 .debug_pubnames
                0x0000122e       0x1e c:/altera/13.0/nios2eds/bin/gnu/h-i686-mingw32/bin/../lib/gcc/nios2-elf/4.1.2\libgcc.a(_gt_df.o)
 .debug_pubnames
                0x0000124c       0x1e c:/altera/13.0/nios2eds/bin/gnu/h-i686-mingw32/bin/../lib/gcc/nios2-elf/4.1.2\libgcc.a(_lt_df.o)
 .debug_pubnames
                0x0000126a       0x22 c:/altera/13.0/nios2eds/bin/gnu/h-i686-mingw32/bin/../lib/gcc/nios2-elf/4.1.2\libgcc.a(_si_to_df.o)
 .debug_pubnames
                0x0000128c       0x48 c:/altera/13.0/nios2eds/bin/gnu/h-i686-mingw32/bin/../lib/gcc/nios2-elf/4.1.2\libgcc.a(lib2-divmod.o)
 .debug_pubnames
                0x000012d4       0x1c ../server_bsp/\libucosii_bsp.a(alt_exit.o)
 .debug_pubnames
                0x000012f0       0x58 ../server_bsp/\libucosii_bsp.a(alt_flash_dev.o)
 .debug_pubnames
                0x00001348       0x1c ../server_bsp/\libucosii_bsp.a(alt_fstat.o)
 .debug_pubnames
                0x00001364       0x27 ../server_bsp/\libucosii_bsp.a(alt_irq_register.o)
 .debug_pubnames
                0x0000138b       0x3b ../server_bsp/\libucosii_bsp.a(alt_irq_vars.o)
 .debug_pubnames
                0x000013c6       0x1d ../server_bsp/\libucosii_bsp.a(alt_isatty.o)
 .debug_pubnames
                0x000013e3       0x1c ../server_bsp/\libucosii_bsp.a(alt_lseek.o)
 .debug_pubnames
                0x000013ff       0x46 ../server_bsp/\libucosii_bsp.a(alt_main.o)
 .debug_pubnames
                0x00001445       0x1b ../server_bsp/\libucosii_bsp.a(alt_sbrk.o)
 .debug_pubnames
                0x00001460       0x1d ../server_bsp/\libucosii_bsp.a(alt_usleep.o)
 .debug_pubnames
                0x0000147d       0x41 ../server_bsp/\libucosii_bsp.a(alt_env_lock.o)
 .debug_pubnames
                0x000014be       0x48 ../server_bsp/\libucosii_bsp.a(alt_malloc_lock.o)
 .debug_pubnames
                0x00001506      0x3f8 ../server_bsp/\libucosii_bsp.a(os_core.o)
 .debug_pubnames
                0x000018fe      0x3c5 ../server_bsp/\libucosii_bsp.a(os_dbg.o)
 .debug_pubnames
                0x00001cc3       0xd0 ../server_bsp/\libucosii_bsp.a(os_flag.o)
 .debug_pubnames
                0x00001d93       0x7c ../server_bsp/\libucosii_bsp.a(os_mem.o)
 .debug_pubnames
                0x00001e0f       0xa9 ../server_bsp/\libucosii_bsp.a(os_q.o)
 .debug_pubnames
                0x00001eb8       0x8a ../server_bsp/\libucosii_bsp.a(os_sem.o)
 .debug_pubnames
                0x00001f42       0xe5 ../server_bsp/\libucosii_bsp.a(os_task.o)
 .debug_pubnames
                0x00002027       0x62 ../server_bsp/\libucosii_bsp.a(os_time.o)
 .debug_pubnames
                0x00002089       0x34 ../server_bsp/\libucosii_bsp.a(alt_sys_init.o)
 .debug_pubnames
                0x000020bd       0xac ../server_bsp/\libucosii_bsp.a(altera_avalon_cfi_flash.o)
 .debug_pubnames
                0x00002169      0x27a ../server_bsp/\libucosii_bsp.a(altera_avalon_cfi_flash_table.o)
 .debug_pubnames
                0x000023e3       0xb5 ../server_bsp/\libucosii_bsp.a(altera_avalon_epcs_flash_controller.o)
 .debug_pubnames
                0x00002498       0xa5 ../server_bsp/\libucosii_bsp.a(altera_avalon_jtag_uart_fd.o)
 .debug_pubnames
                0x0000253d       0x55 ../server_bsp/\libucosii_bsp.a(altera_avalon_jtag_uart_init.o)
 .debug_pubnames
                0x00002592       0x34 ../server_bsp/\libucosii_bsp.a(altera_avalon_jtag_uart_ioctl.o)
 .debug_pubnames
                0x000025c6       0x33 ../server_bsp/\libucosii_bsp.a(altera_avalon_jtag_uart_read.o)
 .debug_pubnames
                0x000025f9       0x34 ../server_bsp/\libucosii_bsp.a(altera_avalon_jtag_uart_write.o)
 .debug_pubnames
                0x0000262d       0x55 ../server_bsp/\libucosii_bsp.a(altera_avalon_lcd_16207.o)
 .debug_pubnames
                0x00002682       0x37 ../server_bsp/\libucosii_bsp.a(altera_avalon_lcd_16207_fd.o)
 .debug_pubnames
                0x000026b9       0x2f ../server_bsp/\libucosii_bsp.a(altera_avalon_timer_sc.o)
 .debug_pubnames
                0x000026e8       0x71 ../server_bsp/\libucosii_bsp.a(altera_avalon_uart_fd.o)
 .debug_pubnames
                0x00002759       0x4b ../server_bsp/\libucosii_bsp.a(altera_avalon_uart_init.o)
 .debug_pubnames
                0x000027a4       0x2e ../server_bsp/\libucosii_bsp.a(altera_avalon_uart_read.o)
 .debug_pubnames
                0x000027d2       0x2f ../server_bsp/\libucosii_bsp.a(altera_avalon_uart_write.o)
 .debug_pubnames
                0x00002801      0x118 ../server_bsp/\libucosii_bsp.a(epcs_commands.o)
 .debug_pubnames
                0x00002919       0x1c ../server_bsp/\libucosii_bsp.a(alt_iniche_close.o)
 .debug_pubnames
                0x00002935       0x42 ../server_bsp/\libucosii_bsp.a(alt_iniche_dev.o)
 .debug_pubnames
                0x00002977       0x1b ../server_bsp/\libucosii_bsp.a(alt_iniche_read.o)
 .debug_pubnames
                0x00002992       0x1c ../server_bsp/\libucosii_bsp.a(alt_iniche_write.o)
 .debug_pubnames
                0x000029ae       0x90 ../server_bsp/\libucosii_bsp.a(ipnet.o)
 .debug_pubnames
                0x00002a3e       0x81 ../server_bsp/\libucosii_bsp.a(ipstart.o)
 .debug_pubnames
                0x00002abf      0x108 ../server_bsp/\libucosii_bsp.a(igmp_cmn.o)
 .debug_pubnames
                0x00002bc7       0xc4 ../server_bsp/\libucosii_bsp.a(bsdsock.o)
 .debug_pubnames
                0x00002c8b       0x27 ../server_bsp/\libucosii_bsp.a(cksum.o)
 .debug_pubnames
                0x00002cb2       0xcc ../server_bsp/\libucosii_bsp.a(in_utils.o)
 .debug_pubnames
                0x00002d7e       0xb2 ../server_bsp/\libucosii_bsp.a(netmain.o)
 .debug_pubnames
                0x00002e30       0xa6 ../server_bsp/\libucosii_bsp.a(parseip.o)
 .debug_pubnames
                0x00002ed6       0x97 ../server_bsp/\libucosii_bsp.a(tk_crnos.o)
 .debug_pubnames
                0x00002f6d      0x252 ../server_bsp/\libucosii_bsp.a(dhcpclnt.o)
 .debug_pubnames
                0x000031bf       0x1f ../server_bsp/\libucosii_bsp.a(dhcputil.o)
 .debug_pubnames
                0x000031de       0xe2 ../server_bsp/\libucosii_bsp.a(pktalloc.o)
 .debug_pubnames
                0x000032c0       0x2d ../server_bsp/\libucosii_bsp.a(q.o)
 .debug_pubnames
                0x000032ed       0x3a ../server_bsp/\libucosii_bsp.a(udp_open.o)
 .debug_pubnames
                0x00003327       0xc5 ../server_bsp/\libucosii_bsp.a(brdutils.o)
 .debug_pubnames
                0x000033ec      0x10c ../server_bsp/\libucosii_bsp.a(osportco.o)
 .debug_pubnames
                0x000034f8       0xf5 ../server_bsp/\libucosii_bsp.a(targnios.o)
 .debug_pubnames
                0x000035ed      0x190 ../server_bsp/\libucosii_bsp.a(nptcp.o)
 .debug_pubnames
                0x0000377d       0x46 ../server_bsp/\libucosii_bsp.a(rawsock.o)
 .debug_pubnames
                0x000037c3      0x108 ../server_bsp/\libucosii_bsp.a(sockcall.o)
 .debug_pubnames
                0x000038cb       0xfc ../server_bsp/\libucosii_bsp.a(socket.o)
 .debug_pubnames
                0x000039c7      0x178 ../server_bsp/\libucosii_bsp.a(socket2.o)
 .debug_pubnames
                0x00003b3f       0x92 ../server_bsp/\libucosii_bsp.a(soselect.o)
 .debug_pubnames
                0x00003bd1       0xc2 ../server_bsp/\libucosii_bsp.a(tcp_in.o)
 .debug_pubnames
                0x00003c93       0x57 ../server_bsp/\libucosii_bsp.a(tcp_out.o)
 .debug_pubnames
                0x00003cea       0xb9 ../server_bsp/\libucosii_bsp.a(tcp_subr.o)
 .debug_pubnames
                0x00003da3       0x96 ../server_bsp/\libucosii_bsp.a(tcp_timr.o)
 .debug_pubnames
                0x00003e39       0x79 ../server_bsp/\libucosii_bsp.a(tcp_usr.o)
 .debug_pubnames
                0x00003eb2       0x1e ../server_bsp/\libucosii_bsp.a(tcpport.o)
 .debug_pubnames
                0x00003ed0       0x76 ../server_bsp/\libucosii_bsp.a(udpsock.o)
 .debug_pubnames
                0x00003f46       0x26 ../server_bsp/\libucosii_bsp.a(alt_alarm_start.o)
 .debug_pubnames
                0x00003f6c       0x25 ../server_bsp/\libucosii_bsp.a(alt_busy_sleep.o)
 .debug_pubnames
                0x00003f91       0x20 ../server_bsp/\libucosii_bsp.a(alt_close.o)
 .debug_pubnames
                0x00003fb1       0x27 ../server_bsp/\libucosii_bsp.a(alt_dcache_flush.o)
 .debug_pubnames
                0x00003fd8       0x78 ../server_bsp/\libucosii_bsp.a(alt_dev.o)
 .debug_pubnames
                0x00004050       0x2b ../server_bsp/\libucosii_bsp.a(alt_dev_llist_insert.o)
 .debug_pubnames
                0x0000407b       0x20 ../server_bsp/\libucosii_bsp.a(alt_do_ctors.o)
 .debug_pubnames
                0x0000409b       0x20 ../server_bsp/\libucosii_bsp.a(alt_do_dtors.o)
 .debug_pubnames
                0x000040bb       0x20 ../server_bsp/\libucosii_bsp.a(alt_errno.o)
 .debug_pubnames
                0x000040db       0x23 ../server_bsp/\libucosii_bsp.a(alt_find_dev.o)
 .debug_pubnames
                0x000040fe       0x6e ../server_bsp/\libucosii_bsp.a(alt_iic.o)
 .debug_pubnames
                0x0000416c       0x2b ../server_bsp/\libucosii_bsp.a(alt_iic_isr_register.o)
 .debug_pubnames
                0x00004197       0x26 ../server_bsp/\libucosii_bsp.a(alt_io_redirect.o)
 .debug_pubnames
                0x000041bd       0x32 ../server_bsp/\libucosii_bsp.a(alt_irq_handler.o)
 .debug_pubnames
                0x000041ef       0x1b ../server_bsp/\libucosii_bsp.a(alt_open.o)
 .debug_pubnames
                0x0000420a       0x1f ../server_bsp/\libucosii_bsp.a(alt_read.o)
 .debug_pubnames
                0x00004229       0x25 ../server_bsp/\libucosii_bsp.a(alt_release_fd.o)
 .debug_pubnames
                0x0000424e       0x27 ../server_bsp/\libucosii_bsp.a(alt_remap_cached.o)
 .debug_pubnames
                0x00004275       0x29 ../server_bsp/\libucosii_bsp.a(alt_remap_uncached.o)
 .debug_pubnames
                0x0000429e       0x68 ../server_bsp/\libucosii_bsp.a(alt_tick.o)
 .debug_pubnames
                0x00004306       0x20 ../server_bsp/\libucosii_bsp.a(alt_write.o)
 .debug_pubnames
                0x00004326       0x31 ../server_bsp/\libucosii_bsp.a(altera_nios2_qsys_irq.o)
 .debug_pubnames
                0x00004357       0xcd ../server_bsp/\libucosii_bsp.a(os_cpu_c.o)
 .debug_pubnames
                0x00004424       0x3e ../server_bsp/\libucosii_bsp.a(altera_avalon_cfi_flash_amd.o)
 .debug_pubnames
                0x00004462       0x42 ../server_bsp/\libucosii_bsp.a(altera_avalon_cfi_flash_intel.o)
 .debug_pubnames
                0x000044a4       0x2d ../server_bsp/\libucosii_bsp.a(altera_avalon_spi.o)
 .debug_pubnames
                0x000044d1       0xd4 ../server_bsp/\libucosii_bsp.a(allports.o)
 .debug_pubnames
                0x000045a5       0x6f ../server_bsp/\libucosii_bsp.a(timeouts.o)
 .debug_pubnames
                0x00004614       0x35 ../server_bsp/\libucosii_bsp.a(tk_misc.o)
 .debug_pubnames
                0x00004649       0x1c ../server_bsp/\libucosii_bsp.a(alt_iniche_fcntl.o)
 .debug_pubnames
                0x00004665      0x134 ../server_bsp/\libucosii_bsp.a(et_arp.o)
 .debug_pubnames
                0x00004799       0x58 ../server_bsp/\libucosii_bsp.a(iface.o)
 .debug_pubnames
                0x000047f1       0xea ../server_bsp/\libucosii_bsp.a(ip.o)
 .debug_pubnames
                0x000048db      0x22e ../server_bsp/\libucosii_bsp.a(ip_reasm.o)
 .debug_pubnames
                0x00004b09       0x3c ../server_bsp/\libucosii_bsp.a(ipdemux.o)
 .debug_pubnames
                0x00004b45       0x43 ../server_bsp/\libucosii_bsp.a(ipmc.o)
 .debug_pubnames
                0x00004b88       0x99 ../server_bsp/\libucosii_bsp.a(ipport.o)
 .debug_pubnames
                0x00004c21       0x87 ../server_bsp/\libucosii_bsp.a(ipraw.o)
 .debug_pubnames
                0x00004ca8       0x5d ../server_bsp/\libucosii_bsp.a(iproute.o)
 .debug_pubnames
                0x00004d05       0x7f ../server_bsp/\libucosii_bsp.a(udp.o)
 .debug_pubnames
                0x00004d84       0x23 ../server_bsp/\libucosii_bsp.a(igmp.o)
 .debug_pubnames
                0x00004da7       0x8d ../server_bsp/\libucosii_bsp.a(igmp2.o)
 .debug_pubnames
                0x00004e34       0x5f ../server_bsp/\libucosii_bsp.a(ipopt.o)
 .debug_pubnames
                0x00004e93       0x35 ../server_bsp/\libucosii_bsp.a(u_mctest.o)
 .debug_pubnames
                0x00004ec8       0x33 ../server_bsp/\libucosii_bsp.a(dhcsetup.o)
 .debug_pubnames
                0x00004efb       0xb1 ../server_bsp/\libucosii_bsp.a(memdev.o)
 .debug_pubnames
                0x00004fac       0x20 ../server_bsp/\libucosii_bsp.a(tcpcksum.o)
 .debug_pubnames
                0x00004fcc       0xc8 ../server_bsp/\libucosii_bsp.a(in_pcb.o)
 .debug_pubnames
                0x00005094      0x278 ../server_bsp/\libucosii_bsp.a(vfsfiles.o)
 .debug_pubnames
                0x0000530c       0x1f ../server_bsp/\libucosii_bsp.a(vfsport.o)
 .debug_pubnames
                0x0000532b       0x20 ../server_bsp/\libucosii_bsp.a(alt_fcntl.o)
 .debug_pubnames
                0x0000534b       0x24 ../server_bsp/\libucosii_bsp.a(alt_find_file.o)
 .debug_pubnames
                0x0000536f       0x21 ../server_bsp/\libucosii_bsp.a(alt_get_fd.o)
 .debug_pubnames
                0x00005390       0x66 ../server_bsp/\libucosii_bsp.a(icmp.o)
 .debug_pubnames
                0x000053f6       0x2a c:/altera/13.0/nios2eds/bin/gnu/h-i686-mingw32/bin/../lib/gcc/nios2-elf/4.1.2/../../../../nios2-elf/lib\libc.a(lib_a-atexit.o)
 .debug_pubnames
                0x00005420       0x27 c:/altera/13.0/nios2eds/bin/gnu/h-i686-mingw32/bin/../lib/gcc/nios2-elf/4.1.2/../../../../nios2-elf/lib\libc.a(lib_a-atoi.o)
 .debug_pubnames
                0x00005447       0x1d c:/altera/13.0/nios2eds/bin/gnu/h-i686-mingw32/bin/../lib/gcc/nios2-elf/4.1.2/../../../../nios2-elf/lib\libc.a(lib_a-calloc.o)
 .debug_pubnames
                0x00005464       0x26 c:/altera/13.0/nios2eds/bin/gnu/h-i686-mingw32/bin/../lib/gcc/nios2-elf/4.1.2/../../../../nios2-elf/lib\libc.a(lib_a-malloc.o)
 .debug_pubnames
                0x0000548a       0x1d c:/altera/13.0/nios2eds/bin/gnu/h-i686-mingw32/bin/../lib/gcc/nios2-elf/4.1.2/../../../../nios2-elf/lib\libc.a(lib_a-memcmp.o)
 .debug_pubnames
                0x000054a7       0x2d c:/altera/13.0/nios2eds/bin/gnu/h-i686-mingw32/bin/../lib/gcc/nios2-elf/4.1.2/../../../../nios2-elf/lib\libc.a(lib_a-sprintf.o)
 .debug_pubnames
                0x000054d4       0x1d c:/altera/13.0/nios2eds/bin/gnu/h-i686-mingw32/bin/../lib/gcc/nios2-elf/4.1.2/../../../../nios2-elf/lib\libc.a(lib_a-strcpy.o)
 .debug_pubnames
                0x000054f1       0x1e c:/altera/13.0/nios2eds/bin/gnu/h-i686-mingw32/bin/../lib/gcc/nios2-elf/4.1.2/../../../../nios2-elf/lib\libc.a(lib_a-strncmp.o)
 .debug_pubnames
                0x0000550f       0x1e c:/altera/13.0/nios2eds/bin/gnu/h-i686-mingw32/bin/../lib/gcc/nios2-elf/4.1.2/../../../../nios2-elf/lib\libc.a(lib_a-strncpy.o)
 .debug_pubnames
                0x0000552d       0x2b c:/altera/13.0/nios2eds/bin/gnu/h-i686-mingw32/bin/../lib/gcc/nios2-elf/4.1.2/../../../../nios2-elf/lib\libc.a(lib_a-strtol.o)
 .debug_pubnames
                0x00005558       0x2d c:/altera/13.0/nios2eds/bin/gnu/h-i686-mingw32/bin/../lib/gcc/nios2-elf/4.1.2/../../../../nios2-elf/lib\libc.a(lib_a-vprintf.o)
 .debug_pubnames
                0x00005585       0x2f c:/altera/13.0/nios2eds/bin/gnu/h-i686-mingw32/bin/../lib/gcc/nios2-elf/4.1.2/../../../../nios2-elf/lib\libc.a(lib_a-vsprintf.o)
 .debug_pubnames
                0x000055b4       0x2a c:/altera/13.0/nios2eds/bin/gnu/h-i686-mingw32/bin/../lib/gcc/nios2-elf/4.1.2/../../../../nios2-elf/lib\libc.a(lib_a-__atexit.o)

.debug_info     0x00000000    0x7d7e7
 *(.debug_info .gnu.linkonce.wi.*)
 .debug_info    0x00000000       0x79 ../server_bsp//obj/HAL/src/crt0.o
 .debug_info    0x00000079      0x22a obj/default/LCD.o
 .debug_info    0x000002a3      0x723 obj/default/SSS_DE2_115.o
 .debug_info    0x000009c6      0xd6a obj/default/alt_error_handler.o
 .debug_info    0x00001730     0x1257 obj/default/dm9000a.o
 .debug_info    0x00002987      0xfe6 obj/default/iniche_init.o
 .debug_info    0x0000396d      0x470 obj/default/led.o
 .debug_info    0x00003ddd     0x1b97 obj/default/network_utilities.o
 .debug_info    0x00005974      0x9ce obj/default/simple_socket_server.o
 .debug_info    0x00006342        0x0 obj/default/tse_my_system.o
 .debug_info    0x00006342       0xce c:/altera/13.0/nios2eds/bin/gnu/h-i686-mingw32/bin/../lib/gcc/nios2-elf/4.1.2\libgcc.a(_fixunsdfsi.o)
 .debug_info    0x00006410      0x493 c:/altera/13.0/nios2eds/bin/gnu/h-i686-mingw32/bin/../lib/gcc/nios2-elf/4.1.2\libgcc.a(_addsub_df.o)
 .debug_info    0x000068a3      0x488 c:/altera/13.0/nios2eds/bin/gnu/h-i686-mingw32/bin/../lib/gcc/nios2-elf/4.1.2\libgcc.a(_mul_df.o)
 .debug_info    0x00006d2b      0x29d c:/altera/13.0/nios2eds/bin/gnu/h-i686-mingw32/bin/../lib/gcc/nios2-elf/4.1.2\libgcc.a(_ge_df.o)
 .debug_info    0x00006fc8      0x2cd c:/altera/13.0/nios2eds/bin/gnu/h-i686-mingw32/bin/../lib/gcc/nios2-elf/4.1.2\libgcc.a(_df_to_si.o)
 .debug_info    0x00007295      0x164 c:/altera/13.0/nios2eds/bin/gnu/h-i686-mingw32/bin/../lib/gcc/nios2-elf/4.1.2\libgcc.a(_thenan_df.o)
 .debug_info    0x000073f9      0x213 c:/altera/13.0/nios2eds/bin/gnu/h-i686-mingw32/bin/../lib/gcc/nios2-elf/4.1.2\libgcc.a(_usi_to_df.o)
 .debug_info    0x0000760c      0x215 c:/altera/13.0/nios2eds/bin/gnu/h-i686-mingw32/bin/../lib/gcc/nios2-elf/4.1.2\libgcc.a(_muldi3.o)
 .debug_info    0x00007821      0x130 c:/altera/13.0/nios2eds/bin/gnu/h-i686-mingw32/bin/../lib/gcc/nios2-elf/4.1.2\libgcc.a(_clzsi2.o)
 .debug_info    0x00007951      0x2fc c:/altera/13.0/nios2eds/bin/gnu/h-i686-mingw32/bin/../lib/gcc/nios2-elf/4.1.2\libgcc.a(_pack_df.o)
 .debug_info    0x00007c4d      0x268 c:/altera/13.0/nios2eds/bin/gnu/h-i686-mingw32/bin/../lib/gcc/nios2-elf/4.1.2\libgcc.a(_unpack_df.o)
 .debug_info    0x00007eb5      0x21b c:/altera/13.0/nios2eds/bin/gnu/h-i686-mingw32/bin/../lib/gcc/nios2-elf/4.1.2\libgcc.a(_fpcmp_parts_df.o)
 .debug_info    0x000080d0       0xc9 c:/altera/13.0/nios2eds/bin/gnu/h-i686-mingw32/bin/../lib/gcc/nios2-elf/4.1.2\libgcc.a(_clz.o)
 .debug_info    0x00008199       0xa0 c:/altera/13.0/nios2eds/bin/gnu/h-i686-mingw32/bin/../lib/gcc/nios2-elf/4.1.2/../../../../nios2-elf/lib\libc.a(lib_a-ctype_.o)
 .debug_info    0x00008239      0x93f c:/altera/13.0/nios2eds/bin/gnu/h-i686-mingw32/bin/../lib/gcc/nios2-elf/4.1.2/../../../../nios2-elf/lib\libc.a(lib_a-exit.o)
 .debug_info    0x00008b78      0x9e1 c:/altera/13.0/nios2eds/bin/gnu/h-i686-mingw32/bin/../lib/gcc/nios2-elf/4.1.2/../../../../nios2-elf/lib\libc.a(lib_a-fprintf.o)
 .debug_info    0x00009559      0xa83 c:/altera/13.0/nios2eds/bin/gnu/h-i686-mingw32/bin/../lib/gcc/nios2-elf/4.1.2/../../../../nios2-elf/lib\libc.a(lib_a-fwrite.o)
 .debug_info    0x00009fdc      0x9a7 c:/altera/13.0/nios2eds/bin/gnu/h-i686-mingw32/bin/../lib/gcc/nios2-elf/4.1.2/../../../../nios2-elf/lib\libc.a(lib_a-getc.o)
 .debug_info    0x0000a983      0x93d c:/altera/13.0/nios2eds/bin/gnu/h-i686-mingw32/bin/../lib/gcc/nios2-elf/4.1.2/../../../../nios2-elf/lib\libc.a(lib_a-impure.o)
 .debug_info    0x0000b2c0      0x106 c:/altera/13.0/nios2eds/bin/gnu/h-i686-mingw32/bin/../lib/gcc/nios2-elf/4.1.2/../../../../nios2-elf/lib\libc.a(lib_a-memcpy.o)
 .debug_info    0x0000b3c6      0x13e c:/altera/13.0/nios2eds/bin/gnu/h-i686-mingw32/bin/../lib/gcc/nios2-elf/4.1.2/../../../../nios2-elf/lib\libc.a(lib_a-memmove.o)
 .debug_info    0x0000b504      0x113 c:/altera/13.0/nios2eds/bin/gnu/h-i686-mingw32/bin/../lib/gcc/nios2-elf/4.1.2/../../../../nios2-elf/lib\libc.a(lib_a-memset.o)
 .debug_info    0x0000b617      0x97b c:/altera/13.0/nios2eds/bin/gnu/h-i686-mingw32/bin/../lib/gcc/nios2-elf/4.1.2/../../../../nios2-elf/lib\libc.a(lib_a-perror.o)
 .debug_info    0x0000bf92      0x9d1 c:/altera/13.0/nios2eds/bin/gnu/h-i686-mingw32/bin/../lib/gcc/nios2-elf/4.1.2/../../../../nios2-elf/lib\libc.a(lib_a-printf.o)
 .debug_info    0x0000c963      0x9c1 c:/altera/13.0/nios2eds/bin/gnu/h-i686-mingw32/bin/../lib/gcc/nios2-elf/4.1.2/../../../../nios2-elf/lib\libc.a(lib_a-putc.o)
 .debug_info    0x0000d324      0x972 c:/altera/13.0/nios2eds/bin/gnu/h-i686-mingw32/bin/../lib/gcc/nios2-elf/4.1.2/../../../../nios2-elf/lib\libc.a(lib_a-putchar.o)
 .debug_info    0x0000dc96      0xa25 c:/altera/13.0/nios2eds/bin/gnu/h-i686-mingw32/bin/../lib/gcc/nios2-elf/4.1.2/../../../../nios2-elf/lib\libc.a(lib_a-puts.o)
 .debug_info    0x0000e6bb      0x987 c:/altera/13.0/nios2eds/bin/gnu/h-i686-mingw32/bin/../lib/gcc/nios2-elf/4.1.2/../../../../nios2-elf/lib\libc.a(lib_a-rget.o)
 .debug_info    0x0000f042      0x118 c:/altera/13.0/nios2eds/bin/gnu/h-i686-mingw32/bin/../lib/gcc/nios2-elf/4.1.2/../../../../nios2-elf/lib\libc.a(lib_a-strchr.o)
 .debug_info    0x0000f15a       0xbb c:/altera/13.0/nios2eds/bin/gnu/h-i686-mingw32/bin/../lib/gcc/nios2-elf/4.1.2/../../../../nios2-elf/lib\libc.a(lib_a-strerror.o)
 .debug_info    0x0000f215       0xdb c:/altera/13.0/nios2eds/bin/gnu/h-i686-mingw32/bin/../lib/gcc/nios2-elf/4.1.2/../../../../nios2-elf/lib\libc.a(lib_a-strlen.o)
 .debug_info    0x0000f2f0       0x63 c:/altera/13.0/nios2eds/bin/gnu/h-i686-mingw32/bin/../lib/gcc/nios2-elf/4.1.2/../../../../nios2-elf/lib\libc.a(lib_a-u_strerr.o)
 .debug_info    0x0000f353     0x10d5 c:/altera/13.0/nios2eds/bin/gnu/h-i686-mingw32/bin/../lib/gcc/nios2-elf/4.1.2/../../../../nios2-elf/lib\libc.a(lib_a-vfprintf.o)
 .debug_info    0x00010428      0x9ae c:/altera/13.0/nios2eds/bin/gnu/h-i686-mingw32/bin/../lib/gcc/nios2-elf/4.1.2/../../../../nios2-elf/lib\libc.a(lib_a-wbuf.o)
 .debug_info    0x00010dd6      0x95d c:/altera/13.0/nios2eds/bin/gnu/h-i686-mingw32/bin/../lib/gcc/nios2-elf/4.1.2/../../../../nios2-elf/lib\libc.a(lib_a-wsetup.o)
 .debug_info    0x00011733      0x9e2 c:/altera/13.0/nios2eds/bin/gnu/h-i686-mingw32/bin/../lib/gcc/nios2-elf/4.1.2/../../../../nios2-elf/lib\libc.a(lib_a-__call_atexit.o)
 .debug_info    0x00012115      0xd6f c:/altera/13.0/nios2eds/bin/gnu/h-i686-mingw32/bin/../lib/gcc/nios2-elf/4.1.2/../../../../nios2-elf/lib\libc.a(lib_a-dtoa.o)
 .debug_info    0x00012e84      0x9fe c:/altera/13.0/nios2eds/bin/gnu/h-i686-mingw32/bin/../lib/gcc/nios2-elf/4.1.2/../../../../nios2-elf/lib\libc.a(lib_a-fflush.o)
 .debug_info    0x00013882      0xb72 c:/altera/13.0/nios2eds/bin/gnu/h-i686-mingw32/bin/../lib/gcc/nios2-elf/4.1.2/../../../../nios2-elf/lib\libc.a(lib_a-findfp.o)
 .debug_info    0x000143f4      0x9bd c:/altera/13.0/nios2eds/bin/gnu/h-i686-mingw32/bin/../lib/gcc/nios2-elf/4.1.2/../../../../nios2-elf/lib\libc.a(lib_a-fputc.o)
 .debug_info    0x00014db1      0xa40 c:/altera/13.0/nios2eds/bin/gnu/h-i686-mingw32/bin/../lib/gcc/nios2-elf/4.1.2/../../../../nios2-elf/lib\libc.a(lib_a-fputs.o)
 .debug_info    0x000157f1      0xbc9 c:/altera/13.0/nios2eds/bin/gnu/h-i686-mingw32/bin/../lib/gcc/nios2-elf/4.1.2/../../../../nios2-elf/lib\libc.a(lib_a-freer.o)
 .debug_info    0x000163ba      0xa88 c:/altera/13.0/nios2eds/bin/gnu/h-i686-mingw32/bin/../lib/gcc/nios2-elf/4.1.2/../../../../nios2-elf/lib\libc.a(lib_a-fvwrite.o)
 .debug_info    0x00016e42      0xaed c:/altera/13.0/nios2eds/bin/gnu/h-i686-mingw32/bin/../lib/gcc/nios2-elf/4.1.2/../../../../nios2-elf/lib\libc.a(lib_a-fwalk.o)
 .debug_info    0x0001792f      0xb97 c:/altera/13.0/nios2eds/bin/gnu/h-i686-mingw32/bin/../lib/gcc/nios2-elf/4.1.2/../../../../nios2-elf/lib\libc.a(lib_a-locale.o)
 .debug_info    0x000184c6      0xb1a c:/altera/13.0/nios2eds/bin/gnu/h-i686-mingw32/bin/../lib/gcc/nios2-elf/4.1.2/../../../../nios2-elf/lib\libc.a(lib_a-makebuf.o)
 .debug_info    0x00018fe0      0xcd0 c:/altera/13.0/nios2eds/bin/gnu/h-i686-mingw32/bin/../lib/gcc/nios2-elf/4.1.2/../../../../nios2-elf/lib\libc.a(lib_a-mallocr.o)
 .debug_info    0x00019cb0      0x138 c:/altera/13.0/nios2eds/bin/gnu/h-i686-mingw32/bin/../lib/gcc/nios2-elf/4.1.2/../../../../nios2-elf/lib\libc.a(lib_a-memchr.o)
 .debug_info    0x00019de8     0x1437 c:/altera/13.0/nios2eds/bin/gnu/h-i686-mingw32/bin/../lib/gcc/nios2-elf/4.1.2/../../../../nios2-elf/lib\libc.a(lib_a-mprec.o)
 .debug_info    0x0001b21f      0xbd7 c:/altera/13.0/nios2eds/bin/gnu/h-i686-mingw32/bin/../lib/gcc/nios2-elf/4.1.2/../../../../nios2-elf/lib\libc.a(lib_a-reallocr.o)
 .debug_info    0x0001bdf6      0x98b c:/altera/13.0/nios2eds/bin/gnu/h-i686-mingw32/bin/../lib/gcc/nios2-elf/4.1.2/../../../../nios2-elf/lib\libc.a(lib_a-refill.o)
 .debug_info    0x0001c781       0xd7 c:/altera/13.0/nios2eds/bin/gnu/h-i686-mingw32/bin/../lib/gcc/nios2-elf/4.1.2/../../../../nios2-elf/lib\libc.a(lib_a-s_isinfd.o)
 .debug_info    0x0001c858       0xd5 c:/altera/13.0/nios2eds/bin/gnu/h-i686-mingw32/bin/../lib/gcc/nios2-elf/4.1.2/../../../../nios2-elf/lib\libc.a(lib_a-s_isnand.o)
 .debug_info    0x0001c92d      0x962 c:/altera/13.0/nios2eds/bin/gnu/h-i686-mingw32/bin/../lib/gcc/nios2-elf/4.1.2/../../../../nios2-elf/lib\libc.a(lib_a-sbrkr.o)
 .debug_info    0x0001d28f      0xaac c:/altera/13.0/nios2eds/bin/gnu/h-i686-mingw32/bin/../lib/gcc/nios2-elf/4.1.2/../../../../nios2-elf/lib\libc.a(lib_a-stdio.o)
 .debug_info    0x0001dd3b       0xdd c:/altera/13.0/nios2eds/bin/gnu/h-i686-mingw32/bin/../lib/gcc/nios2-elf/4.1.2/../../../../nios2-elf/lib\libc.a(lib_a-strcmp.o)
 .debug_info    0x0001de18      0x993 c:/altera/13.0/nios2eds/bin/gnu/h-i686-mingw32/bin/../lib/gcc/nios2-elf/4.1.2/../../../../nios2-elf/lib\libc.a(lib_a-writer.o)
 .debug_info    0x0001e7ab      0xa1b c:/altera/13.0/nios2eds/bin/gnu/h-i686-mingw32/bin/../lib/gcc/nios2-elf/4.1.2/../../../../nios2-elf/lib\libc.a(lib_a-callocr.o)
 .debug_info    0x0001f1c6      0x958 c:/altera/13.0/nios2eds/bin/gnu/h-i686-mingw32/bin/../lib/gcc/nios2-elf/4.1.2/../../../../nios2-elf/lib\libc.a(lib_a-closer.o)
 .debug_info    0x0001fb1e      0x994 c:/altera/13.0/nios2eds/bin/gnu/h-i686-mingw32/bin/../lib/gcc/nios2-elf/4.1.2/../../../../nios2-elf/lib\libc.a(lib_a-fclose.o)
 .debug_info    0x000204b2      0xafc c:/altera/13.0/nios2eds/bin/gnu/h-i686-mingw32/bin/../lib/gcc/nios2-elf/4.1.2/../../../../nios2-elf/lib\libc.a(lib_a-fstatr.o)
 .debug_info    0x00020fae       0x8c c:/altera/13.0/nios2eds/bin/gnu/h-i686-mingw32/bin/../lib/gcc/nios2-elf/4.1.2/../../../../nios2-elf/lib\libc.a(lib_a-int_errno.o)
 .debug_info    0x0002103a      0x958 c:/altera/13.0/nios2eds/bin/gnu/h-i686-mingw32/bin/../lib/gcc/nios2-elf/4.1.2/../../../../nios2-elf/lib\libc.a(lib_a-isattyr.o)
 .debug_info    0x00021992      0x981 c:/altera/13.0/nios2eds/bin/gnu/h-i686-mingw32/bin/../lib/gcc/nios2-elf/4.1.2/../../../../nios2-elf/lib\libc.a(lib_a-lseekr.o)
 .debug_info    0x00022313      0x98c c:/altera/13.0/nios2eds/bin/gnu/h-i686-mingw32/bin/../lib/gcc/nios2-elf/4.1.2/../../../../nios2-elf/lib\libc.a(lib_a-readr.o)
 .debug_info    0x00022c9f      0x724 c:/altera/13.0/nios2eds/bin/gnu/h-i686-mingw32/bin/../lib/gcc/nios2-elf/4.1.2\libgcc.a(_udivdi3.o)
 .debug_info    0x000233c3      0x751 c:/altera/13.0/nios2eds/bin/gnu/h-i686-mingw32/bin/../lib/gcc/nios2-elf/4.1.2\libgcc.a(_umoddi3.o)
 .debug_info    0x00023b14      0x39b c:/altera/13.0/nios2eds/bin/gnu/h-i686-mingw32/bin/../lib/gcc/nios2-elf/4.1.2\libgcc.a(_div_df.o)
 .debug_info    0x00023eaf      0x29d c:/altera/13.0/nios2eds/bin/gnu/h-i686-mingw32/bin/../lib/gcc/nios2-elf/4.1.2\libgcc.a(_eq_df.o)
 .debug_info    0x0002414c      0x29d c:/altera/13.0/nios2eds/bin/gnu/h-i686-mingw32/bin/../lib/gcc/nios2-elf/4.1.2\libgcc.a(_ne_df.o)
 .debug_info    0x000243e9      0x29d c:/altera/13.0/nios2eds/bin/gnu/h-i686-mingw32/bin/../lib/gcc/nios2-elf/4.1.2\libgcc.a(_gt_df.o)
 .debug_info    0x00024686      0x29d c:/altera/13.0/nios2eds/bin/gnu/h-i686-mingw32/bin/../lib/gcc/nios2-elf/4.1.2\libgcc.a(_lt_df.o)
 .debug_info    0x00024923      0x218 c:/altera/13.0/nios2eds/bin/gnu/h-i686-mingw32/bin/../lib/gcc/nios2-elf/4.1.2\libgcc.a(_si_to_df.o)
 .debug_info    0x00024b3b      0x21c c:/altera/13.0/nios2eds/bin/gnu/h-i686-mingw32/bin/../lib/gcc/nios2-elf/4.1.2\libgcc.a(lib2-divmod.o)
 .debug_info    0x00024d57      0x202 ../server_bsp/\libucosii_bsp.a(alt_exit.o)
 .debug_info    0x00024f59      0x5e7 ../server_bsp/\libucosii_bsp.a(alt_flash_dev.o)
 .debug_info    0x00025540      0x6ae ../server_bsp/\libucosii_bsp.a(alt_fstat.o)
 .debug_info    0x00025bee      0x464 ../server_bsp/\libucosii_bsp.a(alt_irq_register.o)
 .debug_info    0x00026052      0x161 ../server_bsp/\libucosii_bsp.a(alt_irq_vars.o)
 .debug_info    0x000261b3      0x6b4 ../server_bsp/\libucosii_bsp.a(alt_isatty.o)
 .debug_info    0x00026867      0x4e8 ../server_bsp/\libucosii_bsp.a(alt_lseek.o)
 .debug_info    0x00026d4f      0x3d7 ../server_bsp/\libucosii_bsp.a(alt_main.o)
 .debug_info    0x00027126      0x2b1 ../server_bsp/\libucosii_bsp.a(alt_sbrk.o)
 .debug_info    0x000273d7      0x22e ../server_bsp/\libucosii_bsp.a(alt_usleep.o)
 .debug_info    0x00027605     0x11cd ../server_bsp/\libucosii_bsp.a(alt_env_lock.o)
 .debug_info    0x000287d2     0x1329 ../server_bsp/\libucosii_bsp.a(alt_malloc_lock.o)
 .debug_info    0x00029afb     0x1be3 ../server_bsp/\libucosii_bsp.a(os_core.o)
 .debug_info    0x0002b6de     0x1128 ../server_bsp/\libucosii_bsp.a(os_dbg.o)
 .debug_info    0x0002c806     0x123e ../server_bsp/\libucosii_bsp.a(os_flag.o)
 .debug_info    0x0002da44      0x808 ../server_bsp/\libucosii_bsp.a(os_mem.o)
 .debug_info    0x0002e24c     0x1078 ../server_bsp/\libucosii_bsp.a(os_q.o)
 .debug_info    0x0002f2c4      0xce0 ../server_bsp/\libucosii_bsp.a(os_sem.o)
 .debug_info    0x0002ffa4     0x1356 ../server_bsp/\libucosii_bsp.a(os_task.o)
 .debug_info    0x000312fa      0x9da ../server_bsp/\libucosii_bsp.a(os_time.o)
 .debug_info    0x00031cd4     0x129a ../server_bsp/\libucosii_bsp.a(alt_sys_init.o)
 .debug_info    0x00032f6e      0xb43 ../server_bsp/\libucosii_bsp.a(altera_avalon_cfi_flash.o)
 .debug_info    0x00033ab1      0xe2f ../server_bsp/\libucosii_bsp.a(altera_avalon_cfi_flash_table.o)
 .debug_info    0x000348e0      0xba3 ../server_bsp/\libucosii_bsp.a(altera_avalon_epcs_flash_controller.o)
 .debug_info    0x00035483      0x9cc ../server_bsp/\libucosii_bsp.a(altera_avalon_jtag_uart_fd.o)
 .debug_info    0x00035e4f      0x94a ../server_bsp/\libucosii_bsp.a(altera_avalon_jtag_uart_init.o)
 .debug_info    0x00036799      0x636 ../server_bsp/\libucosii_bsp.a(altera_avalon_jtag_uart_ioctl.o)
 .debug_info    0x00036dcf      0x7f2 ../server_bsp/\libucosii_bsp.a(altera_avalon_jtag_uart_read.o)
 .debug_info    0x000375c1      0x7e9 ../server_bsp/\libucosii_bsp.a(altera_avalon_jtag_uart_write.o)
 .debug_info    0x00037daa      0xa98 ../server_bsp/\libucosii_bsp.a(altera_avalon_lcd_16207.o)
 .debug_info    0x00038842      0x830 ../server_bsp/\libucosii_bsp.a(altera_avalon_lcd_16207_fd.o)
 .debug_info    0x00039072      0x385 ../server_bsp/\libucosii_bsp.a(altera_avalon_timer_sc.o)
 .debug_info    0x000393f7      0x86c ../server_bsp/\libucosii_bsp.a(altera_avalon_uart_fd.o)
 .debug_info    0x00039c63      0x838 ../server_bsp/\libucosii_bsp.a(altera_avalon_uart_init.o)
 .debug_info    0x0003a49b      0x7ba ../server_bsp/\libucosii_bsp.a(altera_avalon_uart_read.o)
 .debug_info    0x0003ac55      0x7a9 ../server_bsp/\libucosii_bsp.a(altera_avalon_uart_write.o)
 .debug_info    0x0003b3fe      0x636 ../server_bsp/\libucosii_bsp.a(epcs_commands.o)
 .debug_info    0x0003ba34      0x1b0 ../server_bsp/\libucosii_bsp.a(alt_iniche_close.o)
 .debug_info    0x0003bbe4      0xb57 ../server_bsp/\libucosii_bsp.a(alt_iniche_dev.o)
 .debug_info    0x0003c73b      0x1da ../server_bsp/\libucosii_bsp.a(alt_iniche_read.o)
 .debug_info    0x0003c915      0x1e1 ../server_bsp/\libucosii_bsp.a(alt_iniche_write.o)
 .debug_info    0x0003caf6      0xc43 ../server_bsp/\libucosii_bsp.a(ipnet.o)
 .debug_info    0x0003d739      0xb96 ../server_bsp/\libucosii_bsp.a(ipstart.o)
 .debug_info    0x0003e2cf     0x152a ../server_bsp/\libucosii_bsp.a(igmp_cmn.o)
 .debug_info    0x0003f7f9     0x145a ../server_bsp/\libucosii_bsp.a(bsdsock.o)
 .debug_info    0x00040c53      0x24c ../server_bsp/\libucosii_bsp.a(cksum.o)
 .debug_info    0x00040e9f      0x73e ../server_bsp/\libucosii_bsp.a(in_utils.o)
 .debug_info    0x000415dd      0x558 ../server_bsp/\libucosii_bsp.a(netmain.o)
 .debug_info    0x00041b35      0x6e4 ../server_bsp/\libucosii_bsp.a(parseip.o)
 .debug_info    0x00042219      0x965 ../server_bsp/\libucosii_bsp.a(tk_crnos.o)
 .debug_info    0x00042b7e     0x15f3 ../server_bsp/\libucosii_bsp.a(dhcpclnt.o)
 .debug_info    0x00044171      0x1d6 ../server_bsp/\libucosii_bsp.a(dhcputil.o)
 .debug_info    0x00044347      0xca2 ../server_bsp/\libucosii_bsp.a(pktalloc.o)
 .debug_info    0x00044fe9      0x2e6 ../server_bsp/\libucosii_bsp.a(q.o)
 .debug_info    0x000452cf      0xb21 ../server_bsp/\libucosii_bsp.a(udp_open.o)
 .debug_info    0x00045df0       0x87 ../server_bsp/\libucosii_bsp.a(asm_cksum.o)
 .debug_info    0x00045e77      0xea7 ../server_bsp/\libucosii_bsp.a(brdutils.o)
 .debug_info    0x00046d1e      0x6d9 ../server_bsp/\libucosii_bsp.a(osportco.o)
 .debug_info    0x000473f7      0x656 ../server_bsp/\libucosii_bsp.a(targnios.o)
 .debug_info    0x00047a4d     0x251d ../server_bsp/\libucosii_bsp.a(nptcp.o)
 .debug_info    0x00049f6a     0x11d5 ../server_bsp/\libucosii_bsp.a(rawsock.o)
 .debug_info    0x0004b13f     0x1c93 ../server_bsp/\libucosii_bsp.a(sockcall.o)
 .debug_info    0x0004cdd2     0x1a99 ../server_bsp/\libucosii_bsp.a(socket.o)
 .debug_info    0x0004e86b     0x155f ../server_bsp/\libucosii_bsp.a(socket2.o)
 .debug_info    0x0004fdca     0x1278 ../server_bsp/\libucosii_bsp.a(soselect.o)
 .debug_info    0x00051042     0x212a ../server_bsp/\libucosii_bsp.a(tcp_in.o)
 .debug_info    0x0005316c     0x1e19 ../server_bsp/\libucosii_bsp.a(tcp_out.o)
 .debug_info    0x00054f85     0x1e81 ../server_bsp/\libucosii_bsp.a(tcp_subr.o)
 .debug_info    0x00056e06     0x1c9c ../server_bsp/\libucosii_bsp.a(tcp_timr.o)
 .debug_info    0x00058aa2     0x1c59 ../server_bsp/\libucosii_bsp.a(tcp_usr.o)
 .debug_info    0x0005a6fb      0x1ac ../server_bsp/\libucosii_bsp.a(tcpport.o)
 .debug_info    0x0005a8a7     0x132f ../server_bsp/\libucosii_bsp.a(udpsock.o)
 .debug_info    0x0005bbd6      0x43c ../server_bsp/\libucosii_bsp.a(alt_alarm_start.o)
 .debug_info    0x0005c012      0x1a5 ../server_bsp/\libucosii_bsp.a(alt_busy_sleep.o)
 .debug_info    0x0005c1b7      0x4b9 ../server_bsp/\libucosii_bsp.a(alt_close.o)
 .debug_info    0x0005c670      0x19e ../server_bsp/\libucosii_bsp.a(alt_dcache_flush.o)
 .debug_info    0x0005c80e      0x7d7 ../server_bsp/\libucosii_bsp.a(alt_dev.o)
 .debug_info    0x0005cfe5      0x2b1 ../server_bsp/\libucosii_bsp.a(alt_dev_llist_insert.o)
 .debug_info    0x0005d296      0x109 ../server_bsp/\libucosii_bsp.a(alt_do_ctors.o)
 .debug_info    0x0005d39f      0x108 ../server_bsp/\libucosii_bsp.a(alt_do_dtors.o)
 .debug_info    0x0005d4a7      0x15e ../server_bsp/\libucosii_bsp.a(alt_errno.o)
 .debug_info    0x0005d605      0x466 ../server_bsp/\libucosii_bsp.a(alt_find_dev.o)
 .debug_info    0x0005da6b      0x48d ../server_bsp/\libucosii_bsp.a(alt_iic.o)
 .debug_info    0x0005def8      0x30e ../server_bsp/\libucosii_bsp.a(alt_iic_isr_register.o)
 .debug_info    0x0005e206      0x6e3 ../server_bsp/\libucosii_bsp.a(alt_io_redirect.o)
 .debug_info    0x0005e8e9       0x7e ../server_bsp/\libucosii_bsp.a(alt_irq_entry.o)
 .debug_info    0x0005e967      0x2b4 ../server_bsp/\libucosii_bsp.a(alt_irq_handler.o)
 .debug_info    0x0005ec1b      0x564 ../server_bsp/\libucosii_bsp.a(alt_open.o)
 .debug_info    0x0005f17f      0x6dc ../server_bsp/\libucosii_bsp.a(alt_read.o)
 .debug_info    0x0005f85b      0x449 ../server_bsp/\libucosii_bsp.a(alt_release_fd.o)
 .debug_info    0x0005fca4      0x18b ../server_bsp/\libucosii_bsp.a(alt_remap_cached.o)
 .debug_info    0x0005fe2f      0x18f ../server_bsp/\libucosii_bsp.a(alt_remap_uncached.o)
 .debug_info    0x0005ffbe      0x40b ../server_bsp/\libucosii_bsp.a(alt_tick.o)
 .debug_info    0x000603c9      0x6e5 ../server_bsp/\libucosii_bsp.a(alt_write.o)
 .debug_info    0x00060aae      0x15d ../server_bsp/\libucosii_bsp.a(altera_nios2_qsys_irq.o)
 .debug_info    0x00060c0b       0x7d ../server_bsp/\libucosii_bsp.a(os_cpu_a.o)
 .debug_info    0x00060c88     0x12cd ../server_bsp/\libucosii_bsp.a(os_cpu_c.o)
 .debug_info    0x00061f55      0x8e3 ../server_bsp/\libucosii_bsp.a(altera_avalon_cfi_flash_amd.o)
 .debug_info    0x00062838      0x8d9 ../server_bsp/\libucosii_bsp.a(altera_avalon_cfi_flash_intel.o)
 .debug_info    0x00063111      0x2a3 ../server_bsp/\libucosii_bsp.a(altera_avalon_spi.o)
 .debug_info    0x000633b4      0xd99 ../server_bsp/\libucosii_bsp.a(allports.o)
 .debug_info    0x0006414d      0x3bb ../server_bsp/\libucosii_bsp.a(timeouts.o)
 .debug_info    0x00064508      0x21a ../server_bsp/\libucosii_bsp.a(tk_misc.o)
 .debug_info    0x00064722      0x207 ../server_bsp/\libucosii_bsp.a(alt_iniche_fcntl.o)
 .debug_info    0x00064929     0x1273 ../server_bsp/\libucosii_bsp.a(et_arp.o)
 .debug_info    0x00065b9c      0xf91 ../server_bsp/\libucosii_bsp.a(iface.o)
 .debug_info    0x00066b2d     0x16fe ../server_bsp/\libucosii_bsp.a(ip.o)
 .debug_info    0x0006822b     0x1862 ../server_bsp/\libucosii_bsp.a(ip_reasm.o)
 .debug_info    0x00069a8d      0xde3 ../server_bsp/\libucosii_bsp.a(ipdemux.o)
 .debug_info    0x0006a870      0xa3f ../server_bsp/\libucosii_bsp.a(ipmc.o)
 .debug_info    0x0006b2af      0x2dd ../server_bsp/\libucosii_bsp.a(ipport.o)
 .debug_info    0x0006b58c      0xf50 ../server_bsp/\libucosii_bsp.a(ipraw.o)
 .debug_info    0x0006c4dc      0xefb ../server_bsp/\libucosii_bsp.a(iproute.o)
 .debug_info    0x0006d3d7     0x1292 ../server_bsp/\libucosii_bsp.a(udp.o)
 .debug_info    0x0006e669     0x112c ../server_bsp/\libucosii_bsp.a(igmp.o)
 .debug_info    0x0006f795     0x1360 ../server_bsp/\libucosii_bsp.a(igmp2.o)
 .debug_info    0x00070af5     0x10db ../server_bsp/\libucosii_bsp.a(ipopt.o)
 .debug_info    0x00071bd0      0xbb3 ../server_bsp/\libucosii_bsp.a(u_mctest.o)
 .debug_info    0x00072783      0xa51 ../server_bsp/\libucosii_bsp.a(dhcsetup.o)
 .debug_info    0x000731d4      0x739 ../server_bsp/\libucosii_bsp.a(memdev.o)
 .debug_info    0x0007390d      0x3de ../server_bsp/\libucosii_bsp.a(tcpcksum.o)
 .debug_info    0x00073ceb     0x12ad ../server_bsp/\libucosii_bsp.a(in_pcb.o)
 .debug_info    0x00074f98      0xfde ../server_bsp/\libucosii_bsp.a(vfsfiles.o)
 .debug_info    0x00075f76      0x1ad ../server_bsp/\libucosii_bsp.a(vfsport.o)
 .debug_info    0x00076123       0x84 ../server_bsp/\libucosii_bsp.a(alt_exception_entry.o)
 .debug_info    0x000761a7      0x6fa ../server_bsp/\libucosii_bsp.a(alt_fcntl.o)
 .debug_info    0x000768a1      0x46d ../server_bsp/\libucosii_bsp.a(alt_find_file.o)
 .debug_info    0x00076d0e      0x5ff ../server_bsp/\libucosii_bsp.a(alt_get_fd.o)
 .debug_info    0x0007730d     0x1180 ../server_bsp/\libucosii_bsp.a(icmp.o)
 .debug_info    0x0007848d      0x181 c:/altera/13.0/nios2eds/bin/gnu/h-i686-mingw32/bin/../lib/gcc/nios2-elf/4.1.2/../../../../nios2-elf/lib\libc.a(lib_a-atexit.o)
 .debug_info    0x0007860e      0x960 c:/altera/13.0/nios2eds/bin/gnu/h-i686-mingw32/bin/../lib/gcc/nios2-elf/4.1.2/../../../../nios2-elf/lib\libc.a(lib_a-atoi.o)
 .debug_info    0x00078f6e      0x954 c:/altera/13.0/nios2eds/bin/gnu/h-i686-mingw32/bin/../lib/gcc/nios2-elf/4.1.2/../../../../nios2-elf/lib\libc.a(lib_a-calloc.o)
 .debug_info    0x000798c2      0x96e c:/altera/13.0/nios2eds/bin/gnu/h-i686-mingw32/bin/../lib/gcc/nios2-elf/4.1.2/../../../../nios2-elf/lib\libc.a(lib_a-malloc.o)
 .debug_info    0x0007a230      0x115 c:/altera/13.0/nios2eds/bin/gnu/h-i686-mingw32/bin/../lib/gcc/nios2-elf/4.1.2/../../../../nios2-elf/lib\libc.a(lib_a-memcmp.o)
 .debug_info    0x0007a345      0xa16 c:/altera/13.0/nios2eds/bin/gnu/h-i686-mingw32/bin/../lib/gcc/nios2-elf/4.1.2/../../../../nios2-elf/lib\libc.a(lib_a-sprintf.o)
 .debug_info    0x0007ad5b      0x110 c:/altera/13.0/nios2eds/bin/gnu/h-i686-mingw32/bin/../lib/gcc/nios2-elf/4.1.2/../../../../nios2-elf/lib\libc.a(lib_a-strcpy.o)
 .debug_info    0x0007ae6b       0xf5 c:/altera/13.0/nios2eds/bin/gnu/h-i686-mingw32/bin/../lib/gcc/nios2-elf/4.1.2/../../../../nios2-elf/lib\libc.a(lib_a-strncmp.o)
 .debug_info    0x0007af60      0x12a c:/altera/13.0/nios2eds/bin/gnu/h-i686-mingw32/bin/../lib/gcc/nios2-elf/4.1.2/../../../../nios2-elf/lib\libc.a(lib_a-strncpy.o)
 .debug_info    0x0007b08a      0xa2a c:/altera/13.0/nios2eds/bin/gnu/h-i686-mingw32/bin/../lib/gcc/nios2-elf/4.1.2/../../../../nios2-elf/lib\libc.a(lib_a-strtol.o)
 .debug_info    0x0007bab4      0x9aa c:/altera/13.0/nios2eds/bin/gnu/h-i686-mingw32/bin/../lib/gcc/nios2-elf/4.1.2/../../../../nios2-elf/lib\libc.a(lib_a-vprintf.o)
 .debug_info    0x0007c45e      0x9ed c:/altera/13.0/nios2eds/bin/gnu/h-i686-mingw32/bin/../lib/gcc/nios2-elf/4.1.2/../../../../nios2-elf/lib\libc.a(lib_a-vsprintf.o)
 .debug_info    0x0007ce4b      0x99c c:/altera/13.0/nios2eds/bin/gnu/h-i686-mingw32/bin/../lib/gcc/nios2-elf/4.1.2/../../../../nios2-elf/lib\libc.a(lib_a-__atexit.o)

.debug_abbrev   0x00000000    0x125c3
 *(.debug_abbrev)
 .debug_abbrev  0x00000000       0x14 ../server_bsp//obj/HAL/src/crt0.o
 .debug_abbrev  0x00000014       0xa9 obj/default/LCD.o
 .debug_abbrev  0x000000bd      0x15c obj/default/SSS_DE2_115.o
 .debug_abbrev  0x00000219      0x1f1 obj/default/alt_error_handler.o
 .debug_abbrev  0x0000040a      0x231 obj/default/dm9000a.o
 .debug_abbrev  0x0000063b      0x1ae obj/default/iniche_init.o
 .debug_abbrev  0x000007e9       0xf5 obj/default/led.o
 .debug_abbrev  0x000008de      0x282 obj/default/network_utilities.o
 .debug_abbrev  0x00000b60      0x1c4 obj/default/simple_socket_server.o
 .debug_abbrev  0x00000d24        0x1 obj/default/tse_my_system.o
 .debug_abbrev  0x00000d25       0x5d c:/altera/13.0/nios2eds/bin/gnu/h-i686-mingw32/bin/../lib/gcc/nios2-elf/4.1.2\libgcc.a(_fixunsdfsi.o)
 .debug_abbrev  0x00000d82      0x1d2 c:/altera/13.0/nios2eds/bin/gnu/h-i686-mingw32/bin/../lib/gcc/nios2-elf/4.1.2\libgcc.a(_addsub_df.o)
 .debug_abbrev  0x00000f54      0x204 c:/altera/13.0/nios2eds/bin/gnu/h-i686-mingw32/bin/../lib/gcc/nios2-elf/4.1.2\libgcc.a(_mul_df.o)
 .debug_abbrev  0x00001158      0x151 c:/altera/13.0/nios2eds/bin/gnu/h-i686-mingw32/bin/../lib/gcc/nios2-elf/4.1.2\libgcc.a(_ge_df.o)
 .debug_abbrev  0x000012a9      0x176 c:/altera/13.0/nios2eds/bin/gnu/h-i686-mingw32/bin/../lib/gcc/nios2-elf/4.1.2\libgcc.a(_df_to_si.o)
 .debug_abbrev  0x0000141f       0xba c:/altera/13.0/nios2eds/bin/gnu/h-i686-mingw32/bin/../lib/gcc/nios2-elf/4.1.2\libgcc.a(_thenan_df.o)
 .debug_abbrev  0x000014d9      0x155 c:/altera/13.0/nios2eds/bin/gnu/h-i686-mingw32/bin/../lib/gcc/nios2-elf/4.1.2\libgcc.a(_usi_to_df.o)
 .debug_abbrev  0x0000162e       0xee c:/altera/13.0/nios2eds/bin/gnu/h-i686-mingw32/bin/../lib/gcc/nios2-elf/4.1.2\libgcc.a(_muldi3.o)
 .debug_abbrev  0x0000171c       0xb9 c:/altera/13.0/nios2eds/bin/gnu/h-i686-mingw32/bin/../lib/gcc/nios2-elf/4.1.2\libgcc.a(_clzsi2.o)
 .debug_abbrev  0x000017d5      0x1b1 c:/altera/13.0/nios2eds/bin/gnu/h-i686-mingw32/bin/../lib/gcc/nios2-elf/4.1.2\libgcc.a(_pack_df.o)
 .debug_abbrev  0x00001986      0x149 c:/altera/13.0/nios2eds/bin/gnu/h-i686-mingw32/bin/../lib/gcc/nios2-elf/4.1.2\libgcc.a(_unpack_df.o)
 .debug_abbrev  0x00001acf      0x132 c:/altera/13.0/nios2eds/bin/gnu/h-i686-mingw32/bin/../lib/gcc/nios2-elf/4.1.2\libgcc.a(_fpcmp_parts_df.o)
 .debug_abbrev  0x00001c01       0x61 c:/altera/13.0/nios2eds/bin/gnu/h-i686-mingw32/bin/../lib/gcc/nios2-elf/4.1.2\libgcc.a(_clz.o)
 .debug_abbrev  0x00001c62       0x61 c:/altera/13.0/nios2eds/bin/gnu/h-i686-mingw32/bin/../lib/gcc/nios2-elf/4.1.2/../../../../nios2-elf/lib\libc.a(lib_a-ctype_.o)
 .debug_abbrev  0x00001cc3      0x16e c:/altera/13.0/nios2eds/bin/gnu/h-i686-mingw32/bin/../lib/gcc/nios2-elf/4.1.2/../../../../nios2-elf/lib\libc.a(lib_a-exit.o)
 .debug_abbrev  0x00001e31      0x197 c:/altera/13.0/nios2eds/bin/gnu/h-i686-mingw32/bin/../lib/gcc/nios2-elf/4.1.2/../../../../nios2-elf/lib\libc.a(lib_a-fprintf.o)
 .debug_abbrev  0x00001fc8      0x1b1 c:/altera/13.0/nios2eds/bin/gnu/h-i686-mingw32/bin/../lib/gcc/nios2-elf/4.1.2/../../../../nios2-elf/lib\libc.a(lib_a-fwrite.o)
 .debug_abbrev  0x00002179      0x17f c:/altera/13.0/nios2eds/bin/gnu/h-i686-mingw32/bin/../lib/gcc/nios2-elf/4.1.2/../../../../nios2-elf/lib\libc.a(lib_a-getc.o)
 .debug_abbrev  0x000022f8      0x157 c:/altera/13.0/nios2eds/bin/gnu/h-i686-mingw32/bin/../lib/gcc/nios2-elf/4.1.2/../../../../nios2-elf/lib\libc.a(lib_a-impure.o)
 .debug_abbrev  0x0000244f       0xb5 c:/altera/13.0/nios2eds/bin/gnu/h-i686-mingw32/bin/../lib/gcc/nios2-elf/4.1.2/../../../../nios2-elf/lib\libc.a(lib_a-memcpy.o)
 .debug_abbrev  0x00002504       0xb5 c:/altera/13.0/nios2eds/bin/gnu/h-i686-mingw32/bin/../lib/gcc/nios2-elf/4.1.2/../../../../nios2-elf/lib\libc.a(lib_a-memmove.o)
 .debug_abbrev  0x000025b9       0xb8 c:/altera/13.0/nios2eds/bin/gnu/h-i686-mingw32/bin/../lib/gcc/nios2-elf/4.1.2/../../../../nios2-elf/lib\libc.a(lib_a-memset.o)
 .debug_abbrev  0x00002671      0x194 c:/altera/13.0/nios2eds/bin/gnu/h-i686-mingw32/bin/../lib/gcc/nios2-elf/4.1.2/../../../../nios2-elf/lib\libc.a(lib_a-perror.o)
 .debug_abbrev  0x00002805      0x191 c:/altera/13.0/nios2eds/bin/gnu/h-i686-mingw32/bin/../lib/gcc/nios2-elf/4.1.2/../../../../nios2-elf/lib\libc.a(lib_a-printf.o)
 .debug_abbrev  0x00002996      0x17f c:/altera/13.0/nios2eds/bin/gnu/h-i686-mingw32/bin/../lib/gcc/nios2-elf/4.1.2/../../../../nios2-elf/lib\libc.a(lib_a-putc.o)
 .debug_abbrev  0x00002b15      0x170 c:/altera/13.0/nios2eds/bin/gnu/h-i686-mingw32/bin/../lib/gcc/nios2-elf/4.1.2/../../../../nios2-elf/lib\libc.a(lib_a-putchar.o)
 .debug_abbrev  0x00002c85      0x1ac c:/altera/13.0/nios2eds/bin/gnu/h-i686-mingw32/bin/../lib/gcc/nios2-elf/4.1.2/../../../../nios2-elf/lib\libc.a(lib_a-puts.o)
 .debug_abbrev  0x00002e31      0x189 c:/altera/13.0/nios2eds/bin/gnu/h-i686-mingw32/bin/../lib/gcc/nios2-elf/4.1.2/../../../../nios2-elf/lib\libc.a(lib_a-rget.o)
 .debug_abbrev  0x00002fba       0x80 c:/altera/13.0/nios2eds/bin/gnu/h-i686-mingw32/bin/../lib/gcc/nios2-elf/4.1.2/../../../../nios2-elf/lib\libc.a(lib_a-strchr.o)
 .debug_abbrev  0x0000303a       0x68 c:/altera/13.0/nios2eds/bin/gnu/h-i686-mingw32/bin/../lib/gcc/nios2-elf/4.1.2/../../../../nios2-elf/lib\libc.a(lib_a-strerror.o)
 .debug_abbrev  0x000030a2       0x8b c:/altera/13.0/nios2eds/bin/gnu/h-i686-mingw32/bin/../lib/gcc/nios2-elf/4.1.2/../../../../nios2-elf/lib\libc.a(lib_a-strlen.o)
 .debug_abbrev  0x0000312d       0x5b c:/altera/13.0/nios2eds/bin/gnu/h-i686-mingw32/bin/../lib/gcc/nios2-elf/4.1.2/../../../../nios2-elf/lib\libc.a(lib_a-u_strerr.o)
 .debug_abbrev  0x00003188      0x30a c:/altera/13.0/nios2eds/bin/gnu/h-i686-mingw32/bin/../lib/gcc/nios2-elf/4.1.2/../../../../nios2-elf/lib\libc.a(lib_a-vfprintf.o)
 .debug_abbrev  0x00003492      0x198 c:/altera/13.0/nios2eds/bin/gnu/h-i686-mingw32/bin/../lib/gcc/nios2-elf/4.1.2/../../../../nios2-elf/lib\libc.a(lib_a-wbuf.o)
 .debug_abbrev  0x0000362a      0x170 c:/altera/13.0/nios2eds/bin/gnu/h-i686-mingw32/bin/../lib/gcc/nios2-elf/4.1.2/../../../../nios2-elf/lib\libc.a(lib_a-wsetup.o)
 .debug_abbrev  0x0000379a      0x1de c:/altera/13.0/nios2eds/bin/gnu/h-i686-mingw32/bin/../lib/gcc/nios2-elf/4.1.2/../../../../nios2-elf/lib\libc.a(lib_a-__call_atexit.o)
 .debug_abbrev  0x00003978      0x232 c:/altera/13.0/nios2eds/bin/gnu/h-i686-mingw32/bin/../lib/gcc/nios2-elf/4.1.2/../../../../nios2-elf/lib\libc.a(lib_a-dtoa.o)
 .debug_abbrev  0x00003baa      0x1c6 c:/altera/13.0/nios2eds/bin/gnu/h-i686-mingw32/bin/../lib/gcc/nios2-elf/4.1.2/../../../../nios2-elf/lib\libc.a(lib_a-fflush.o)
 .debug_abbrev  0x00003d70      0x24c c:/altera/13.0/nios2eds/bin/gnu/h-i686-mingw32/bin/../lib/gcc/nios2-elf/4.1.2/../../../../nios2-elf/lib\libc.a(lib_a-findfp.o)
 .debug_abbrev  0x00003fbc      0x18c c:/altera/13.0/nios2eds/bin/gnu/h-i686-mingw32/bin/../lib/gcc/nios2-elf/4.1.2/../../../../nios2-elf/lib\libc.a(lib_a-fputc.o)
 .debug_abbrev  0x00004148      0x1aa c:/altera/13.0/nios2eds/bin/gnu/h-i686-mingw32/bin/../lib/gcc/nios2-elf/4.1.2/../../../../nios2-elf/lib\libc.a(lib_a-fputs.o)
 .debug_abbrev  0x000042f2      0x1d9 c:/altera/13.0/nios2eds/bin/gnu/h-i686-mingw32/bin/../lib/gcc/nios2-elf/4.1.2/../../../../nios2-elf/lib\libc.a(lib_a-freer.o)
 .debug_abbrev  0x000044cb      0x1a3 c:/altera/13.0/nios2eds/bin/gnu/h-i686-mingw32/bin/../lib/gcc/nios2-elf/4.1.2/../../../../nios2-elf/lib\libc.a(lib_a-fvwrite.o)
 .debug_abbrev  0x0000466e      0x1e3 c:/altera/13.0/nios2eds/bin/gnu/h-i686-mingw32/bin/../lib/gcc/nios2-elf/4.1.2/../../../../nios2-elf/lib\libc.a(lib_a-fwalk.o)
 .debug_abbrev  0x00004851      0x1ed c:/altera/13.0/nios2eds/bin/gnu/h-i686-mingw32/bin/../lib/gcc/nios2-elf/4.1.2/../../../../nios2-elf/lib\libc.a(lib_a-locale.o)
 .debug_abbrev  0x00004a3e      0x197 c:/altera/13.0/nios2eds/bin/gnu/h-i686-mingw32/bin/../lib/gcc/nios2-elf/4.1.2/../../../../nios2-elf/lib\libc.a(lib_a-makebuf.o)
 .debug_abbrev  0x00004bd5      0x216 c:/altera/13.0/nios2eds/bin/gnu/h-i686-mingw32/bin/../lib/gcc/nios2-elf/4.1.2/../../../../nios2-elf/lib\libc.a(lib_a-mallocr.o)
 .debug_abbrev  0x00004deb       0xb5 c:/altera/13.0/nios2eds/bin/gnu/h-i686-mingw32/bin/../lib/gcc/nios2-elf/4.1.2/../../../../nios2-elf/lib\libc.a(lib_a-memchr.o)
 .debug_abbrev  0x00004ea0      0x297 c:/altera/13.0/nios2eds/bin/gnu/h-i686-mingw32/bin/../lib/gcc/nios2-elf/4.1.2/../../../../nios2-elf/lib\libc.a(lib_a-mprec.o)
 .debug_abbrev  0x00005137      0x1c3 c:/altera/13.0/nios2eds/bin/gnu/h-i686-mingw32/bin/../lib/gcc/nios2-elf/4.1.2/../../../../nios2-elf/lib\libc.a(lib_a-reallocr.o)
 .debug_abbrev  0x000052fa      0x187 c:/altera/13.0/nios2eds/bin/gnu/h-i686-mingw32/bin/../lib/gcc/nios2-elf/4.1.2/../../../../nios2-elf/lib\libc.a(lib_a-refill.o)
 .debug_abbrev  0x00005481       0x79 c:/altera/13.0/nios2eds/bin/gnu/h-i686-mingw32/bin/../lib/gcc/nios2-elf/4.1.2/../../../../nios2-elf/lib\libc.a(lib_a-s_isinfd.o)
 .debug_abbrev  0x000054fa       0x79 c:/altera/13.0/nios2eds/bin/gnu/h-i686-mingw32/bin/../lib/gcc/nios2-elf/4.1.2/../../../../nios2-elf/lib\libc.a(lib_a-s_isnand.o)
 .debug_abbrev  0x00005573      0x18c c:/altera/13.0/nios2eds/bin/gnu/h-i686-mingw32/bin/../lib/gcc/nios2-elf/4.1.2/../../../../nios2-elf/lib\libc.a(lib_a-sbrkr.o)
 .debug_abbrev  0x000056ff      0x1c9 c:/altera/13.0/nios2eds/bin/gnu/h-i686-mingw32/bin/../lib/gcc/nios2-elf/4.1.2/../../../../nios2-elf/lib\libc.a(lib_a-stdio.o)
 .debug_abbrev  0x000058c8       0x80 c:/altera/13.0/nios2eds/bin/gnu/h-i686-mingw32/bin/../lib/gcc/nios2-elf/4.1.2/../../../../nios2-elf/lib\libc.a(lib_a-strcmp.o)
 .debug_abbrev  0x00005948      0x184 c:/altera/13.0/nios2eds/bin/gnu/h-i686-mingw32/bin/../lib/gcc/nios2-elf/4.1.2/../../../../nios2-elf/lib\libc.a(lib_a-writer.o)
 .debug_abbrev  0x00005acc      0x1b8 c:/altera/13.0/nios2eds/bin/gnu/h-i686-mingw32/bin/../lib/gcc/nios2-elf/4.1.2/../../../../nios2-elf/lib\libc.a(lib_a-callocr.o)
 .debug_abbrev  0x00005c84      0x17f c:/altera/13.0/nios2eds/bin/gnu/h-i686-mingw32/bin/../lib/gcc/nios2-elf/4.1.2/../../../../nios2-elf/lib\libc.a(lib_a-closer.o)
 .debug_abbrev  0x00005e03      0x1a7 c:/altera/13.0/nios2eds/bin/gnu/h-i686-mingw32/bin/../lib/gcc/nios2-elf/4.1.2/../../../../nios2-elf/lib\libc.a(lib_a-fclose.o)
 .debug_abbrev  0x00005faa      0x18e c:/altera/13.0/nios2eds/bin/gnu/h-i686-mingw32/bin/../lib/gcc/nios2-elf/4.1.2/../../../../nios2-elf/lib\libc.a(lib_a-fstatr.o)
 .debug_abbrev  0x00006138       0x3b c:/altera/13.0/nios2eds/bin/gnu/h-i686-mingw32/bin/../lib/gcc/nios2-elf/4.1.2/../../../../nios2-elf/lib\libc.a(lib_a-int_errno.o)
 .debug_abbrev  0x00006173      0x17f c:/altera/13.0/nios2eds/bin/gnu/h-i686-mingw32/bin/../lib/gcc/nios2-elf/4.1.2/../../../../nios2-elf/lib\libc.a(lib_a-isattyr.o)
 .debug_abbrev  0x000062f2      0x18e c:/altera/13.0/nios2eds/bin/gnu/h-i686-mingw32/bin/../lib/gcc/nios2-elf/4.1.2/../../../../nios2-elf/lib\libc.a(lib_a-lseekr.o)
 .debug_abbrev  0x00006480      0x17f c:/altera/13.0/nios2eds/bin/gnu/h-i686-mingw32/bin/../lib/gcc/nios2-elf/4.1.2/../../../../nios2-elf/lib\libc.a(lib_a-readr.o)
 .debug_abbrev  0x000065ff      0x16b c:/altera/13.0/nios2eds/bin/gnu/h-i686-mingw32/bin/../lib/gcc/nios2-elf/4.1.2\libgcc.a(_udivdi3.o)
 .debug_abbrev  0x0000676a      0x18e c:/altera/13.0/nios2eds/bin/gnu/h-i686-mingw32/bin/../lib/gcc/nios2-elf/4.1.2\libgcc.a(_umoddi3.o)
 .debug_abbrev  0x000068f8      0x1e3 c:/altera/13.0/nios2eds/bin/gnu/h-i686-mingw32/bin/../lib/gcc/nios2-elf/4.1.2\libgcc.a(_div_df.o)
 .debug_abbrev  0x00006adb      0x151 c:/altera/13.0/nios2eds/bin/gnu/h-i686-mingw32/bin/../lib/gcc/nios2-elf/4.1.2\libgcc.a(_eq_df.o)
 .debug_abbrev  0x00006c2c      0x151 c:/altera/13.0/nios2eds/bin/gnu/h-i686-mingw32/bin/../lib/gcc/nios2-elf/4.1.2\libgcc.a(_ne_df.o)
 .debug_abbrev  0x00006d7d      0x151 c:/altera/13.0/nios2eds/bin/gnu/h-i686-mingw32/bin/../lib/gcc/nios2-elf/4.1.2\libgcc.a(_gt_df.o)
 .debug_abbrev  0x00006ece      0x151 c:/altera/13.0/nios2eds/bin/gnu/h-i686-mingw32/bin/../lib/gcc/nios2-elf/4.1.2\libgcc.a(_lt_df.o)
 .debug_abbrev  0x0000701f      0x13f c:/altera/13.0/nios2eds/bin/gnu/h-i686-mingw32/bin/../lib/gcc/nios2-elf/4.1.2\libgcc.a(_si_to_df.o)
 .debug_abbrev  0x0000715e       0xe0 c:/altera/13.0/nios2eds/bin/gnu/h-i686-mingw32/bin/../lib/gcc/nios2-elf/4.1.2\libgcc.a(lib2-divmod.o)
 .debug_abbrev  0x0000723e       0xaa ../server_bsp/\libucosii_bsp.a(alt_exit.o)
 .debug_abbrev  0x000072e8      0x128 ../server_bsp/\libucosii_bsp.a(alt_flash_dev.o)
 .debug_abbrev  0x00007410      0x102 ../server_bsp/\libucosii_bsp.a(alt_fstat.o)
 .debug_abbrev  0x00007512      0x180 ../server_bsp/\libucosii_bsp.a(alt_irq_register.o)
 .debug_abbrev  0x00007692       0x44 ../server_bsp/\libucosii_bsp.a(alt_irq_vars.o)
 .debug_abbrev  0x000076d6      0x102 ../server_bsp/\libucosii_bsp.a(alt_isatty.o)
 .debug_abbrev  0x000077d8      0x102 ../server_bsp/\libucosii_bsp.a(alt_lseek.o)
 .debug_abbrev  0x000078da      0x120 ../server_bsp/\libucosii_bsp.a(alt_main.o)
 .debug_abbrev  0x000079fa      0x115 ../server_bsp/\libucosii_bsp.a(alt_sbrk.o)
 .debug_abbrev  0x00007b0f       0xb7 ../server_bsp/\libucosii_bsp.a(alt_usleep.o)
 .debug_abbrev  0x00007bc6      0x1b3 ../server_bsp/\libucosii_bsp.a(alt_env_lock.o)
 .debug_abbrev  0x00007d79      0x234 ../server_bsp/\libucosii_bsp.a(alt_malloc_lock.o)
 .debug_abbrev  0x00007fad      0x2aa ../server_bsp/\libucosii_bsp.a(os_core.o)
 .debug_abbrev  0x00008257      0x114 ../server_bsp/\libucosii_bsp.a(os_dbg.o)
 .debug_abbrev  0x0000836b      0x21b ../server_bsp/\libucosii_bsp.a(os_flag.o)
 .debug_abbrev  0x00008586      0x235 ../server_bsp/\libucosii_bsp.a(os_mem.o)
 .debug_abbrev  0x000087bb      0x20d ../server_bsp/\libucosii_bsp.a(os_q.o)
 .debug_abbrev  0x000089c8      0x20d ../server_bsp/\libucosii_bsp.a(os_sem.o)
 .debug_abbrev  0x00008bd5      0x20e ../server_bsp/\libucosii_bsp.a(os_task.o)
 .debug_abbrev  0x00008de3      0x1de ../server_bsp/\libucosii_bsp.a(os_time.o)
 .debug_abbrev  0x00008fc1      0x1c8 ../server_bsp/\libucosii_bsp.a(alt_sys_init.o)
 .debug_abbrev  0x00009189      0x1bf ../server_bsp/\libucosii_bsp.a(altera_avalon_cfi_flash.o)
 .debug_abbrev  0x00009348      0x185 ../server_bsp/\libucosii_bsp.a(altera_avalon_cfi_flash_table.o)
 .debug_abbrev  0x000094cd      0x1bf ../server_bsp/\libucosii_bsp.a(altera_avalon_epcs_flash_controller.o)
 .debug_abbrev  0x0000968c      0x13c ../server_bsp/\libucosii_bsp.a(altera_avalon_jtag_uart_fd.o)
 .debug_abbrev  0x000097c8      0x21e ../server_bsp/\libucosii_bsp.a(altera_avalon_jtag_uart_init.o)
 .debug_abbrev  0x000099e6      0x135 ../server_bsp/\libucosii_bsp.a(altera_avalon_jtag_uart_ioctl.o)
 .debug_abbrev  0x00009b1b      0x1ee ../server_bsp/\libucosii_bsp.a(altera_avalon_jtag_uart_read.o)
 .debug_abbrev  0x00009d09      0x1ea ../server_bsp/\libucosii_bsp.a(altera_avalon_jtag_uart_write.o)
 .debug_abbrev  0x00009ef3      0x235 ../server_bsp/\libucosii_bsp.a(altera_avalon_lcd_16207.o)
 .debug_abbrev  0x0000a128      0x12f ../server_bsp/\libucosii_bsp.a(altera_avalon_lcd_16207_fd.o)
 .debug_abbrev  0x0000a257      0x137 ../server_bsp/\libucosii_bsp.a(altera_avalon_timer_sc.o)
 .debug_abbrev  0x0000a38e      0x124 ../server_bsp/\libucosii_bsp.a(altera_avalon_uart_fd.o)
 .debug_abbrev  0x0000a4b2      0x204 ../server_bsp/\libucosii_bsp.a(altera_avalon_uart_init.o)
 .debug_abbrev  0x0000a6b6      0x1b9 ../server_bsp/\libucosii_bsp.a(altera_avalon_uart_read.o)
 .debug_abbrev  0x0000a86f      0x1c0 ../server_bsp/\libucosii_bsp.a(altera_avalon_uart_write.o)
 .debug_abbrev  0x0000aa2f      0x145 ../server_bsp/\libucosii_bsp.a(epcs_commands.o)
 .debug_abbrev  0x0000ab74       0x77 ../server_bsp/\libucosii_bsp.a(alt_iniche_close.o)
 .debug_abbrev  0x0000abeb      0x11f ../server_bsp/\libucosii_bsp.a(alt_iniche_dev.o)
 .debug_abbrev  0x0000ad0a       0x7e ../server_bsp/\libucosii_bsp.a(alt_iniche_read.o)
 .debug_abbrev  0x0000ad88       0x85 ../server_bsp/\libucosii_bsp.a(alt_iniche_write.o)
 .debug_abbrev  0x0000ae0d      0x184 ../server_bsp/\libucosii_bsp.a(ipnet.o)
 .debug_abbrev  0x0000af91      0x18b ../server_bsp/\libucosii_bsp.a(ipstart.o)
 .debug_abbrev  0x0000b11c      0x191 ../server_bsp/\libucosii_bsp.a(igmp_cmn.o)
 .debug_abbrev  0x0000b2ad      0x1a3 ../server_bsp/\libucosii_bsp.a(bsdsock.o)
 .debug_abbrev  0x0000b450       0x96 ../server_bsp/\libucosii_bsp.a(cksum.o)
 .debug_abbrev  0x0000b4e6      0x18b ../server_bsp/\libucosii_bsp.a(in_utils.o)
 .debug_abbrev  0x0000b671      0x152 ../server_bsp/\libucosii_bsp.a(netmain.o)
 .debug_abbrev  0x0000b7c3      0x154 ../server_bsp/\libucosii_bsp.a(parseip.o)
 .debug_abbrev  0x0000b917      0x144 ../server_bsp/\libucosii_bsp.a(tk_crnos.o)
 .debug_abbrev  0x0000ba5b      0x217 ../server_bsp/\libucosii_bsp.a(dhcpclnt.o)
 .debug_abbrev  0x0000bc72       0x8f ../server_bsp/\libucosii_bsp.a(dhcputil.o)
 .debug_abbrev  0x0000bd01      0x196 ../server_bsp/\libucosii_bsp.a(pktalloc.o)
 .debug_abbrev  0x0000be97       0xcb ../server_bsp/\libucosii_bsp.a(q.o)
 .debug_abbrev  0x0000bf62      0x144 ../server_bsp/\libucosii_bsp.a(udp_open.o)
 .debug_abbrev  0x0000c0a6       0x14 ../server_bsp/\libucosii_bsp.a(asm_cksum.o)
 .debug_abbrev  0x0000c0ba      0x242 ../server_bsp/\libucosii_bsp.a(brdutils.o)
 .debug_abbrev  0x0000c2fc      0x194 ../server_bsp/\libucosii_bsp.a(osportco.o)
 .debug_abbrev  0x0000c490      0x199 ../server_bsp/\libucosii_bsp.a(targnios.o)
 .debug_abbrev  0x0000c629      0x1dc ../server_bsp/\libucosii_bsp.a(nptcp.o)
 .debug_abbrev  0x0000c805      0x136 ../server_bsp/\libucosii_bsp.a(rawsock.o)
 .debug_abbrev  0x0000c93b      0x1de ../server_bsp/\libucosii_bsp.a(sockcall.o)
 .debug_abbrev  0x0000cb19      0x1ef ../server_bsp/\libucosii_bsp.a(socket.o)
 .debug_abbrev  0x0000cd08      0x1ac ../server_bsp/\libucosii_bsp.a(socket2.o)
 .debug_abbrev  0x0000ceb4      0x17f ../server_bsp/\libucosii_bsp.a(soselect.o)
 .debug_abbrev  0x0000d033      0x1ca ../server_bsp/\libucosii_bsp.a(tcp_in.o)
 .debug_abbrev  0x0000d1fd      0x1a4 ../server_bsp/\libucosii_bsp.a(tcp_out.o)
 .debug_abbrev  0x0000d3a1      0x1c3 ../server_bsp/\libucosii_bsp.a(tcp_subr.o)
 .debug_abbrev  0x0000d564      0x19e ../server_bsp/\libucosii_bsp.a(tcp_timr.o)
 .debug_abbrev  0x0000d702      0x175 ../server_bsp/\libucosii_bsp.a(tcp_usr.o)
 .debug_abbrev  0x0000d877       0x77 ../server_bsp/\libucosii_bsp.a(tcpport.o)
 .debug_abbrev  0x0000d8ee      0x190 ../server_bsp/\libucosii_bsp.a(udpsock.o)
 .debug_abbrev  0x0000da7e      0x172 ../server_bsp/\libucosii_bsp.a(alt_alarm_start.o)
 .debug_abbrev  0x0000dbf0       0x6c ../server_bsp/\libucosii_bsp.a(alt_busy_sleep.o)
 .debug_abbrev  0x0000dc5c      0x102 ../server_bsp/\libucosii_bsp.a(alt_close.o)
 .debug_abbrev  0x0000dd5e       0x7a ../server_bsp/\libucosii_bsp.a(alt_dcache_flush.o)
 .debug_abbrev  0x0000ddd8      0x10a ../server_bsp/\libucosii_bsp.a(alt_dev.o)
 .debug_abbrev  0x0000dee2       0xf6 ../server_bsp/\libucosii_bsp.a(alt_dev_llist_insert.o)
 .debug_abbrev  0x0000dfd8       0x76 ../server_bsp/\libucosii_bsp.a(alt_do_ctors.o)
 .debug_abbrev  0x0000e04e       0x76 ../server_bsp/\libucosii_bsp.a(alt_do_dtors.o)
 .debug_abbrev  0x0000e0c4       0x5e ../server_bsp/\libucosii_bsp.a(alt_errno.o)
 .debug_abbrev  0x0000e122       0xd6 ../server_bsp/\libucosii_bsp.a(alt_find_dev.o)
 .debug_abbrev  0x0000e1f8      0x134 ../server_bsp/\libucosii_bsp.a(alt_iic.o)
 .debug_abbrev  0x0000e32c      0x14e ../server_bsp/\libucosii_bsp.a(alt_iic_isr_register.o)
 .debug_abbrev  0x0000e47a       0xf7 ../server_bsp/\libucosii_bsp.a(alt_io_redirect.o)
 .debug_abbrev  0x0000e571       0x12 ../server_bsp/\libucosii_bsp.a(alt_irq_entry.o)
 .debug_abbrev  0x0000e583      0x124 ../server_bsp/\libucosii_bsp.a(alt_irq_handler.o)
 .debug_abbrev  0x0000e6a7      0x119 ../server_bsp/\libucosii_bsp.a(alt_open.o)
 .debug_abbrev  0x0000e7c0      0x102 ../server_bsp/\libucosii_bsp.a(alt_read.o)
 .debug_abbrev  0x0000e8c2       0xd3 ../server_bsp/\libucosii_bsp.a(alt_release_fd.o)
 .debug_abbrev  0x0000e995       0x74 ../server_bsp/\libucosii_bsp.a(alt_remap_cached.o)
 .debug_abbrev  0x0000ea09       0x74 ../server_bsp/\libucosii_bsp.a(alt_remap_uncached.o)
 .debug_abbrev  0x0000ea7d      0x150 ../server_bsp/\libucosii_bsp.a(alt_tick.o)
 .debug_abbrev  0x0000ebcd      0x107 ../server_bsp/\libucosii_bsp.a(alt_write.o)
 .debug_abbrev  0x0000ecd4       0x3f ../server_bsp/\libucosii_bsp.a(altera_nios2_qsys_irq.o)
 .debug_abbrev  0x0000ed13       0x14 ../server_bsp/\libucosii_bsp.a(os_cpu_a.o)
 .debug_abbrev  0x0000ed27      0x1d0 ../server_bsp/\libucosii_bsp.a(os_cpu_c.o)
 .debug_abbrev  0x0000eef7      0x14d ../server_bsp/\libucosii_bsp.a(altera_avalon_cfi_flash_amd.o)
 .debug_abbrev  0x0000f044      0x14d ../server_bsp/\libucosii_bsp.a(altera_avalon_cfi_flash_intel.o)
 .debug_abbrev  0x0000f191       0x7c ../server_bsp/\libucosii_bsp.a(altera_avalon_spi.o)
 .debug_abbrev  0x0000f20d      0x173 ../server_bsp/\libucosii_bsp.a(allports.o)
 .debug_abbrev  0x0000f380      0x151 ../server_bsp/\libucosii_bsp.a(timeouts.o)
 .debug_abbrev  0x0000f4d1       0xa4 ../server_bsp/\libucosii_bsp.a(tk_misc.o)
 .debug_abbrev  0x0000f575       0x92 ../server_bsp/\libucosii_bsp.a(alt_iniche_fcntl.o)
 .debug_abbrev  0x0000f607      0x1eb ../server_bsp/\libucosii_bsp.a(et_arp.o)
 .debug_abbrev  0x0000f7f2      0x13d ../server_bsp/\libucosii_bsp.a(iface.o)
 .debug_abbrev  0x0000f92f      0x1ed ../server_bsp/\libucosii_bsp.a(ip.o)
 .debug_abbrev  0x0000fb1c      0x1ca ../server_bsp/\libucosii_bsp.a(ip_reasm.o)
 .debug_abbrev  0x0000fce6      0x166 ../server_bsp/\libucosii_bsp.a(ipdemux.o)
 .debug_abbrev  0x0000fe4c      0x114 ../server_bsp/\libucosii_bsp.a(ipmc.o)
 .debug_abbrev  0x0000ff60       0xe9 ../server_bsp/\libucosii_bsp.a(ipport.o)
 .debug_abbrev  0x00010049      0x19c ../server_bsp/\libucosii_bsp.a(ipraw.o)
 .debug_abbrev  0x000101e5      0x156 ../server_bsp/\libucosii_bsp.a(iproute.o)
 .debug_abbrev  0x0001033b      0x1c0 ../server_bsp/\libucosii_bsp.a(udp.o)
 .debug_abbrev  0x000104fb      0x10e ../server_bsp/\libucosii_bsp.a(igmp.o)
 .debug_abbrev  0x00010609      0x17a ../server_bsp/\libucosii_bsp.a(igmp2.o)
 .debug_abbrev  0x00010783      0x189 ../server_bsp/\libucosii_bsp.a(ipopt.o)
 .debug_abbrev  0x0001090c      0x15a ../server_bsp/\libucosii_bsp.a(u_mctest.o)
 .debug_abbrev  0x00010a66      0x12e ../server_bsp/\libucosii_bsp.a(dhcsetup.o)
 .debug_abbrev  0x00010b94      0x175 ../server_bsp/\libucosii_bsp.a(memdev.o)
 .debug_abbrev  0x00010d09       0xad ../server_bsp/\libucosii_bsp.a(tcpcksum.o)
 .debug_abbrev  0x00010db6      0x19f ../server_bsp/\libucosii_bsp.a(in_pcb.o)
 .debug_abbrev  0x00010f55      0x1b6 ../server_bsp/\libucosii_bsp.a(vfsfiles.o)
 .debug_abbrev  0x0001110b       0x77 ../server_bsp/\libucosii_bsp.a(vfsport.o)
 .debug_abbrev  0x00011182       0x12 ../server_bsp/\libucosii_bsp.a(alt_exception_entry.o)
 .debug_abbrev  0x00011194      0x107 ../server_bsp/\libucosii_bsp.a(alt_fcntl.o)
 .debug_abbrev  0x0001129b       0xd6 ../server_bsp/\libucosii_bsp.a(alt_find_file.o)
 .debug_abbrev  0x00011371      0x173 ../server_bsp/\libucosii_bsp.a(alt_get_fd.o)
 .debug_abbrev  0x000114e4      0x15d ../server_bsp/\libucosii_bsp.a(icmp.o)
 .debug_abbrev  0x00011641       0xb7 c:/altera/13.0/nios2eds/bin/gnu/h-i686-mingw32/bin/../lib/gcc/nios2-elf/4.1.2/../../../../nios2-elf/lib\libc.a(lib_a-atexit.o)
 .debug_abbrev  0x000116f8      0x176 c:/altera/13.0/nios2eds/bin/gnu/h-i686-mingw32/bin/../lib/gcc/nios2-elf/4.1.2/../../../../nios2-elf/lib\libc.a(lib_a-atoi.o)
 .debug_abbrev  0x0001186e      0x17f c:/altera/13.0/nios2eds/bin/gnu/h-i686-mingw32/bin/../lib/gcc/nios2-elf/4.1.2/../../../../nios2-elf/lib\libc.a(lib_a-calloc.o)
 .debug_abbrev  0x000119ed      0x187 c:/altera/13.0/nios2eds/bin/gnu/h-i686-mingw32/bin/../lib/gcc/nios2-elf/4.1.2/../../../../nios2-elf/lib\libc.a(lib_a-malloc.o)
 .debug_abbrev  0x00011b74       0x7c c:/altera/13.0/nios2eds/bin/gnu/h-i686-mingw32/bin/../lib/gcc/nios2-elf/4.1.2/../../../../nios2-elf/lib\libc.a(lib_a-memcmp.o)
 .debug_abbrev  0x00011bf0      0x191 c:/altera/13.0/nios2eds/bin/gnu/h-i686-mingw32/bin/../lib/gcc/nios2-elf/4.1.2/../../../../nios2-elf/lib\libc.a(lib_a-sprintf.o)
 .debug_abbrev  0x00011d81       0x8f c:/altera/13.0/nios2eds/bin/gnu/h-i686-mingw32/bin/../lib/gcc/nios2-elf/4.1.2/../../../../nios2-elf/lib\libc.a(lib_a-strcpy.o)
 .debug_abbrev  0x00011e10       0x8d c:/altera/13.0/nios2eds/bin/gnu/h-i686-mingw32/bin/../lib/gcc/nios2-elf/4.1.2/../../../../nios2-elf/lib\libc.a(lib_a-strncmp.o)
 .debug_abbrev  0x00011e9d       0x9c c:/altera/13.0/nios2eds/bin/gnu/h-i686-mingw32/bin/../lib/gcc/nios2-elf/4.1.2/../../../../nios2-elf/lib\libc.a(lib_a-strncpy.o)
 .debug_abbrev  0x00011f39      0x1c7 c:/altera/13.0/nios2eds/bin/gnu/h-i686-mingw32/bin/../lib/gcc/nios2-elf/4.1.2/../../../../nios2-elf/lib\libc.a(lib_a-strtol.o)
 .debug_abbrev  0x00012100      0x170 c:/altera/13.0/nios2eds/bin/gnu/h-i686-mingw32/bin/../lib/gcc/nios2-elf/4.1.2/../../../../nios2-elf/lib\libc.a(lib_a-vprintf.o)
 .debug_abbrev  0x00012270      0x1a5 c:/altera/13.0/nios2eds/bin/gnu/h-i686-mingw32/bin/../lib/gcc/nios2-elf/4.1.2/../../../../nios2-elf/lib\libc.a(lib_a-vsprintf.o)
 .debug_abbrev  0x00012415      0x1ae c:/altera/13.0/nios2eds/bin/gnu/h-i686-mingw32/bin/../lib/gcc/nios2-elf/4.1.2/../../../../nios2-elf/lib\libc.a(lib_a-__atexit.o)

.debug_line     0x00000000    0x41aa1
 *(.debug_line)
 .debug_line    0x00000000       0x57 ../server_bsp//obj/HAL/src/crt0.o
 .debug_line    0x00000057      0x33b obj/default/LCD.o
 .debug_line    0x00000392      0x4f7 obj/default/SSS_DE2_115.o
 .debug_line    0x00000889      0x706 obj/default/alt_error_handler.o
 .debug_line    0x00000f8f      0xaaf obj/default/dm9000a.o
 .debug_line    0x00001a3e      0x668 obj/default/iniche_init.o
 .debug_line    0x000020a6      0x406 obj/default/led.o
 .debug_line    0x000024ac      0x7be obj/default/network_utilities.o
 .debug_line    0x00002c6a      0x780 obj/default/simple_socket_server.o
 .debug_line    0x000033ea       0x24 obj/default/tse_my_system.o
 .debug_line    0x0000340e       0xff c:/altera/13.0/nios2eds/bin/gnu/h-i686-mingw32/bin/../lib/gcc/nios2-elf/4.1.2\libgcc.a(_fixunsdfsi.o)
 .debug_line    0x0000350d      0x430 c:/altera/13.0/nios2eds/bin/gnu/h-i686-mingw32/bin/../lib/gcc/nios2-elf/4.1.2\libgcc.a(_addsub_df.o)
 .debug_line    0x0000393d      0x3e5 c:/altera/13.0/nios2eds/bin/gnu/h-i686-mingw32/bin/../lib/gcc/nios2-elf/4.1.2\libgcc.a(_mul_df.o)
 .debug_line    0x00003d22      0x129 c:/altera/13.0/nios2eds/bin/gnu/h-i686-mingw32/bin/../lib/gcc/nios2-elf/4.1.2\libgcc.a(_ge_df.o)
 .debug_line    0x00003e4b      0x149 c:/altera/13.0/nios2eds/bin/gnu/h-i686-mingw32/bin/../lib/gcc/nios2-elf/4.1.2\libgcc.a(_df_to_si.o)
 .debug_line    0x00003f94       0x94 c:/altera/13.0/nios2eds/bin/gnu/h-i686-mingw32/bin/../lib/gcc/nios2-elf/4.1.2\libgcc.a(_thenan_df.o)
 .debug_line    0x00004028      0x189 c:/altera/13.0/nios2eds/bin/gnu/h-i686-mingw32/bin/../lib/gcc/nios2-elf/4.1.2\libgcc.a(_usi_to_df.o)
 .debug_line    0x000041b1      0x11f c:/altera/13.0/nios2eds/bin/gnu/h-i686-mingw32/bin/../lib/gcc/nios2-elf/4.1.2\libgcc.a(_muldi3.o)
 .debug_line    0x000042d0      0x105 c:/altera/13.0/nios2eds/bin/gnu/h-i686-mingw32/bin/../lib/gcc/nios2-elf/4.1.2\libgcc.a(_clzsi2.o)
 .debug_line    0x000043d5      0x222 c:/altera/13.0/nios2eds/bin/gnu/h-i686-mingw32/bin/../lib/gcc/nios2-elf/4.1.2\libgcc.a(_pack_df.o)
 .debug_line    0x000045f7      0x1e4 c:/altera/13.0/nios2eds/bin/gnu/h-i686-mingw32/bin/../lib/gcc/nios2-elf/4.1.2\libgcc.a(_unpack_df.o)
 .debug_line    0x000047db      0x187 c:/altera/13.0/nios2eds/bin/gnu/h-i686-mingw32/bin/../lib/gcc/nios2-elf/4.1.2\libgcc.a(_fpcmp_parts_df.o)
 .debug_line    0x00004962       0xaa c:/altera/13.0/nios2eds/bin/gnu/h-i686-mingw32/bin/../lib/gcc/nios2-elf/4.1.2\libgcc.a(_clz.o)
 .debug_line    0x00004a0c       0x7e c:/altera/13.0/nios2eds/bin/gnu/h-i686-mingw32/bin/../lib/gcc/nios2-elf/4.1.2/../../../../nios2-elf/lib\libc.a(lib_a-ctype_.o)
 .debug_line    0x00004a8a      0x232 c:/altera/13.0/nios2eds/bin/gnu/h-i686-mingw32/bin/../lib/gcc/nios2-elf/4.1.2/../../../../nios2-elf/lib\libc.a(lib_a-exit.o)
 .debug_line    0x00004cbc      0x27e c:/altera/13.0/nios2eds/bin/gnu/h-i686-mingw32/bin/../lib/gcc/nios2-elf/4.1.2/../../../../nios2-elf/lib\libc.a(lib_a-fprintf.o)
 .debug_line    0x00004f3a      0x2d3 c:/altera/13.0/nios2eds/bin/gnu/h-i686-mingw32/bin/../lib/gcc/nios2-elf/4.1.2/../../../../nios2-elf/lib\libc.a(lib_a-fwrite.o)
 .debug_line    0x0000520d      0x29e c:/altera/13.0/nios2eds/bin/gnu/h-i686-mingw32/bin/../lib/gcc/nios2-elf/4.1.2/../../../../nios2-elf/lib\libc.a(lib_a-getc.o)
 .debug_line    0x000054ab      0x224 c:/altera/13.0/nios2eds/bin/gnu/h-i686-mingw32/bin/../lib/gcc/nios2-elf/4.1.2/../../../../nios2-elf/lib\libc.a(lib_a-impure.o)
 .debug_line    0x000056cf      0x1a9 c:/altera/13.0/nios2eds/bin/gnu/h-i686-mingw32/bin/../lib/gcc/nios2-elf/4.1.2/../../../../nios2-elf/lib\libc.a(lib_a-memcpy.o)
 .debug_line    0x00005878      0x301 c:/altera/13.0/nios2eds/bin/gnu/h-i686-mingw32/bin/../lib/gcc/nios2-elf/4.1.2/../../../../nios2-elf/lib\libc.a(lib_a-memmove.o)
 .debug_line    0x00005b79      0x2f8 c:/altera/13.0/nios2eds/bin/gnu/h-i686-mingw32/bin/../lib/gcc/nios2-elf/4.1.2/../../../../nios2-elf/lib\libc.a(lib_a-memset.o)
 .debug_line    0x00005e71      0x29e c:/altera/13.0/nios2eds/bin/gnu/h-i686-mingw32/bin/../lib/gcc/nios2-elf/4.1.2/../../../../nios2-elf/lib\libc.a(lib_a-perror.o)
 .debug_line    0x0000610f      0x295 c:/altera/13.0/nios2eds/bin/gnu/h-i686-mingw32/bin/../lib/gcc/nios2-elf/4.1.2/../../../../nios2-elf/lib\libc.a(lib_a-printf.o)
 .debug_line    0x000063a4      0x2be c:/altera/13.0/nios2eds/bin/gnu/h-i686-mingw32/bin/../lib/gcc/nios2-elf/4.1.2/../../../../nios2-elf/lib\libc.a(lib_a-putc.o)
 .debug_line    0x00006662      0x25e c:/altera/13.0/nios2eds/bin/gnu/h-i686-mingw32/bin/../lib/gcc/nios2-elf/4.1.2/../../../../nios2-elf/lib\libc.a(lib_a-putchar.o)
 .debug_line    0x000068c0      0x2f1 c:/altera/13.0/nios2eds/bin/gnu/h-i686-mingw32/bin/../lib/gcc/nios2-elf/4.1.2/../../../../nios2-elf/lib\libc.a(lib_a-puts.o)
 .debug_line    0x00006bb1      0x287 c:/altera/13.0/nios2eds/bin/gnu/h-i686-mingw32/bin/../lib/gcc/nios2-elf/4.1.2/../../../../nios2-elf/lib\libc.a(lib_a-rget.o)
 .debug_line    0x00006e38      0x2be c:/altera/13.0/nios2eds/bin/gnu/h-i686-mingw32/bin/../lib/gcc/nios2-elf/4.1.2/../../../../nios2-elf/lib\libc.a(lib_a-strchr.o)
 .debug_line    0x000070f6      0x4db c:/altera/13.0/nios2eds/bin/gnu/h-i686-mingw32/bin/../lib/gcc/nios2-elf/4.1.2/../../../../nios2-elf/lib\libc.a(lib_a-strerror.o)
 .debug_line    0x000075d1      0x264 c:/altera/13.0/nios2eds/bin/gnu/h-i686-mingw32/bin/../lib/gcc/nios2-elf/4.1.2/../../../../nios2-elf/lib\libc.a(lib_a-strlen.o)
 .debug_line    0x00007835       0x91 c:/altera/13.0/nios2eds/bin/gnu/h-i686-mingw32/bin/../lib/gcc/nios2-elf/4.1.2/../../../../nios2-elf/lib\libc.a(lib_a-u_strerr.o)
 .debug_line    0x000078c6     0x1106 c:/altera/13.0/nios2eds/bin/gnu/h-i686-mingw32/bin/../lib/gcc/nios2-elf/4.1.2/../../../../nios2-elf/lib\libc.a(lib_a-vfprintf.o)
 .debug_line    0x000089cc      0x34a c:/altera/13.0/nios2eds/bin/gnu/h-i686-mingw32/bin/../lib/gcc/nios2-elf/4.1.2/../../../../nios2-elf/lib\libc.a(lib_a-wbuf.o)
 .debug_line    0x00008d16      0x2ea c:/altera/13.0/nios2eds/bin/gnu/h-i686-mingw32/bin/../lib/gcc/nios2-elf/4.1.2/../../../../nios2-elf/lib\libc.a(lib_a-wsetup.o)
 .debug_line    0x00009000      0x361 c:/altera/13.0/nios2eds/bin/gnu/h-i686-mingw32/bin/../lib/gcc/nios2-elf/4.1.2/../../../../nios2-elf/lib\libc.a(lib_a-__call_atexit.o)
 .debug_line    0x00009361     0x12c0 c:/altera/13.0/nios2eds/bin/gnu/h-i686-mingw32/bin/../lib/gcc/nios2-elf/4.1.2/../../../../nios2-elf/lib\libc.a(lib_a-dtoa.o)
 .debug_line    0x0000a621      0x407 c:/altera/13.0/nios2eds/bin/gnu/h-i686-mingw32/bin/../lib/gcc/nios2-elf/4.1.2/../../../../nios2-elf/lib\libc.a(lib_a-fflush.o)
 .debug_line    0x0000aa28      0x5fb c:/altera/13.0/nios2eds/bin/gnu/h-i686-mingw32/bin/../lib/gcc/nios2-elf/4.1.2/../../../../nios2-elf/lib\libc.a(lib_a-findfp.o)
 .debug_line    0x0000b023      0x27f c:/altera/13.0/nios2eds/bin/gnu/h-i686-mingw32/bin/../lib/gcc/nios2-elf/4.1.2/../../../../nios2-elf/lib\libc.a(lib_a-fputc.o)
 .debug_line    0x0000b2a2      0x2c2 c:/altera/13.0/nios2eds/bin/gnu/h-i686-mingw32/bin/../lib/gcc/nios2-elf/4.1.2/../../../../nios2-elf/lib\libc.a(lib_a-fputs.o)
 .debug_line    0x0000b564      0x5e5 c:/altera/13.0/nios2eds/bin/gnu/h-i686-mingw32/bin/../lib/gcc/nios2-elf/4.1.2/../../../../nios2-elf/lib\libc.a(lib_a-freer.o)
 .debug_line    0x0000bb49      0x63b c:/altera/13.0/nios2eds/bin/gnu/h-i686-mingw32/bin/../lib/gcc/nios2-elf/4.1.2/../../../../nios2-elf/lib\libc.a(lib_a-fvwrite.o)
 .debug_line    0x0000c184      0x344 c:/altera/13.0/nios2eds/bin/gnu/h-i686-mingw32/bin/../lib/gcc/nios2-elf/4.1.2/../../../../nios2-elf/lib\libc.a(lib_a-fwalk.o)
 .debug_line    0x0000c4c8      0x2c2 c:/altera/13.0/nios2eds/bin/gnu/h-i686-mingw32/bin/../lib/gcc/nios2-elf/4.1.2/../../../../nios2-elf/lib\libc.a(lib_a-locale.o)
 .debug_line    0x0000c78a      0x3bd c:/altera/13.0/nios2eds/bin/gnu/h-i686-mingw32/bin/../lib/gcc/nios2-elf/4.1.2/../../../../nios2-elf/lib\libc.a(lib_a-makebuf.o)
 .debug_line    0x0000cb47      0x804 c:/altera/13.0/nios2eds/bin/gnu/h-i686-mingw32/bin/../lib/gcc/nios2-elf/4.1.2/../../../../nios2-elf/lib\libc.a(lib_a-mallocr.o)
 .debug_line    0x0000d34b      0x2fa c:/altera/13.0/nios2eds/bin/gnu/h-i686-mingw32/bin/../lib/gcc/nios2-elf/4.1.2/../../../../nios2-elf/lib\libc.a(lib_a-memchr.o)
 .debug_line    0x0000d645     0x123d c:/altera/13.0/nios2eds/bin/gnu/h-i686-mingw32/bin/../lib/gcc/nios2-elf/4.1.2/../../../../nios2-elf/lib\libc.a(lib_a-mprec.o)
 .debug_line    0x0000e882      0x584 c:/altera/13.0/nios2eds/bin/gnu/h-i686-mingw32/bin/../lib/gcc/nios2-elf/4.1.2/../../../../nios2-elf/lib\libc.a(lib_a-reallocr.o)
 .debug_line    0x0000ee06      0x3be c:/altera/13.0/nios2eds/bin/gnu/h-i686-mingw32/bin/../lib/gcc/nios2-elf/4.1.2/../../../../nios2-elf/lib\libc.a(lib_a-refill.o)
 .debug_line    0x0000f1c4      0x21c c:/altera/13.0/nios2eds/bin/gnu/h-i686-mingw32/bin/../lib/gcc/nios2-elf/4.1.2/../../../../nios2-elf/lib\libc.a(lib_a-s_isinfd.o)
 .debug_line    0x0000f3e0      0x214 c:/altera/13.0/nios2eds/bin/gnu/h-i686-mingw32/bin/../lib/gcc/nios2-elf/4.1.2/../../../../nios2-elf/lib\libc.a(lib_a-s_isnand.o)
 .debug_line    0x0000f5f4      0x290 c:/altera/13.0/nios2eds/bin/gnu/h-i686-mingw32/bin/../lib/gcc/nios2-elf/4.1.2/../../../../nios2-elf/lib\libc.a(lib_a-sbrkr.o)
 .debug_line    0x0000f884      0x386 c:/altera/13.0/nios2eds/bin/gnu/h-i686-mingw32/bin/../lib/gcc/nios2-elf/4.1.2/../../../../nios2-elf/lib\libc.a(lib_a-stdio.o)
 .debug_line    0x0000fc0a      0x2cc c:/altera/13.0/nios2eds/bin/gnu/h-i686-mingw32/bin/../lib/gcc/nios2-elf/4.1.2/../../../../nios2-elf/lib\libc.a(lib_a-strcmp.o)
 .debug_line    0x0000fed6      0x291 c:/altera/13.0/nios2eds/bin/gnu/h-i686-mingw32/bin/../lib/gcc/nios2-elf/4.1.2/../../../../nios2-elf/lib\libc.a(lib_a-writer.o)
 .debug_line    0x00010167      0x256 c:/altera/13.0/nios2eds/bin/gnu/h-i686-mingw32/bin/../lib/gcc/nios2-elf/4.1.2/../../../../nios2-elf/lib\libc.a(lib_a-callocr.o)
 .debug_line    0x000103bd      0x291 c:/altera/13.0/nios2eds/bin/gnu/h-i686-mingw32/bin/../lib/gcc/nios2-elf/4.1.2/../../../../nios2-elf/lib\libc.a(lib_a-closer.o)
 .debug_line    0x0001064e      0x2e2 c:/altera/13.0/nios2eds/bin/gnu/h-i686-mingw32/bin/../lib/gcc/nios2-elf/4.1.2/../../../../nios2-elf/lib\libc.a(lib_a-fclose.o)
 .debug_line    0x00010930      0x25e c:/altera/13.0/nios2eds/bin/gnu/h-i686-mingw32/bin/../lib/gcc/nios2-elf/4.1.2/../../../../nios2-elf/lib\libc.a(lib_a-fstatr.o)
 .debug_line    0x00010b8e      0x1d9 c:/altera/13.0/nios2eds/bin/gnu/h-i686-mingw32/bin/../lib/gcc/nios2-elf/4.1.2/../../../../nios2-elf/lib\libc.a(lib_a-int_errno.o)
 .debug_line    0x00010d67      0x292 c:/altera/13.0/nios2eds/bin/gnu/h-i686-mingw32/bin/../lib/gcc/nios2-elf/4.1.2/../../../../nios2-elf/lib\libc.a(lib_a-isattyr.o)
 .debug_line    0x00010ff9      0x291 c:/altera/13.0/nios2eds/bin/gnu/h-i686-mingw32/bin/../lib/gcc/nios2-elf/4.1.2/../../../../nios2-elf/lib\libc.a(lib_a-lseekr.o)
 .debug_line    0x0001128a      0x290 c:/altera/13.0/nios2eds/bin/gnu/h-i686-mingw32/bin/../lib/gcc/nios2-elf/4.1.2/../../../../nios2-elf/lib\libc.a(lib_a-readr.o)
 .debug_line    0x0001151a      0x2f2 c:/altera/13.0/nios2eds/bin/gnu/h-i686-mingw32/bin/../lib/gcc/nios2-elf/4.1.2\libgcc.a(_udivdi3.o)
 .debug_line    0x0001180c      0x37d c:/altera/13.0/nios2eds/bin/gnu/h-i686-mingw32/bin/../lib/gcc/nios2-elf/4.1.2\libgcc.a(_umoddi3.o)
 .debug_line    0x00011b89      0x301 c:/altera/13.0/nios2eds/bin/gnu/h-i686-mingw32/bin/../lib/gcc/nios2-elf/4.1.2\libgcc.a(_div_df.o)
 .debug_line    0x00011e8a      0x129 c:/altera/13.0/nios2eds/bin/gnu/h-i686-mingw32/bin/../lib/gcc/nios2-elf/4.1.2\libgcc.a(_eq_df.o)
 .debug_line    0x00011fb3      0x129 c:/altera/13.0/nios2eds/bin/gnu/h-i686-mingw32/bin/../lib/gcc/nios2-elf/4.1.2\libgcc.a(_ne_df.o)
 .debug_line    0x000120dc      0x129 c:/altera/13.0/nios2eds/bin/gnu/h-i686-mingw32/bin/../lib/gcc/nios2-elf/4.1.2\libgcc.a(_gt_df.o)
 .debug_line    0x00012205      0x129 c:/altera/13.0/nios2eds/bin/gnu/h-i686-mingw32/bin/../lib/gcc/nios2-elf/4.1.2\libgcc.a(_lt_df.o)
 .debug_line    0x0001232e      0x175 c:/altera/13.0/nios2eds/bin/gnu/h-i686-mingw32/bin/../lib/gcc/nios2-elf/4.1.2\libgcc.a(_si_to_df.o)
 .debug_line    0x000124a3      0x24f c:/altera/13.0/nios2eds/bin/gnu/h-i686-mingw32/bin/../lib/gcc/nios2-elf/4.1.2\libgcc.a(lib2-divmod.o)
 .debug_line    0x000126f2      0x270 ../server_bsp/\libucosii_bsp.a(alt_exit.o)
 .debug_line    0x00012962      0x2c2 ../server_bsp/\libucosii_bsp.a(alt_flash_dev.o)
 .debug_line    0x00012c24      0x2fb ../server_bsp/\libucosii_bsp.a(alt_fstat.o)
 .debug_line    0x00012f1f      0x367 ../server_bsp/\libucosii_bsp.a(alt_irq_register.o)
 .debug_line    0x00013286       0x72 ../server_bsp/\libucosii_bsp.a(alt_irq_vars.o)
 .debug_line    0x000132f8      0x2fc ../server_bsp/\libucosii_bsp.a(alt_isatty.o)
 .debug_line    0x000135f4      0x2fb ../server_bsp/\libucosii_bsp.a(alt_lseek.o)
 .debug_line    0x000138ef      0x343 ../server_bsp/\libucosii_bsp.a(alt_main.o)
 .debug_line    0x00013c32      0x25b ../server_bsp/\libucosii_bsp.a(alt_sbrk.o)
 .debug_line    0x00013e8d      0x2a7 ../server_bsp/\libucosii_bsp.a(alt_usleep.o)
 .debug_line    0x00014134      0x2b9 ../server_bsp/\libucosii_bsp.a(alt_env_lock.o)
 .debug_line    0x000143ed      0x375 ../server_bsp/\libucosii_bsp.a(alt_malloc_lock.o)
 .debug_line    0x00014762     0x165d ../server_bsp/\libucosii_bsp.a(os_core.o)
 .debug_line    0x00015dbf      0x382 ../server_bsp/\libucosii_bsp.a(os_dbg.o)
 .debug_line    0x00016141     0x11e1 ../server_bsp/\libucosii_bsp.a(os_flag.o)
 .debug_line    0x00017322      0x784 ../server_bsp/\libucosii_bsp.a(os_mem.o)
 .debug_line    0x00017aa6      0xe65 ../server_bsp/\libucosii_bsp.a(os_q.o)
 .debug_line    0x0001890b      0xa1d ../server_bsp/\libucosii_bsp.a(os_sem.o)
 .debug_line    0x00019328     0x1126 ../server_bsp/\libucosii_bsp.a(os_task.o)
 .debug_line    0x0001a44e      0x529 ../server_bsp/\libucosii_bsp.a(os_time.o)
 .debug_line    0x0001a977      0x3fe ../server_bsp/\libucosii_bsp.a(alt_sys_init.o)
 .debug_line    0x0001ad75      0x56d ../server_bsp/\libucosii_bsp.a(altera_avalon_cfi_flash.o)
 .debug_line    0x0001b2e2      0x973 ../server_bsp/\libucosii_bsp.a(altera_avalon_cfi_flash_table.o)
 .debug_line    0x0001bc55      0x6e9 ../server_bsp/\libucosii_bsp.a(altera_avalon_epcs_flash_controller.o)
 .debug_line    0x0001c33e      0x313 ../server_bsp/\libucosii_bsp.a(altera_avalon_jtag_uart_fd.o)
 .debug_line    0x0001c651      0x592 ../server_bsp/\libucosii_bsp.a(altera_avalon_jtag_uart_init.o)
 .debug_line    0x0001cbe3      0x350 ../server_bsp/\libucosii_bsp.a(altera_avalon_jtag_uart_ioctl.o)
 .debug_line    0x0001cf33      0x48e ../server_bsp/\libucosii_bsp.a(altera_avalon_jtag_uart_read.o)
 .debug_line    0x0001d3c1      0x49c ../server_bsp/\libucosii_bsp.a(altera_avalon_jtag_uart_write.o)
 .debug_line    0x0001d85d      0x93a ../server_bsp/\libucosii_bsp.a(altera_avalon_lcd_16207.o)
 .debug_line    0x0001e197      0x2b3 ../server_bsp/\libucosii_bsp.a(altera_avalon_lcd_16207_fd.o)
 .debug_line    0x0001e44a      0x2ad ../server_bsp/\libucosii_bsp.a(altera_avalon_timer_sc.o)
 .debug_line    0x0001e6f7      0x2f1 ../server_bsp/\libucosii_bsp.a(altera_avalon_uart_fd.o)
 .debug_line    0x0001e9e8      0x561 ../server_bsp/\libucosii_bsp.a(altera_avalon_uart_init.o)
 .debug_line    0x0001ef49      0x4ad ../server_bsp/\libucosii_bsp.a(altera_avalon_uart_read.o)
 .debug_line    0x0001f3f6      0x48f ../server_bsp/\libucosii_bsp.a(altera_avalon_uart_write.o)
 .debug_line    0x0001f885      0x405 ../server_bsp/\libucosii_bsp.a(epcs_commands.o)
 .debug_line    0x0001fc8a      0x341 ../server_bsp/\libucosii_bsp.a(alt_iniche_close.o)
 .debug_line    0x0001ffcb      0x3e4 ../server_bsp/\libucosii_bsp.a(alt_iniche_dev.o)
 .debug_line    0x000203af      0x340 ../server_bsp/\libucosii_bsp.a(alt_iniche_read.o)
 .debug_line    0x000206ef      0x351 ../server_bsp/\libucosii_bsp.a(alt_iniche_write.o)
 .debug_line    0x00020a40      0x7a0 ../server_bsp/\libucosii_bsp.a(ipnet.o)
 .debug_line    0x000211e0      0x4e1 ../server_bsp/\libucosii_bsp.a(ipstart.o)
 .debug_line    0x000216c1      0x916 ../server_bsp/\libucosii_bsp.a(igmp_cmn.o)
 .debug_line    0x00021fd7      0x6c1 ../server_bsp/\libucosii_bsp.a(bsdsock.o)
 .debug_line    0x00022698      0x304 ../server_bsp/\libucosii_bsp.a(cksum.o)
 .debug_line    0x0002299c      0x7a3 ../server_bsp/\libucosii_bsp.a(in_utils.o)
 .debug_line    0x0002313f      0x439 ../server_bsp/\libucosii_bsp.a(netmain.o)
 .debug_line    0x00023578      0x647 ../server_bsp/\libucosii_bsp.a(parseip.o)
 .debug_line    0x00023bbf      0x5a2 ../server_bsp/\libucosii_bsp.a(tk_crnos.o)
 .debug_line    0x00024161     0x1063 ../server_bsp/\libucosii_bsp.a(dhcpclnt.o)
 .debug_line    0x000251c4      0x2f9 ../server_bsp/\libucosii_bsp.a(dhcputil.o)
 .debug_line    0x000254bd      0x643 ../server_bsp/\libucosii_bsp.a(pktalloc.o)
 .debug_line    0x00025b00      0x3d5 ../server_bsp/\libucosii_bsp.a(q.o)
 .debug_line    0x00025ed5      0x468 ../server_bsp/\libucosii_bsp.a(udp_open.o)
 .debug_line    0x0002633d       0xaf ../server_bsp/\libucosii_bsp.a(asm_cksum.o)
 .debug_line    0x000263ec      0x46c ../server_bsp/\libucosii_bsp.a(brdutils.o)
 .debug_line    0x00026858      0x4f9 ../server_bsp/\libucosii_bsp.a(osportco.o)
 .debug_line    0x00026d51      0x638 ../server_bsp/\libucosii_bsp.a(targnios.o)
 .debug_line    0x00027389      0xf1d ../server_bsp/\libucosii_bsp.a(nptcp.o)
 .debug_line    0x000282a6      0x842 ../server_bsp/\libucosii_bsp.a(rawsock.o)
 .debug_line    0x00028ae8      0xe30 ../server_bsp/\libucosii_bsp.a(sockcall.o)
 .debug_line    0x00029918     0x12b2 ../server_bsp/\libucosii_bsp.a(socket.o)
 .debug_line    0x0002abca      0xbe6 ../server_bsp/\libucosii_bsp.a(socket2.o)
 .debug_line    0x0002b7b0      0x727 ../server_bsp/\libucosii_bsp.a(soselect.o)
 .debug_line    0x0002bed7     0x15e8 ../server_bsp/\libucosii_bsp.a(tcp_in.o)
 .debug_line    0x0002d4bf      0xa53 ../server_bsp/\libucosii_bsp.a(tcp_out.o)
 .debug_line    0x0002df12      0x7bd ../server_bsp/\libucosii_bsp.a(tcp_subr.o)
 .debug_line    0x0002e6cf      0x60d ../server_bsp/\libucosii_bsp.a(tcp_timr.o)
 .debug_line    0x0002ecdc      0x89c ../server_bsp/\libucosii_bsp.a(tcp_usr.o)
 .debug_line    0x0002f578      0x339 ../server_bsp/\libucosii_bsp.a(tcpport.o)
 .debug_line    0x0002f8b1      0x953 ../server_bsp/\libucosii_bsp.a(udpsock.o)
 .debug_line    0x00030204      0x2d6 ../server_bsp/\libucosii_bsp.a(alt_alarm_start.o)
 .debug_line    0x000304da      0x253 ../server_bsp/\libucosii_bsp.a(alt_busy_sleep.o)
 .debug_line    0x0003072d      0x2f3 ../server_bsp/\libucosii_bsp.a(alt_close.o)
 .debug_line    0x00030a20      0x1db ../server_bsp/\libucosii_bsp.a(alt_dcache_flush.o)
 .debug_line    0x00030bfb      0x2b4 ../server_bsp/\libucosii_bsp.a(alt_dev.o)
 .debug_line    0x00030eaf      0x254 ../server_bsp/\libucosii_bsp.a(alt_dev_llist_insert.o)
 .debug_line    0x00031103       0x83 ../server_bsp/\libucosii_bsp.a(alt_do_ctors.o)
 .debug_line    0x00031186       0x83 ../server_bsp/\libucosii_bsp.a(alt_do_dtors.o)
 .debug_line    0x00031209      0x1a4 ../server_bsp/\libucosii_bsp.a(alt_errno.o)
 .debug_line    0x000313ad      0x2d4 ../server_bsp/\libucosii_bsp.a(alt_find_dev.o)
 .debug_line    0x00031681      0x2c2 ../server_bsp/\libucosii_bsp.a(alt_iic.o)
 .debug_line    0x00031943      0x243 ../server_bsp/\libucosii_bsp.a(alt_iic_isr_register.o)
 .debug_line    0x00031b86      0x31d ../server_bsp/\libucosii_bsp.a(alt_io_redirect.o)
 .debug_line    0x00031ea3       0x6b ../server_bsp/\libucosii_bsp.a(alt_irq_entry.o)
 .debug_line    0x00031f0e      0x2be ../server_bsp/\libucosii_bsp.a(alt_irq_handler.o)
 .debug_line    0x000321cc      0x359 ../server_bsp/\libucosii_bsp.a(alt_open.o)
 .debug_line    0x00032525      0x322 ../server_bsp/\libucosii_bsp.a(alt_read.o)
 .debug_line    0x00032847      0x273 ../server_bsp/\libucosii_bsp.a(alt_release_fd.o)
 .debug_line    0x00032aba      0x1b3 ../server_bsp/\libucosii_bsp.a(alt_remap_cached.o)
 .debug_line    0x00032c6d      0x1bd ../server_bsp/\libucosii_bsp.a(alt_remap_uncached.o)
 .debug_line    0x00032e2a      0x310 ../server_bsp/\libucosii_bsp.a(alt_tick.o)
 .debug_line    0x0003313a      0x323 ../server_bsp/\libucosii_bsp.a(alt_write.o)
 .debug_line    0x0003345d      0x1c8 ../server_bsp/\libucosii_bsp.a(altera_nios2_qsys_irq.o)
 .debug_line    0x00033625       0x86 ../server_bsp/\libucosii_bsp.a(os_cpu_a.o)
 .debug_line    0x000336ab      0x32a ../server_bsp/\libucosii_bsp.a(os_cpu_c.o)
 .debug_line    0x000339d5      0x43f ../server_bsp/\libucosii_bsp.a(altera_avalon_cfi_flash_amd.o)
 .debug_line    0x00033e14      0x431 ../server_bsp/\libucosii_bsp.a(altera_avalon_cfi_flash_intel.o)
 .debug_line    0x00034245      0x1ef ../server_bsp/\libucosii_bsp.a(altera_avalon_spi.o)
 .debug_line    0x00034434      0x519 ../server_bsp/\libucosii_bsp.a(allports.o)
 .debug_line    0x0003494d      0x47d ../server_bsp/\libucosii_bsp.a(timeouts.o)
 .debug_line    0x00034dca      0x36a ../server_bsp/\libucosii_bsp.a(tk_misc.o)
 .debug_line    0x00035134      0x389 ../server_bsp/\libucosii_bsp.a(alt_iniche_fcntl.o)
 .debug_line    0x000354bd      0xc9c ../server_bsp/\libucosii_bsp.a(et_arp.o)
 .debug_line    0x00036159      0x473 ../server_bsp/\libucosii_bsp.a(iface.o)
 .debug_line    0x000365cc      0xf8f ../server_bsp/\libucosii_bsp.a(ip.o)
 .debug_line    0x0003755b      0xf76 ../server_bsp/\libucosii_bsp.a(ip_reasm.o)
 .debug_line    0x000384d1      0x780 ../server_bsp/\libucosii_bsp.a(ipdemux.o)
 .debug_line    0x00038c51      0x462 ../server_bsp/\libucosii_bsp.a(ipmc.o)
 .debug_line    0x000390b3      0x332 ../server_bsp/\libucosii_bsp.a(ipport.o)
 .debug_line    0x000393e5      0x5b3 ../server_bsp/\libucosii_bsp.a(ipraw.o)
 .debug_line    0x00039998      0x5b5 ../server_bsp/\libucosii_bsp.a(iproute.o)
 .debug_line    0x00039f4d      0x7f0 ../server_bsp/\libucosii_bsp.a(udp.o)
 .debug_line    0x0003a73d      0x434 ../server_bsp/\libucosii_bsp.a(igmp.o)
 .debug_line    0x0003ab71      0x627 ../server_bsp/\libucosii_bsp.a(igmp2.o)
 .debug_line    0x0003b198      0x70b ../server_bsp/\libucosii_bsp.a(ipopt.o)
 .debug_line    0x0003b8a3      0x5f5 ../server_bsp/\libucosii_bsp.a(u_mctest.o)
 .debug_line    0x0003be98      0x439 ../server_bsp/\libucosii_bsp.a(dhcsetup.o)
 .debug_line    0x0003c2d1      0x443 ../server_bsp/\libucosii_bsp.a(memdev.o)
 .debug_line    0x0003c714      0x3b3 ../server_bsp/\libucosii_bsp.a(tcpcksum.o)
 .debug_line    0x0003cac7      0x767 ../server_bsp/\libucosii_bsp.a(in_pcb.o)
 .debug_line    0x0003d22e      0xff1 ../server_bsp/\libucosii_bsp.a(vfsfiles.o)
 .debug_line    0x0003e21f      0x2be ../server_bsp/\libucosii_bsp.a(vfsport.o)
 .debug_line    0x0003e4dd       0xab ../server_bsp/\libucosii_bsp.a(alt_exception_entry.o)
 .debug_line    0x0003e588      0x352 ../server_bsp/\libucosii_bsp.a(alt_fcntl.o)
 .debug_line    0x0003e8da      0x2e5 ../server_bsp/\libucosii_bsp.a(alt_find_file.o)
 .debug_line    0x0003ebbf      0x315 ../server_bsp/\libucosii_bsp.a(alt_get_fd.o)
 .debug_line    0x0003eed4      0x952 ../server_bsp/\libucosii_bsp.a(icmp.o)
 .debug_line    0x0003f826      0x1fa c:/altera/13.0/nios2eds/bin/gnu/h-i686-mingw32/bin/../lib/gcc/nios2-elf/4.1.2/../../../../nios2-elf/lib\libc.a(lib_a-atexit.o)
 .debug_line    0x0003fa20      0x204 c:/altera/13.0/nios2eds/bin/gnu/h-i686-mingw32/bin/../lib/gcc/nios2-elf/4.1.2/../../../../nios2-elf/lib\libc.a(lib_a-atoi.o)
 .debug_line    0x0003fc24      0x206 c:/altera/13.0/nios2eds/bin/gnu/h-i686-mingw32/bin/../lib/gcc/nios2-elf/4.1.2/../../../../nios2-elf/lib\libc.a(lib_a-calloc.o)
 .debug_line    0x0003fe2a      0x245 c:/altera/13.0/nios2eds/bin/gnu/h-i686-mingw32/bin/../lib/gcc/nios2-elf/4.1.2/../../../../nios2-elf/lib\libc.a(lib_a-malloc.o)
 .debug_line    0x0004006f      0x296 c:/altera/13.0/nios2eds/bin/gnu/h-i686-mingw32/bin/../lib/gcc/nios2-elf/4.1.2/../../../../nios2-elf/lib\libc.a(lib_a-memcmp.o)
 .debug_line    0x00040305      0x31c c:/altera/13.0/nios2eds/bin/gnu/h-i686-mingw32/bin/../lib/gcc/nios2-elf/4.1.2/../../../../nios2-elf/lib\libc.a(lib_a-sprintf.o)
 .debug_line    0x00040621      0x27e c:/altera/13.0/nios2eds/bin/gnu/h-i686-mingw32/bin/../lib/gcc/nios2-elf/4.1.2/../../../../nios2-elf/lib\libc.a(lib_a-strcpy.o)
 .debug_line    0x0004089f      0x2f5 c:/altera/13.0/nios2eds/bin/gnu/h-i686-mingw32/bin/../lib/gcc/nios2-elf/4.1.2/../../../../nios2-elf/lib\libc.a(lib_a-strncmp.o)
 .debug_line    0x00040b94      0x2c7 c:/altera/13.0/nios2eds/bin/gnu/h-i686-mingw32/bin/../lib/gcc/nios2-elf/4.1.2/../../../../nios2-elf/lib\libc.a(lib_a-strncpy.o)
 .debug_line    0x00040e5b      0x3fd c:/altera/13.0/nios2eds/bin/gnu/h-i686-mingw32/bin/../lib/gcc/nios2-elf/4.1.2/../../../../nios2-elf/lib\libc.a(lib_a-strtol.o)
 .debug_line    0x00041258      0x269 c:/altera/13.0/nios2eds/bin/gnu/h-i686-mingw32/bin/../lib/gcc/nios2-elf/4.1.2/../../../../nios2-elf/lib\libc.a(lib_a-vprintf.o)
 .debug_line    0x000414c1      0x2d3 c:/altera/13.0/nios2eds/bin/gnu/h-i686-mingw32/bin/../lib/gcc/nios2-elf/4.1.2/../../../../nios2-elf/lib\libc.a(lib_a-vsprintf.o)
 .debug_line    0x00041794      0x30d c:/altera/13.0/nios2eds/bin/gnu/h-i686-mingw32/bin/../lib/gcc/nios2-elf/4.1.2/../../../../nios2-elf/lib\libc.a(lib_a-__atexit.o)

.debug_frame    0x00000000     0x6774
 *(.debug_frame)
 .debug_frame   0x00000000       0xbc obj/default/LCD.o
 .debug_frame   0x000000bc       0x48 obj/default/SSS_DE2_115.o
 .debug_frame   0x00000104       0x64 obj/default/alt_error_handler.o
 .debug_frame   0x00000168      0x19c obj/default/dm9000a.o
 .debug_frame   0x00000304       0x84 obj/default/iniche_init.o
 .debug_frame   0x00000388       0x64 obj/default/led.o
 .debug_frame   0x000003ec       0xbc obj/default/network_utilities.o
 .debug_frame   0x000004a8       0xfc obj/default/simple_socket_server.o
 .debug_frame   0x000005a4       0x30 c:/altera/13.0/nios2eds/bin/gnu/h-i686-mingw32/bin/../lib/gcc/nios2-elf/4.1.2\libgcc.a(_fixunsdfsi.o)
 .debug_frame   0x000005d4       0x70 c:/altera/13.0/nios2eds/bin/gnu/h-i686-mingw32/bin/../lib/gcc/nios2-elf/4.1.2\libgcc.a(_addsub_df.o)
 .debug_frame   0x00000644       0x3c c:/altera/13.0/nios2eds/bin/gnu/h-i686-mingw32/bin/../lib/gcc/nios2-elf/4.1.2\libgcc.a(_mul_df.o)
 .debug_frame   0x00000680       0x2c c:/altera/13.0/nios2eds/bin/gnu/h-i686-mingw32/bin/../lib/gcc/nios2-elf/4.1.2\libgcc.a(_ge_df.o)
 .debug_frame   0x000006ac       0x28 c:/altera/13.0/nios2eds/bin/gnu/h-i686-mingw32/bin/../lib/gcc/nios2-elf/4.1.2\libgcc.a(_df_to_si.o)
 .debug_frame   0x000006d4       0x38 c:/altera/13.0/nios2eds/bin/gnu/h-i686-mingw32/bin/../lib/gcc/nios2-elf/4.1.2\libgcc.a(_usi_to_df.o)
 .debug_frame   0x0000070c       0x2c c:/altera/13.0/nios2eds/bin/gnu/h-i686-mingw32/bin/../lib/gcc/nios2-elf/4.1.2\libgcc.a(_muldi3.o)
 .debug_frame   0x00000738       0x20 c:/altera/13.0/nios2eds/bin/gnu/h-i686-mingw32/bin/../lib/gcc/nios2-elf/4.1.2\libgcc.a(_clzsi2.o)
 .debug_frame   0x00000758       0x2c c:/altera/13.0/nios2eds/bin/gnu/h-i686-mingw32/bin/../lib/gcc/nios2-elf/4.1.2\libgcc.a(_pack_df.o)
 .debug_frame   0x00000784       0x20 c:/altera/13.0/nios2eds/bin/gnu/h-i686-mingw32/bin/../lib/gcc/nios2-elf/4.1.2\libgcc.a(_unpack_df.o)
 .debug_frame   0x000007a4       0x20 c:/altera/13.0/nios2eds/bin/gnu/h-i686-mingw32/bin/../lib/gcc/nios2-elf/4.1.2\libgcc.a(_fpcmp_parts_df.o)
 .debug_frame   0x000007c4       0x28 c:/altera/13.0/nios2eds/bin/gnu/h-i686-mingw32/bin/../lib/gcc/nios2-elf/4.1.2/../../../../nios2-elf/lib\libc.a(lib_a-exit.o)
 .debug_frame   0x000007ec       0x40 c:/altera/13.0/nios2eds/bin/gnu/h-i686-mingw32/bin/../lib/gcc/nios2-elf/4.1.2/../../../../nios2-elf/lib\libc.a(lib_a-fprintf.o)
 .debug_frame   0x0000082c       0x48 c:/altera/13.0/nios2eds/bin/gnu/h-i686-mingw32/bin/../lib/gcc/nios2-elf/4.1.2/../../../../nios2-elf/lib\libc.a(lib_a-fwrite.o)
 .debug_frame   0x00000874       0x48 c:/altera/13.0/nios2eds/bin/gnu/h-i686-mingw32/bin/../lib/gcc/nios2-elf/4.1.2/../../../../nios2-elf/lib\libc.a(lib_a-getc.o)
 .debug_frame   0x000008bc       0x20 c:/altera/13.0/nios2eds/bin/gnu/h-i686-mingw32/bin/../lib/gcc/nios2-elf/4.1.2/../../../../nios2-elf/lib\libc.a(lib_a-memcpy.o)
 .debug_frame   0x000008dc       0x20 c:/altera/13.0/nios2eds/bin/gnu/h-i686-mingw32/bin/../lib/gcc/nios2-elf/4.1.2/../../../../nios2-elf/lib\libc.a(lib_a-memmove.o)
 .debug_frame   0x000008fc       0x20 c:/altera/13.0/nios2eds/bin/gnu/h-i686-mingw32/bin/../lib/gcc/nios2-elf/4.1.2/../../../../nios2-elf/lib\libc.a(lib_a-memset.o)
 .debug_frame   0x0000091c       0x38 c:/altera/13.0/nios2eds/bin/gnu/h-i686-mingw32/bin/../lib/gcc/nios2-elf/4.1.2/../../../../nios2-elf/lib\libc.a(lib_a-perror.o)
 .debug_frame   0x00000954       0x40 c:/altera/13.0/nios2eds/bin/gnu/h-i686-mingw32/bin/../lib/gcc/nios2-elf/4.1.2/../../../../nios2-elf/lib\libc.a(lib_a-printf.o)
 .debug_frame   0x00000994       0x4c c:/altera/13.0/nios2eds/bin/gnu/h-i686-mingw32/bin/../lib/gcc/nios2-elf/4.1.2/../../../../nios2-elf/lib\libc.a(lib_a-putc.o)
 .debug_frame   0x000009e0       0x30 c:/altera/13.0/nios2eds/bin/gnu/h-i686-mingw32/bin/../lib/gcc/nios2-elf/4.1.2/../../../../nios2-elf/lib\libc.a(lib_a-putchar.o)
 .debug_frame   0x00000a10       0x3c c:/altera/13.0/nios2eds/bin/gnu/h-i686-mingw32/bin/../lib/gcc/nios2-elf/4.1.2/../../../../nios2-elf/lib\libc.a(lib_a-puts.o)
 .debug_frame   0x00000a4c       0x38 c:/altera/13.0/nios2eds/bin/gnu/h-i686-mingw32/bin/../lib/gcc/nios2-elf/4.1.2/../../../../nios2-elf/lib\libc.a(lib_a-rget.o)
 .debug_frame   0x00000a84       0x20 c:/altera/13.0/nios2eds/bin/gnu/h-i686-mingw32/bin/../lib/gcc/nios2-elf/4.1.2/../../../../nios2-elf/lib\libc.a(lib_a-strchr.o)
 .debug_frame   0x00000aa4       0x28 c:/altera/13.0/nios2eds/bin/gnu/h-i686-mingw32/bin/../lib/gcc/nios2-elf/4.1.2/../../../../nios2-elf/lib\libc.a(lib_a-strerror.o)
 .debug_frame   0x00000acc       0x20 c:/altera/13.0/nios2eds/bin/gnu/h-i686-mingw32/bin/../lib/gcc/nios2-elf/4.1.2/../../../../nios2-elf/lib\libc.a(lib_a-strlen.o)
 .debug_frame   0x00000aec       0x20 c:/altera/13.0/nios2eds/bin/gnu/h-i686-mingw32/bin/../lib/gcc/nios2-elf/4.1.2/../../../../nios2-elf/lib\libc.a(lib_a-u_strerr.o)
 .debug_frame   0x00000b0c       0x64 c:/altera/13.0/nios2eds/bin/gnu/h-i686-mingw32/bin/../lib/gcc/nios2-elf/4.1.2/../../../../nios2-elf/lib\libc.a(lib_a-vfprintf.o)
 .debug_frame   0x00000b70       0x3c c:/altera/13.0/nios2eds/bin/gnu/h-i686-mingw32/bin/../lib/gcc/nios2-elf/4.1.2/../../../../nios2-elf/lib\libc.a(lib_a-wbuf.o)
 .debug_frame   0x00000bac       0x2c c:/altera/13.0/nios2eds/bin/gnu/h-i686-mingw32/bin/../lib/gcc/nios2-elf/4.1.2/../../../../nios2-elf/lib\libc.a(lib_a-wsetup.o)
 .debug_frame   0x00000bd8       0x4c c:/altera/13.0/nios2eds/bin/gnu/h-i686-mingw32/bin/../lib/gcc/nios2-elf/4.1.2/../../../../nios2-elf/lib\libc.a(lib_a-__call_atexit.o)
 .debug_frame   0x00000c24       0x64 c:/altera/13.0/nios2eds/bin/gnu/h-i686-mingw32/bin/../lib/gcc/nios2-elf/4.1.2/../../../../nios2-elf/lib\libc.a(lib_a-dtoa.o)
 .debug_frame   0x00000c88       0x40 c:/altera/13.0/nios2eds/bin/gnu/h-i686-mingw32/bin/../lib/gcc/nios2-elf/4.1.2/../../../../nios2-elf/lib\libc.a(lib_a-fflush.o)
 .debug_frame   0x00000cc8      0x118 c:/altera/13.0/nios2eds/bin/gnu/h-i686-mingw32/bin/../lib/gcc/nios2-elf/4.1.2/../../../../nios2-elf/lib\libc.a(lib_a-findfp.o)
 .debug_frame   0x00000de0       0x4c c:/altera/13.0/nios2eds/bin/gnu/h-i686-mingw32/bin/../lib/gcc/nios2-elf/4.1.2/../../../../nios2-elf/lib\libc.a(lib_a-fputc.o)
 .debug_frame   0x00000e2c       0x3c c:/altera/13.0/nios2eds/bin/gnu/h-i686-mingw32/bin/../lib/gcc/nios2-elf/4.1.2/../../../../nios2-elf/lib\libc.a(lib_a-fputs.o)
 .debug_frame   0x00000e68       0x4c c:/altera/13.0/nios2eds/bin/gnu/h-i686-mingw32/bin/../lib/gcc/nios2-elf/4.1.2/../../../../nios2-elf/lib\libc.a(lib_a-freer.o)
 .debug_frame   0x00000eb4       0x38 c:/altera/13.0/nios2eds/bin/gnu/h-i686-mingw32/bin/../lib/gcc/nios2-elf/4.1.2/../../../../nios2-elf/lib\libc.a(lib_a-fvwrite.o)
 .debug_frame   0x00000eec       0x60 c:/altera/13.0/nios2eds/bin/gnu/h-i686-mingw32/bin/../lib/gcc/nios2-elf/4.1.2/../../../../nios2-elf/lib\libc.a(lib_a-fwalk.o)
 .debug_frame   0x00000f4c       0x70 c:/altera/13.0/nios2eds/bin/gnu/h-i686-mingw32/bin/../lib/gcc/nios2-elf/4.1.2/../../../../nios2-elf/lib\libc.a(lib_a-locale.o)
 .debug_frame   0x00000fbc       0x2c c:/altera/13.0/nios2eds/bin/gnu/h-i686-mingw32/bin/../lib/gcc/nios2-elf/4.1.2/../../../../nios2-elf/lib\libc.a(lib_a-makebuf.o)
 .debug_frame   0x00000fe8       0x38 c:/altera/13.0/nios2eds/bin/gnu/h-i686-mingw32/bin/../lib/gcc/nios2-elf/4.1.2/../../../../nios2-elf/lib\libc.a(lib_a-mallocr.o)
 .debug_frame   0x00001020       0x20 c:/altera/13.0/nios2eds/bin/gnu/h-i686-mingw32/bin/../lib/gcc/nios2-elf/4.1.2/../../../../nios2-elf/lib\libc.a(lib_a-memchr.o)
 .debug_frame   0x00001040      0x218 c:/altera/13.0/nios2eds/bin/gnu/h-i686-mingw32/bin/../lib/gcc/nios2-elf/4.1.2/../../../../nios2-elf/lib\libc.a(lib_a-mprec.o)
 .debug_frame   0x00001258       0x38 c:/altera/13.0/nios2eds/bin/gnu/h-i686-mingw32/bin/../lib/gcc/nios2-elf/4.1.2/../../../../nios2-elf/lib\libc.a(lib_a-reallocr.o)
 .debug_frame   0x00001290       0x3c c:/altera/13.0/nios2eds/bin/gnu/h-i686-mingw32/bin/../lib/gcc/nios2-elf/4.1.2/../../../../nios2-elf/lib\libc.a(lib_a-refill.o)
 .debug_frame   0x000012cc       0x20 c:/altera/13.0/nios2eds/bin/gnu/h-i686-mingw32/bin/../lib/gcc/nios2-elf/4.1.2/../../../../nios2-elf/lib\libc.a(lib_a-s_isinfd.o)
 .debug_frame   0x000012ec       0x20 c:/altera/13.0/nios2eds/bin/gnu/h-i686-mingw32/bin/../lib/gcc/nios2-elf/4.1.2/../../../../nios2-elf/lib\libc.a(lib_a-s_isnand.o)
 .debug_frame   0x0000130c       0x2c c:/altera/13.0/nios2eds/bin/gnu/h-i686-mingw32/bin/../lib/gcc/nios2-elf/4.1.2/../../../../nios2-elf/lib\libc.a(lib_a-sbrkr.o)
 .debug_frame   0x00001338       0x78 c:/altera/13.0/nios2eds/bin/gnu/h-i686-mingw32/bin/../lib/gcc/nios2-elf/4.1.2/../../../../nios2-elf/lib\libc.a(lib_a-stdio.o)
 .debug_frame   0x000013b0       0x20 c:/altera/13.0/nios2eds/bin/gnu/h-i686-mingw32/bin/../lib/gcc/nios2-elf/4.1.2/../../../../nios2-elf/lib\libc.a(lib_a-strcmp.o)
 .debug_frame   0x000013d0       0x2c c:/altera/13.0/nios2eds/bin/gnu/h-i686-mingw32/bin/../lib/gcc/nios2-elf/4.1.2/../../../../nios2-elf/lib\libc.a(lib_a-writer.o)
 .debug_frame   0x000013fc       0x28 c:/altera/13.0/nios2eds/bin/gnu/h-i686-mingw32/bin/../lib/gcc/nios2-elf/4.1.2/../../../../nios2-elf/lib\libc.a(lib_a-callocr.o)
 .debug_frame   0x00001424       0x2c c:/altera/13.0/nios2eds/bin/gnu/h-i686-mingw32/bin/../lib/gcc/nios2-elf/4.1.2/../../../../nios2-elf/lib\libc.a(lib_a-closer.o)
 .debug_frame   0x00001450       0x3c c:/altera/13.0/nios2eds/bin/gnu/h-i686-mingw32/bin/../lib/gcc/nios2-elf/4.1.2/../../../../nios2-elf/lib\libc.a(lib_a-fclose.o)
 .debug_frame   0x0000148c       0x2c c:/altera/13.0/nios2eds/bin/gnu/h-i686-mingw32/bin/../lib/gcc/nios2-elf/4.1.2/../../../../nios2-elf/lib\libc.a(lib_a-fstatr.o)
 .debug_frame   0x000014b8       0x2c c:/altera/13.0/nios2eds/bin/gnu/h-i686-mingw32/bin/../lib/gcc/nios2-elf/4.1.2/../../../../nios2-elf/lib\libc.a(lib_a-isattyr.o)
 .debug_frame   0x000014e4       0x2c c:/altera/13.0/nios2eds/bin/gnu/h-i686-mingw32/bin/../lib/gcc/nios2-elf/4.1.2/../../../../nios2-elf/lib\libc.a(lib_a-lseekr.o)
 .debug_frame   0x00001510       0x2c c:/altera/13.0/nios2eds/bin/gnu/h-i686-mingw32/bin/../lib/gcc/nios2-elf/4.1.2/../../../../nios2-elf/lib\libc.a(lib_a-readr.o)
 .debug_frame   0x0000153c       0x38 c:/altera/13.0/nios2eds/bin/gnu/h-i686-mingw32/bin/../lib/gcc/nios2-elf/4.1.2\libgcc.a(_udivdi3.o)
 .debug_frame   0x00001574       0x38 c:/altera/13.0/nios2eds/bin/gnu/h-i686-mingw32/bin/../lib/gcc/nios2-elf/4.1.2\libgcc.a(_umoddi3.o)
 .debug_frame   0x000015ac       0x30 c:/altera/13.0/nios2eds/bin/gnu/h-i686-mingw32/bin/../lib/gcc/nios2-elf/4.1.2\libgcc.a(_div_df.o)
 .debug_frame   0x000015dc       0x2c c:/altera/13.0/nios2eds/bin/gnu/h-i686-mingw32/bin/../lib/gcc/nios2-elf/4.1.2\libgcc.a(_eq_df.o)
 .debug_frame   0x00001608       0x2c c:/altera/13.0/nios2eds/bin/gnu/h-i686-mingw32/bin/../lib/gcc/nios2-elf/4.1.2\libgcc.a(_ne_df.o)
 .debug_frame   0x00001634       0x2c c:/altera/13.0/nios2eds/bin/gnu/h-i686-mingw32/bin/../lib/gcc/nios2-elf/4.1.2\libgcc.a(_gt_df.o)
 .debug_frame   0x00001660       0x2c c:/altera/13.0/nios2eds/bin/gnu/h-i686-mingw32/bin/../lib/gcc/nios2-elf/4.1.2\libgcc.a(_lt_df.o)
 .debug_frame   0x0000168c       0x30 c:/altera/13.0/nios2eds/bin/gnu/h-i686-mingw32/bin/../lib/gcc/nios2-elf/4.1.2\libgcc.a(_si_to_df.o)
 .debug_frame   0x000016bc       0x70 c:/altera/13.0/nios2eds/bin/gnu/h-i686-mingw32/bin/../lib/gcc/nios2-elf/4.1.2\libgcc.a(lib2-divmod.o)
 .debug_frame   0x0000172c       0x48 ../server_bsp/\libucosii_bsp.a(alt_exit.o)
 .debug_frame   0x00001774       0x48 ../server_bsp/\libucosii_bsp.a(alt_flash_dev.o)
 .debug_frame   0x000017bc       0x48 ../server_bsp/\libucosii_bsp.a(alt_fstat.o)
 .debug_frame   0x00001804       0x2c ../server_bsp/\libucosii_bsp.a(alt_irq_register.o)
 .debug_frame   0x00001830       0x48 ../server_bsp/\libucosii_bsp.a(alt_isatty.o)
 .debug_frame   0x00001878       0x48 ../server_bsp/\libucosii_bsp.a(alt_lseek.o)
 .debug_frame   0x000018c0       0x2c ../server_bsp/\libucosii_bsp.a(alt_main.o)
 .debug_frame   0x000018ec       0x2c ../server_bsp/\libucosii_bsp.a(alt_sbrk.o)
 .debug_frame   0x00001918       0x30 ../server_bsp/\libucosii_bsp.a(alt_usleep.o)
 .debug_frame   0x00001948       0x4c ../server_bsp/\libucosii_bsp.a(alt_env_lock.o)
 .debug_frame   0x00001994       0x4c ../server_bsp/\libucosii_bsp.a(alt_malloc_lock.o)
 .debug_frame   0x000019e0      0x3e4 ../server_bsp/\libucosii_bsp.a(os_core.o)
 .debug_frame   0x00001dc4       0x2c ../server_bsp/\libucosii_bsp.a(os_dbg.o)
 .debug_frame   0x00001df0      0x180 ../server_bsp/\libucosii_bsp.a(os_flag.o)
 .debug_frame   0x00001f70       0xd4 ../server_bsp/\libucosii_bsp.a(os_mem.o)
 .debug_frame   0x00002044      0x144 ../server_bsp/\libucosii_bsp.a(os_q.o)
 .debug_frame   0x00002188       0xf0 ../server_bsp/\libucosii_bsp.a(os_sem.o)
 .debug_frame   0x00002278      0x160 ../server_bsp/\libucosii_bsp.a(os_task.o)
 .debug_frame   0x000023d8       0xa0 ../server_bsp/\libucosii_bsp.a(os_time.o)
 .debug_frame   0x00002478       0x64 ../server_bsp/\libucosii_bsp.a(alt_sys_init.o)
 .debug_frame   0x000024dc       0xd4 ../server_bsp/\libucosii_bsp.a(altera_avalon_cfi_flash.o)
 .debug_frame   0x000025b0      0x210 ../server_bsp/\libucosii_bsp.a(altera_avalon_cfi_flash_table.o)
 .debug_frame   0x000027c0      0x128 ../server_bsp/\libucosii_bsp.a(altera_avalon_epcs_flash_controller.o)
 .debug_frame   0x000028e8       0x80 ../server_bsp/\libucosii_bsp.a(altera_avalon_jtag_uart_fd.o)
 .debug_frame   0x00002968       0x80 ../server_bsp/\libucosii_bsp.a(altera_avalon_jtag_uart_init.o)
 .debug_frame   0x000029e8       0x2c ../server_bsp/\libucosii_bsp.a(altera_avalon_jtag_uart_ioctl.o)
 .debug_frame   0x00002a14       0x2c ../server_bsp/\libucosii_bsp.a(altera_avalon_jtag_uart_read.o)
 .debug_frame   0x00002a40       0x2c ../server_bsp/\libucosii_bsp.a(altera_avalon_jtag_uart_write.o)
 .debug_frame   0x00002a6c      0x114 ../server_bsp/\libucosii_bsp.a(altera_avalon_lcd_16207.o)
 .debug_frame   0x00002b80       0x2c ../server_bsp/\libucosii_bsp.a(altera_avalon_lcd_16207_fd.o)
 .debug_frame   0x00002bac       0x48 ../server_bsp/\libucosii_bsp.a(altera_avalon_timer_sc.o)
 .debug_frame   0x00002bf4       0x64 ../server_bsp/\libucosii_bsp.a(altera_avalon_uart_fd.o)
 .debug_frame   0x00002c58       0x9c ../server_bsp/\libucosii_bsp.a(altera_avalon_uart_init.o)
 .debug_frame   0x00002cf4       0x48 ../server_bsp/\libucosii_bsp.a(altera_avalon_uart_read.o)
 .debug_frame   0x00002d3c       0x48 ../server_bsp/\libucosii_bsp.a(altera_avalon_uart_write.o)
 .debug_frame   0x00002d84      0x160 ../server_bsp/\libucosii_bsp.a(epcs_commands.o)
 .debug_frame   0x00002ee4       0x2c ../server_bsp/\libucosii_bsp.a(alt_iniche_close.o)
 .debug_frame   0x00002f10       0x2c ../server_bsp/\libucosii_bsp.a(alt_iniche_dev.o)
 .debug_frame   0x00002f3c       0x2c ../server_bsp/\libucosii_bsp.a(alt_iniche_read.o)
 .debug_frame   0x00002f68       0x2c ../server_bsp/\libucosii_bsp.a(alt_iniche_write.o)
 .debug_frame   0x00002f94       0xb8 ../server_bsp/\libucosii_bsp.a(ipnet.o)
 .debug_frame   0x0000304c       0x80 ../server_bsp/\libucosii_bsp.a(ipstart.o)
 .debug_frame   0x000030cc       0xf8 ../server_bsp/\libucosii_bsp.a(igmp_cmn.o)
 .debug_frame   0x000031c4      0x12c ../server_bsp/\libucosii_bsp.a(bsdsock.o)
 .debug_frame   0x000032f0       0x48 ../server_bsp/\libucosii_bsp.a(cksum.o)
 .debug_frame   0x00003338      0x164 ../server_bsp/\libucosii_bsp.a(in_utils.o)
 .debug_frame   0x0000349c       0x64 ../server_bsp/\libucosii_bsp.a(netmain.o)
 .debug_frame   0x00003500      0x10c ../server_bsp/\libucosii_bsp.a(parseip.o)
 .debug_frame   0x0000360c       0xd4 ../server_bsp/\libucosii_bsp.a(tk_crnos.o)
 .debug_frame   0x000036e0      0x250 ../server_bsp/\libucosii_bsp.a(dhcpclnt.o)
 .debug_frame   0x00003930       0x2c ../server_bsp/\libucosii_bsp.a(dhcputil.o)
 .debug_frame   0x0000395c       0xb8 ../server_bsp/\libucosii_bsp.a(pktalloc.o)
 .debug_frame   0x00003a14       0x64 ../server_bsp/\libucosii_bsp.a(q.o)
 .debug_frame   0x00003a78       0x48 ../server_bsp/\libucosii_bsp.a(udp_open.o)
 .debug_frame   0x00003ac0       0xf0 ../server_bsp/\libucosii_bsp.a(brdutils.o)
 .debug_frame   0x00003bb0       0x9c ../server_bsp/\libucosii_bsp.a(osportco.o)
 .debug_frame   0x00003c4c      0x110 ../server_bsp/\libucosii_bsp.a(targnios.o)
 .debug_frame   0x00003d5c      0x208 ../server_bsp/\libucosii_bsp.a(nptcp.o)
 .debug_frame   0x00003f64       0x68 ../server_bsp/\libucosii_bsp.a(rawsock.o)
 .debug_frame   0x00003fcc      0x224 ../server_bsp/\libucosii_bsp.a(sockcall.o)
 .debug_frame   0x000041f0      0x1d4 ../server_bsp/\libucosii_bsp.a(socket.o)
 .debug_frame   0x000043c4      0x294 ../server_bsp/\libucosii_bsp.a(socket2.o)
 .debug_frame   0x00004658      0x110 ../server_bsp/\libucosii_bsp.a(soselect.o)
 .debug_frame   0x00004768       0xd8 ../server_bsp/\libucosii_bsp.a(tcp_in.o)
 .debug_frame   0x00004840       0x68 ../server_bsp/\libucosii_bsp.a(tcp_out.o)
 .debug_frame   0x000048a8      0x10c ../server_bsp/\libucosii_bsp.a(tcp_subr.o)
 .debug_frame   0x000049b4       0x64 ../server_bsp/\libucosii_bsp.a(tcp_timr.o)
 .debug_frame   0x00004a18       0x80 ../server_bsp/\libucosii_bsp.a(tcp_usr.o)
 .debug_frame   0x00004a98       0x2c ../server_bsp/\libucosii_bsp.a(tcpport.o)
 .debug_frame   0x00004ac4       0xbc ../server_bsp/\libucosii_bsp.a(udpsock.o)
 .debug_frame   0x00004b80       0x2c ../server_bsp/\libucosii_bsp.a(alt_alarm_start.o)
 .debug_frame   0x00004bac       0x2c ../server_bsp/\libucosii_bsp.a(alt_busy_sleep.o)
 .debug_frame   0x00004bd8       0x48 ../server_bsp/\libucosii_bsp.a(alt_close.o)
 .debug_frame   0x00004c20       0x2c ../server_bsp/\libucosii_bsp.a(alt_dcache_flush.o)
 .debug_frame   0x00004c4c       0x2c ../server_bsp/\libucosii_bsp.a(alt_dev.o)
 .debug_frame   0x00004c78       0x48 ../server_bsp/\libucosii_bsp.a(alt_dev_llist_insert.o)
 .debug_frame   0x00004cc0       0x2c ../server_bsp/\libucosii_bsp.a(alt_do_ctors.o)
 .debug_frame   0x00004cec       0x2c ../server_bsp/\libucosii_bsp.a(alt_do_dtors.o)
 .debug_frame   0x00004d18       0x2c ../server_bsp/\libucosii_bsp.a(alt_find_dev.o)
 .debug_frame   0x00004d44       0x80 ../server_bsp/\libucosii_bsp.a(alt_iic.o)
 .debug_frame   0x00004dc4       0x2c ../server_bsp/\libucosii_bsp.a(alt_iic_isr_register.o)
 .debug_frame   0x00004df0       0x48 ../server_bsp/\libucosii_bsp.a(alt_io_redirect.o)
 .debug_frame   0x00004e38       0x2c ../server_bsp/\libucosii_bsp.a(alt_irq_handler.o)
 .debug_frame   0x00004e64       0x64 ../server_bsp/\libucosii_bsp.a(alt_open.o)
 .debug_frame   0x00004ec8       0x48 ../server_bsp/\libucosii_bsp.a(alt_read.o)
 .debug_frame   0x00004f10       0x2c ../server_bsp/\libucosii_bsp.a(alt_release_fd.o)
 .debug_frame   0x00004f3c       0x2c ../server_bsp/\libucosii_bsp.a(alt_remap_cached.o)
 .debug_frame   0x00004f68       0x2c ../server_bsp/\libucosii_bsp.a(alt_remap_uncached.o)
 .debug_frame   0x00004f94       0x48 ../server_bsp/\libucosii_bsp.a(alt_tick.o)
 .debug_frame   0x00004fdc       0x48 ../server_bsp/\libucosii_bsp.a(alt_write.o)
 .debug_frame   0x00005024       0x2c ../server_bsp/\libucosii_bsp.a(altera_nios2_qsys_irq.o)
 .debug_frame   0x00005050      0x128 ../server_bsp/\libucosii_bsp.a(os_cpu_c.o)
 .debug_frame   0x00005178       0x80 ../server_bsp/\libucosii_bsp.a(altera_avalon_cfi_flash_amd.o)
 .debug_frame   0x000051f8       0x80 ../server_bsp/\libucosii_bsp.a(altera_avalon_cfi_flash_intel.o)
 .debug_frame   0x00005278       0x2c ../server_bsp/\libucosii_bsp.a(altera_avalon_spi.o)
 .debug_frame   0x000052a4       0xe0 ../server_bsp/\libucosii_bsp.a(allports.o)
 .debug_frame   0x00005384       0x88 ../server_bsp/\libucosii_bsp.a(timeouts.o)
 .debug_frame   0x0000540c       0x48 ../server_bsp/\libucosii_bsp.a(tk_misc.o)
 .debug_frame   0x00005454       0x2c ../server_bsp/\libucosii_bsp.a(alt_iniche_fcntl.o)
 .debug_frame   0x00005480      0x160 ../server_bsp/\libucosii_bsp.a(et_arp.o)
 .debug_frame   0x000055e0       0x80 ../server_bsp/\libucosii_bsp.a(iface.o)
 .debug_frame   0x00005660      0x160 ../server_bsp/\libucosii_bsp.a(ip.o)
 .debug_frame   0x000057c0      0x1d4 ../server_bsp/\libucosii_bsp.a(ip_reasm.o)
 .debug_frame   0x00005994       0x68 ../server_bsp/\libucosii_bsp.a(ipdemux.o)
 .debug_frame   0x000059fc       0x64 ../server_bsp/\libucosii_bsp.a(ipmc.o)
 .debug_frame   0x00005a60       0x64 ../server_bsp/\libucosii_bsp.a(ipport.o)
 .debug_frame   0x00005ac4       0xb8 ../server_bsp/\libucosii_bsp.a(ipraw.o)
 .debug_frame   0x00005b7c       0x64 ../server_bsp/\libucosii_bsp.a(iproute.o)
 .debug_frame   0x00005be0       0xd4 ../server_bsp/\libucosii_bsp.a(udp.o)
 .debug_frame   0x00005cb4       0x2c ../server_bsp/\libucosii_bsp.a(igmp.o)
 .debug_frame   0x00005ce0       0x9c ../server_bsp/\libucosii_bsp.a(igmp2.o)
 .debug_frame   0x00005d7c       0x84 ../server_bsp/\libucosii_bsp.a(ipopt.o)
 .debug_frame   0x00005e00       0x4c ../server_bsp/\libucosii_bsp.a(u_mctest.o)
 .debug_frame   0x00005e4c       0x48 ../server_bsp/\libucosii_bsp.a(dhcsetup.o)
 .debug_frame   0x00005e94      0x10c ../server_bsp/\libucosii_bsp.a(memdev.o)
 .debug_frame   0x00005fa0       0x2c ../server_bsp/\libucosii_bsp.a(tcpcksum.o)
 .debug_frame   0x00005fcc       0xf0 ../server_bsp/\libucosii_bsp.a(in_pcb.o)
 .debug_frame   0x000060bc      0x320 ../server_bsp/\libucosii_bsp.a(vfsfiles.o)
 .debug_frame   0x000063dc       0x2c ../server_bsp/\libucosii_bsp.a(vfsport.o)
 .debug_frame   0x00006408       0x48 ../server_bsp/\libucosii_bsp.a(alt_fcntl.o)
 .debug_frame   0x00006450       0x2c ../server_bsp/\libucosii_bsp.a(alt_find_file.o)
 .debug_frame   0x0000647c       0x2c ../server_bsp/\libucosii_bsp.a(alt_get_fd.o)
 .debug_frame   0x000064a8       0x84 ../server_bsp/\libucosii_bsp.a(icmp.o)
 .debug_frame   0x0000652c       0x20 c:/altera/13.0/nios2eds/bin/gnu/h-i686-mingw32/bin/../lib/gcc/nios2-elf/4.1.2/../../../../nios2-elf/lib\libc.a(lib_a-atexit.o)
 .debug_frame   0x0000654c       0x30 c:/altera/13.0/nios2eds/bin/gnu/h-i686-mingw32/bin/../lib/gcc/nios2-elf/4.1.2/../../../../nios2-elf/lib\libc.a(lib_a-atoi.o)
 .debug_frame   0x0000657c       0x20 c:/altera/13.0/nios2eds/bin/gnu/h-i686-mingw32/bin/../lib/gcc/nios2-elf/4.1.2/../../../../nios2-elf/lib\libc.a(lib_a-calloc.o)
 .debug_frame   0x0000659c       0x30 c:/altera/13.0/nios2eds/bin/gnu/h-i686-mingw32/bin/../lib/gcc/nios2-elf/4.1.2/../../../../nios2-elf/lib\libc.a(lib_a-malloc.o)
 .debug_frame   0x000065cc       0x20 c:/altera/13.0/nios2eds/bin/gnu/h-i686-mingw32/bin/../lib/gcc/nios2-elf/4.1.2/../../../../nios2-elf/lib\libc.a(lib_a-memcmp.o)
 .debug_frame   0x000065ec       0x40 c:/altera/13.0/nios2eds/bin/gnu/h-i686-mingw32/bin/../lib/gcc/nios2-elf/4.1.2/../../../../nios2-elf/lib\libc.a(lib_a-sprintf.o)
 .debug_frame   0x0000662c       0x20 c:/altera/13.0/nios2eds/bin/gnu/h-i686-mingw32/bin/../lib/gcc/nios2-elf/4.1.2/../../../../nios2-elf/lib\libc.a(lib_a-strcpy.o)
 .debug_frame   0x0000664c       0x20 c:/altera/13.0/nios2eds/bin/gnu/h-i686-mingw32/bin/../lib/gcc/nios2-elf/4.1.2/../../../../nios2-elf/lib\libc.a(lib_a-strncmp.o)
 .debug_frame   0x0000666c       0x20 c:/altera/13.0/nios2eds/bin/gnu/h-i686-mingw32/bin/../lib/gcc/nios2-elf/4.1.2/../../../../nios2-elf/lib\libc.a(lib_a-strncpy.o)
 .debug_frame   0x0000668c       0x4c c:/altera/13.0/nios2eds/bin/gnu/h-i686-mingw32/bin/../lib/gcc/nios2-elf/4.1.2/../../../../nios2-elf/lib\libc.a(lib_a-strtol.o)
 .debug_frame   0x000066d8       0x30 c:/altera/13.0/nios2eds/bin/gnu/h-i686-mingw32/bin/../lib/gcc/nios2-elf/4.1.2/../../../../nios2-elf/lib\libc.a(lib_a-vprintf.o)
 .debug_frame   0x00006708       0x38 c:/altera/13.0/nios2eds/bin/gnu/h-i686-mingw32/bin/../lib/gcc/nios2-elf/4.1.2/../../../../nios2-elf/lib\libc.a(lib_a-vsprintf.o)
 .debug_frame   0x00006740       0x34 c:/altera/13.0/nios2eds/bin/gnu/h-i686-mingw32/bin/../lib/gcc/nios2-elf/4.1.2/../../../../nios2-elf/lib\libc.a(lib_a-__atexit.o)

.debug_str      0x00000000     0x360a
 *(.debug_str)
 .debug_str     0x00000000       0x12 obj/default/LCD.o
 .debug_str     0x00000012       0x3f obj/default/SSS_DE2_115.o
 .debug_str     0x00000051       0x4e obj/default/alt_error_handler.o
 .debug_str     0x0000009f       0x33 obj/default/dm9000a.o
 .debug_str     0x000000d2       0x1d obj/default/iniche_init.o
 .debug_str     0x000000ef       0x2b obj/default/led.o
 .debug_str     0x0000011a       0x52 obj/default/network_utilities.o
 .debug_str     0x0000016c       0x2c obj/default/simple_socket_server.o
 .debug_str     0x00000198      0x122 c:/altera/13.0/nios2eds/bin/gnu/h-i686-mingw32/bin/../lib/gcc/nios2-elf/4.1.2\libgcc.a(_fixunsdfsi.o)
                                0x168 (size before relaxing)
 .debug_str     0x000002ba      0x138 c:/altera/13.0/nios2eds/bin/gnu/h-i686-mingw32/bin/../lib/gcc/nios2-elf/4.1.2\libgcc.a(_addsub_df.o)
                                0x26c (size before relaxing)
 .debug_str     0x000003f2       0x45 c:/altera/13.0/nios2eds/bin/gnu/h-i686-mingw32/bin/../lib/gcc/nios2-elf/4.1.2\libgcc.a(_mul_df.o)
                                0x23e (size before relaxing)
 .debug_str     0x00000437        0x8 c:/altera/13.0/nios2eds/bin/gnu/h-i686-mingw32/bin/../lib/gcc/nios2-elf/4.1.2\libgcc.a(_ge_df.o)
                                0x1fb (size before relaxing)
 .debug_str     0x0000043f        0xa c:/altera/13.0/nios2eds/bin/gnu/h-i686-mingw32/bin/../lib/gcc/nios2-elf/4.1.2\libgcc.a(_df_to_si.o)
                                0x204 (size before relaxing)
 .debug_str     0x00000000      0x1a0 c:/altera/13.0/nios2eds/bin/gnu/h-i686-mingw32/bin/../lib/gcc/nios2-elf/4.1.2\libgcc.a(_thenan_df.o)
 .debug_str     0x00000449       0x1b c:/altera/13.0/nios2eds/bin/gnu/h-i686-mingw32/bin/../lib/gcc/nios2-elf/4.1.2\libgcc.a(_usi_to_df.o)
                                0x1d7 (size before relaxing)
 .debug_str     0x00000464       0x42 c:/altera/13.0/nios2eds/bin/gnu/h-i686-mingw32/bin/../lib/gcc/nios2-elf/4.1.2\libgcc.a(_muldi3.o)
                                0x1a9 (size before relaxing)
 .debug_str     0x000004a6       0x20 c:/altera/13.0/nios2eds/bin/gnu/h-i686-mingw32/bin/../lib/gcc/nios2-elf/4.1.2\libgcc.a(_clzsi2.o)
                                0x17b (size before relaxing)
 .debug_str     0x000004c6       0x10 c:/altera/13.0/nios2eds/bin/gnu/h-i686-mingw32/bin/../lib/gcc/nios2-elf/4.1.2\libgcc.a(_pack_df.o)
                                0x203 (size before relaxing)
 .debug_str     0x000004d6        0xb c:/altera/13.0/nios2eds/bin/gnu/h-i686-mingw32/bin/../lib/gcc/nios2-elf/4.1.2\libgcc.a(_unpack_df.o)
                                0x1e5 (size before relaxing)
 .debug_str     0x000004e1       0x10 c:/altera/13.0/nios2eds/bin/gnu/h-i686-mingw32/bin/../lib/gcc/nios2-elf/4.1.2\libgcc.a(_fpcmp_parts_df.o)
                                0x1c3 (size before relaxing)
 .debug_str     0x00000000      0x15e c:/altera/13.0/nios2eds/bin/gnu/h-i686-mingw32/bin/../lib/gcc/nios2-elf/4.1.2\libgcc.a(_clz.o)
 .debug_str     0x000004f1       0xdf c:/altera/13.0/nios2eds/bin/gnu/h-i686-mingw32/bin/../lib/gcc/nios2-elf/4.1.2/../../../../nios2-elf/lib\libc.a(lib_a-ctype_.o)
                                0x102 (size before relaxing)
 .debug_str     0x000005d0      0x43b c:/altera/13.0/nios2eds/bin/gnu/h-i686-mingw32/bin/../lib/gcc/nios2-elf/4.1.2/../../../../nios2-elf/lib\libc.a(lib_a-exit.o)
                                0x509 (size before relaxing)
 .debug_str     0x00000a0b       0xe5 c:/altera/13.0/nios2eds/bin/gnu/h-i686-mingw32/bin/../lib/gcc/nios2-elf/4.1.2/../../../../nios2-elf/lib\libc.a(lib_a-fprintf.o)
                                0x51c (size before relaxing)
 .debug_str     0x00000af0       0x87 c:/altera/13.0/nios2eds/bin/gnu/h-i686-mingw32/bin/../lib/gcc/nios2-elf/4.1.2/../../../../nios2-elf/lib\libc.a(lib_a-fwrite.o)
                                0x55c (size before relaxing)
 .debug_str     0x00000b77       0x45 c:/altera/13.0/nios2eds/bin/gnu/h-i686-mingw32/bin/../lib/gcc/nios2-elf/4.1.2/../../../../nios2-elf/lib\libc.a(lib_a-getc.o)
                                0x50f (size before relaxing)
 .debug_str     0x00000bbc       0xce c:/altera/13.0/nios2eds/bin/gnu/h-i686-mingw32/bin/../lib/gcc/nios2-elf/4.1.2/../../../../nios2-elf/lib\libc.a(lib_a-impure.o)
                                0x517 (size before relaxing)
 .debug_str     0x00000c8a       0xf2 c:/altera/13.0/nios2eds/bin/gnu/h-i686-mingw32/bin/../lib/gcc/nios2-elf/4.1.2/../../../../nios2-elf/lib\libc.a(lib_a-memcpy.o)
                                0x125 (size before relaxing)
 .debug_str     0x00000d7c       0x5d c:/altera/13.0/nios2eds/bin/gnu/h-i686-mingw32/bin/../lib/gcc/nios2-elf/4.1.2/../../../../nios2-elf/lib\libc.a(lib_a-memmove.o)
                                0x19a (size before relaxing)
 .debug_str     0x00000dd9       0x56 c:/altera/13.0/nios2eds/bin/gnu/h-i686-mingw32/bin/../lib/gcc/nios2-elf/4.1.2/../../../../nios2-elf/lib\libc.a(lib_a-memset.o)
                                0x17b (size before relaxing)
 .debug_str     0x00000e2f       0x4b c:/altera/13.0/nios2eds/bin/gnu/h-i686-mingw32/bin/../lib/gcc/nios2-elf/4.1.2/../../../../nios2-elf/lib\libc.a(lib_a-perror.o)
                                0x50f (size before relaxing)
 .debug_str     0x00000e7a       0x44 c:/altera/13.0/nios2eds/bin/gnu/h-i686-mingw32/bin/../lib/gcc/nios2-elf/4.1.2/../../../../nios2-elf/lib\libc.a(lib_a-printf.o)
                                0x520 (size before relaxing)
 .debug_str     0x00000ebe       0x40 c:/altera/13.0/nios2eds/bin/gnu/h-i686-mingw32/bin/../lib/gcc/nios2-elf/4.1.2/../../../../nios2-elf/lib\libc.a(lib_a-putc.o)
                                0x50f (size before relaxing)
 .debug_str     0x00000efe       0x4e c:/altera/13.0/nios2eds/bin/gnu/h-i686-mingw32/bin/../lib/gcc/nios2-elf/4.1.2/../../../../nios2-elf/lib\libc.a(lib_a-putchar.o)
                                0x50c (size before relaxing)
 .debug_str     0x00000f4c       0x40 c:/altera/13.0/nios2eds/bin/gnu/h-i686-mingw32/bin/../lib/gcc/nios2-elf/4.1.2/../../../../nios2-elf/lib\libc.a(lib_a-puts.o)
                                0x546 (size before relaxing)
 .debug_str     0x00000f8c       0x4a c:/altera/13.0/nios2eds/bin/gnu/h-i686-mingw32/bin/../lib/gcc/nios2-elf/4.1.2/../../../../nios2-elf/lib\libc.a(lib_a-rget.o)
                                0x50d (size before relaxing)
 .debug_str     0x00000fd6       0x47 c:/altera/13.0/nios2eds/bin/gnu/h-i686-mingw32/bin/../lib/gcc/nios2-elf/4.1.2/../../../../nios2-elf/lib\libc.a(lib_a-strchr.o)
                                0x172 (size before relaxing)
 .debug_str     0x0000101d       0x44 c:/altera/13.0/nios2eds/bin/gnu/h-i686-mingw32/bin/../lib/gcc/nios2-elf/4.1.2/../../../../nios2-elf/lib\libc.a(lib_a-strerror.o)
                                0x171 (size before relaxing)
 .debug_str     0x00001061       0x42 c:/altera/13.0/nios2eds/bin/gnu/h-i686-mingw32/bin/../lib/gcc/nios2-elf/4.1.2/../../../../nios2-elf/lib\libc.a(lib_a-strlen.o)
                                0x17a (size before relaxing)
 .debug_str     0x000010a3       0x4c c:/altera/13.0/nios2eds/bin/gnu/h-i686-mingw32/bin/../lib/gcc/nios2-elf/4.1.2/../../../../nios2-elf/lib\libc.a(lib_a-u_strerr.o)
                                 0xed (size before relaxing)
 .debug_str     0x000010ef      0x178 c:/altera/13.0/nios2eds/bin/gnu/h-i686-mingw32/bin/../lib/gcc/nios2-elf/4.1.2/../../../../nios2-elf/lib\libc.a(lib_a-vfprintf.o)
                                0x6f5 (size before relaxing)
 .debug_str     0x00001267       0x4a c:/altera/13.0/nios2eds/bin/gnu/h-i686-mingw32/bin/../lib/gcc/nios2-elf/4.1.2/../../../../nios2-elf/lib\libc.a(lib_a-wbuf.o)
                                0x50d (size before relaxing)
 .debug_str     0x000012b1       0x46 c:/altera/13.0/nios2eds/bin/gnu/h-i686-mingw32/bin/../lib/gcc/nios2-elf/4.1.2/../../../../nios2-elf/lib\libc.a(lib_a-wsetup.o)
                                0x509 (size before relaxing)
 .debug_str     0x000012f7       0x7b c:/altera/13.0/nios2eds/bin/gnu/h-i686-mingw32/bin/../lib/gcc/nios2-elf/4.1.2/../../../../nios2-elf/lib\libc.a(lib_a-__call_atexit.o)
                                0x54b (size before relaxing)
 .debug_str     0x00001372      0x102 c:/altera/13.0/nios2eds/bin/gnu/h-i686-mingw32/bin/../lib/gcc/nios2-elf/4.1.2/../../../../nios2-elf/lib\libc.a(lib_a-dtoa.o)
                                0x5fe (size before relaxing)
 .debug_str     0x00001474       0x52 c:/altera/13.0/nios2eds/bin/gnu/h-i686-mingw32/bin/../lib/gcc/nios2-elf/4.1.2/../../../../nios2-elf/lib\libc.a(lib_a-fflush.o)
                                0x52f (size before relaxing)
 .debug_str     0x000014c6      0x102 c:/altera/13.0/nios2eds/bin/gnu/h-i686-mingw32/bin/../lib/gcc/nios2-elf/4.1.2/../../../../nios2-elf/lib\libc.a(lib_a-findfp.o)
                                0x5f1 (size before relaxing)
 .debug_str     0x000015c8       0x48 c:/altera/13.0/nios2eds/bin/gnu/h-i686-mingw32/bin/../lib/gcc/nios2-elf/4.1.2/../../../../nios2-elf/lib\libc.a(lib_a-fputc.o)
                                0x517 (size before relaxing)
 .debug_str     0x00001610       0x48 c:/altera/13.0/nios2eds/bin/gnu/h-i686-mingw32/bin/../lib/gcc/nios2-elf/4.1.2/../../../../nios2-elf/lib\libc.a(lib_a-fputs.o)
                                0x555 (size before relaxing)
 .debug_str     0x00001658      0x15b c:/altera/13.0/nios2eds/bin/gnu/h-i686-mingw32/bin/../lib/gcc/nios2-elf/4.1.2/../../../../nios2-elf/lib\libc.a(lib_a-freer.o)
                                0x640 (size before relaxing)
 .debug_str     0x000017b3       0x66 c:/altera/13.0/nios2eds/bin/gnu/h-i686-mingw32/bin/../lib/gcc/nios2-elf/4.1.2/../../../../nios2-elf/lib\libc.a(lib_a-fvwrite.o)
                                0x560 (size before relaxing)
 .debug_str     0x00001819       0x5e c:/altera/13.0/nios2eds/bin/gnu/h-i686-mingw32/bin/../lib/gcc/nios2-elf/4.1.2/../../../../nios2-elf/lib\libc.a(lib_a-fwalk.o)
                                0x532 (size before relaxing)
 .debug_str     0x00001877      0x222 c:/altera/13.0/nios2eds/bin/gnu/h-i686-mingw32/bin/../lib/gcc/nios2-elf/4.1.2/../../../../nios2-elf/lib\libc.a(lib_a-locale.o)
                                0x6a6 (size before relaxing)
 .debug_str     0x00001a99      0x123 c:/altera/13.0/nios2eds/bin/gnu/h-i686-mingw32/bin/../lib/gcc/nios2-elf/4.1.2/../../../../nios2-elf/lib\libc.a(lib_a-makebuf.o)
                                0x603 (size before relaxing)
 .debug_str     0x00001bbc       0xe9 c:/altera/13.0/nios2eds/bin/gnu/h-i686-mingw32/bin/../lib/gcc/nios2-elf/4.1.2/../../../../nios2-elf/lib\libc.a(lib_a-mallocr.o)
                                0x6ee (size before relaxing)
 .debug_str     0x00001ca5       0x47 c:/altera/13.0/nios2eds/bin/gnu/h-i686-mingw32/bin/../lib/gcc/nios2-elf/4.1.2/../../../../nios2-elf/lib\libc.a(lib_a-memchr.o)
                                0x188 (size before relaxing)
 .debug_str     0x00001cec       0xf8 c:/altera/13.0/nios2eds/bin/gnu/h-i686-mingw32/bin/../lib/gcc/nios2-elf/4.1.2/../../../../nios2-elf/lib\libc.a(lib_a-mprec.o)
                                0x60b (size before relaxing)
 .debug_str     0x00001de4       0x59 c:/altera/13.0/nios2eds/bin/gnu/h-i686-mingw32/bin/../lib/gcc/nios2-elf/4.1.2/../../../../nios2-elf/lib\libc.a(lib_a-reallocr.o)
                                0x5c0 (size before relaxing)
 .debug_str     0x00001e3d       0x4d c:/altera/13.0/nios2eds/bin/gnu/h-i686-mingw32/bin/../lib/gcc/nios2-elf/4.1.2/../../../../nios2-elf/lib\libc.a(lib_a-refill.o)
                                0x517 (size before relaxing)
 .debug_str     0x00001e8a       0xd9 c:/altera/13.0/nios2eds/bin/gnu/h-i686-mingw32/bin/../lib/gcc/nios2-elf/4.1.2/../../../../nios2-elf/lib\libc.a(lib_a-s_isinfd.o)
                                0x187 (size before relaxing)
 .debug_str     0x00001f63       0x46 c:/altera/13.0/nios2eds/bin/gnu/h-i686-mingw32/bin/../lib/gcc/nios2-elf/4.1.2/../../../../nios2-elf/lib\libc.a(lib_a-s_isnand.o)
                                0x187 (size before relaxing)
 .debug_str     0x00001fa9       0x50 c:/altera/13.0/nios2eds/bin/gnu/h-i686-mingw32/bin/../lib/gcc/nios2-elf/4.1.2/../../../../nios2-elf/lib\libc.a(lib_a-sbrkr.o)
                                0x508 (size before relaxing)
 .debug_str     0x00001ff9       0x62 c:/altera/13.0/nios2eds/bin/gnu/h-i686-mingw32/bin/../lib/gcc/nios2-elf/4.1.2/../../../../nios2-elf/lib\libc.a(lib_a-stdio.o)
                                0x52e (size before relaxing)
 .debug_str     0x0000205b       0x42 c:/altera/13.0/nios2eds/bin/gnu/h-i686-mingw32/bin/../lib/gcc/nios2-elf/4.1.2/../../../../nios2-elf/lib\libc.a(lib_a-strcmp.o)
                                0x160 (size before relaxing)
 .debug_str     0x0000209d       0x4c c:/altera/13.0/nios2eds/bin/gnu/h-i686-mingw32/bin/../lib/gcc/nios2-elf/4.1.2/../../../../nios2-elf/lib\libc.a(lib_a-writer.o)
                                0x50b (size before relaxing)
 .debug_str     0x000020e9       0x19 c:/altera/13.0/nios2eds/bin/gnu/h-i686-mingw32/bin/../lib/gcc/nios2-elf/4.1.2/../../../../nios2-elf/lib\libc.a(lib_a-callocr.o)
                                0x53f (size before relaxing)
 .debug_str     0x00002102       0x43 c:/altera/13.0/nios2eds/bin/gnu/h-i686-mingw32/bin/../lib/gcc/nios2-elf/4.1.2/../../../../nios2-elf/lib\libc.a(lib_a-closer.o)
                                0x4fb (size before relaxing)
 .debug_str     0x00002145       0x4b c:/altera/13.0/nios2eds/bin/gnu/h-i686-mingw32/bin/../lib/gcc/nios2-elf/4.1.2/../../../../nios2-elf/lib\libc.a(lib_a-fclose.o)
                                0x513 (size before relaxing)
 .debug_str     0x00002190       0x49 c:/altera/13.0/nios2eds/bin/gnu/h-i686-mingw32/bin/../lib/gcc/nios2-elf/4.1.2/../../../../nios2-elf/lib\libc.a(lib_a-fstatr.o)
                                0x5ee (size before relaxing)
 .debug_str     0x000021d9       0x3d c:/altera/13.0/nios2eds/bin/gnu/h-i686-mingw32/bin/../lib/gcc/nios2-elf/4.1.2/../../../../nios2-elf/lib\libc.a(lib_a-int_errno.o)
                                0x160 (size before relaxing)
 .debug_str     0x00002216       0x45 c:/altera/13.0/nios2eds/bin/gnu/h-i686-mingw32/bin/../lib/gcc/nios2-elf/4.1.2/../../../../nios2-elf/lib\libc.a(lib_a-isattyr.o)
                                0x4fd (size before relaxing)
 .debug_str     0x0000225b       0x43 c:/altera/13.0/nios2eds/bin/gnu/h-i686-mingw32/bin/../lib/gcc/nios2-elf/4.1.2/../../../../nios2-elf/lib\libc.a(lib_a-lseekr.o)
                                0x509 (size before relaxing)
 .debug_str     0x0000229e       0x41 c:/altera/13.0/nios2eds/bin/gnu/h-i686-mingw32/bin/../lib/gcc/nios2-elf/4.1.2/../../../../nios2-elf/lib\libc.a(lib_a-readr.o)
                                0x509 (size before relaxing)
 .debug_str     0x000022df       0x35 c:/altera/13.0/nios2eds/bin/gnu/h-i686-mingw32/bin/../lib/gcc/nios2-elf/4.1.2\libgcc.a(_udivdi3.o)
                                0x1f4 (size before relaxing)
 .debug_str     0x00002314        0xa c:/altera/13.0/nios2eds/bin/gnu/h-i686-mingw32/bin/../lib/gcc/nios2-elf/4.1.2\libgcc.a(_umoddi3.o)
                                0x1f4 (size before relaxing)
 .debug_str     0x0000231e       0x35 c:/altera/13.0/nios2eds/bin/gnu/h-i686-mingw32/bin/../lib/gcc/nios2-elf/4.1.2\libgcc.a(_div_df.o)
                                0x22e (size before relaxing)
 .debug_str     0x00002353        0x8 c:/altera/13.0/nios2eds/bin/gnu/h-i686-mingw32/bin/../lib/gcc/nios2-elf/4.1.2\libgcc.a(_eq_df.o)
                                0x1fb (size before relaxing)
 .debug_str     0x0000235b        0x8 c:/altera/13.0/nios2eds/bin/gnu/h-i686-mingw32/bin/../lib/gcc/nios2-elf/4.1.2\libgcc.a(_ne_df.o)
                                0x1fb (size before relaxing)
 .debug_str     0x00002363        0x8 c:/altera/13.0/nios2eds/bin/gnu/h-i686-mingw32/bin/../lib/gcc/nios2-elf/4.1.2\libgcc.a(_gt_df.o)
                                0x1fb (size before relaxing)
 .debug_str     0x0000236b        0x8 c:/altera/13.0/nios2eds/bin/gnu/h-i686-mingw32/bin/../lib/gcc/nios2-elf/4.1.2\libgcc.a(_lt_df.o)
                                0x1fb (size before relaxing)
 .debug_str     0x00002373       0x11 c:/altera/13.0/nios2eds/bin/gnu/h-i686-mingw32/bin/../lib/gcc/nios2-elf/4.1.2\libgcc.a(_si_to_df.o)
                                0x1db (size before relaxing)
 .debug_str     0x00002384       0x76 c:/altera/13.0/nios2eds/bin/gnu/h-i686-mingw32/bin/../lib/gcc/nios2-elf/4.1.2\libgcc.a(lib2-divmod.o)
                                0x1b1 (size before relaxing)
 .debug_str     0x000023fa       0x1c ../server_bsp/\libucosii_bsp.a(alt_exit.o)
 .debug_str     0x00002416       0x2d ../server_bsp/\libucosii_bsp.a(alt_flash_dev.o)
 .debug_str     0x00002443       0x12 ../server_bsp/\libucosii_bsp.a(alt_fstat.o)
 .debug_str     0x00002455       0x21 ../server_bsp/\libucosii_bsp.a(alt_irq_register.o)
 .debug_str     0x00002476       0x12 ../server_bsp/\libucosii_bsp.a(alt_isatty.o)
 .debug_str     0x00002488       0x12 ../server_bsp/\libucosii_bsp.a(alt_lseek.o)
 .debug_str     0x0000249a       0x12 ../server_bsp/\libucosii_bsp.a(alt_main.o)
 .debug_str     0x000024ac       0x1a ../server_bsp/\libucosii_bsp.a(alt_sbrk.o)
 .debug_str     0x000024c6       0x12 ../server_bsp/\libucosii_bsp.a(alt_usleep.o)
 .debug_str     0x000024d8       0x36 ../server_bsp/\libucosii_bsp.a(alt_env_lock.o)
 .debug_str     0x0000250e       0x36 ../server_bsp/\libucosii_bsp.a(alt_malloc_lock.o)
 .debug_str     0x00002544       0x46 ../server_bsp/\libucosii_bsp.a(os_core.o)
 .debug_str     0x0000258a       0x2b ../server_bsp/\libucosii_bsp.a(os_dbg.o)
 .debug_str     0x000025b5       0x4e ../server_bsp/\libucosii_bsp.a(os_flag.o)
 .debug_str     0x00002603       0x2c ../server_bsp/\libucosii_bsp.a(os_mem.o)
 .debug_str     0x0000262f       0x36 ../server_bsp/\libucosii_bsp.a(os_q.o)
 .debug_str     0x00002665       0x36 ../server_bsp/\libucosii_bsp.a(os_sem.o)
 .debug_str     0x0000269b       0x23 ../server_bsp/\libucosii_bsp.a(os_task.o)
 .debug_str     0x000026be       0x1f ../server_bsp/\libucosii_bsp.a(os_time.o)
 .debug_str     0x000026dd       0x67 ../server_bsp/\libucosii_bsp.a(alt_sys_init.o)
 .debug_str     0x00002744       0x82 ../server_bsp/\libucosii_bsp.a(altera_avalon_cfi_flash.o)
 .debug_str     0x000027c6       0x6d ../server_bsp/\libucosii_bsp.a(altera_avalon_cfi_flash_table.o)
 .debug_str     0x00002833       0x90 ../server_bsp/\libucosii_bsp.a(altera_avalon_epcs_flash_controller.o)
 .debug_str     0x000028c3       0x12 ../server_bsp/\libucosii_bsp.a(altera_avalon_jtag_uart_fd.o)
 .debug_str     0x000028d5       0x1a ../server_bsp/\libucosii_bsp.a(altera_avalon_jtag_uart_init.o)
 .debug_str     0x000028ef       0x12 ../server_bsp/\libucosii_bsp.a(altera_avalon_jtag_uart_ioctl.o)
 .debug_str     0x00002901       0x22 ../server_bsp/\libucosii_bsp.a(altera_avalon_jtag_uart_read.o)
 .debug_str     0x00002923       0x22 ../server_bsp/\libucosii_bsp.a(altera_avalon_jtag_uart_write.o)
 .debug_str     0x00002945       0x25 ../server_bsp/\libucosii_bsp.a(altera_avalon_lcd_16207.o)
 .debug_str     0x0000296a       0x12 ../server_bsp/\libucosii_bsp.a(altera_avalon_lcd_16207_fd.o)
 .debug_str     0x0000297c       0x12 ../server_bsp/\libucosii_bsp.a(altera_avalon_timer_sc.o)
 .debug_str     0x0000298e       0x12 ../server_bsp/\libucosii_bsp.a(altera_avalon_uart_fd.o)
 .debug_str     0x000029a0       0x1f ../server_bsp/\libucosii_bsp.a(altera_avalon_uart_init.o)
 .debug_str     0x000029bf       0x1a ../server_bsp/\libucosii_bsp.a(altera_avalon_uart_read.o)
 .debug_str     0x000029d9       0x1a ../server_bsp/\libucosii_bsp.a(altera_avalon_uart_write.o)
 .debug_str     0x000029f3       0x2e ../server_bsp/\libucosii_bsp.a(epcs_commands.o)
 .debug_str     0x00002a21       0x12 ../server_bsp/\libucosii_bsp.a(alt_iniche_close.o)
 .debug_str     0x00002a33       0x12 ../server_bsp/\libucosii_bsp.a(alt_iniche_dev.o)
 .debug_str     0x00002a45       0x12 ../server_bsp/\libucosii_bsp.a(alt_iniche_read.o)
 .debug_str     0x00002a57       0x12 ../server_bsp/\libucosii_bsp.a(alt_iniche_write.o)
 .debug_str     0x00002a69       0x12 ../server_bsp/\libucosii_bsp.a(ipnet.o)
 .debug_str     0x00002a7b       0x12 ../server_bsp/\libucosii_bsp.a(ipstart.o)
 .debug_str     0x00002a8d       0x12 ../server_bsp/\libucosii_bsp.a(igmp_cmn.o)
 .debug_str     0x00002a9f       0x20 ../server_bsp/\libucosii_bsp.a(bsdsock.o)
 .debug_str     0x00002abf       0x12 ../server_bsp/\libucosii_bsp.a(cksum.o)
 .debug_str     0x00002ad1       0x12 ../server_bsp/\libucosii_bsp.a(in_utils.o)
 .debug_str     0x00002ae3       0x12 ../server_bsp/\libucosii_bsp.a(netmain.o)
 .debug_str     0x00002af5       0x12 ../server_bsp/\libucosii_bsp.a(parseip.o)
 .debug_str     0x00002b07       0x12 ../server_bsp/\libucosii_bsp.a(tk_crnos.o)
 .debug_str     0x00002b19       0x2e ../server_bsp/\libucosii_bsp.a(dhcpclnt.o)
 .debug_str     0x00002b47       0x12 ../server_bsp/\libucosii_bsp.a(dhcputil.o)
 .debug_str     0x00002b59       0x12 ../server_bsp/\libucosii_bsp.a(pktalloc.o)
 .debug_str     0x00002b6b       0x12 ../server_bsp/\libucosii_bsp.a(q.o)
 .debug_str     0x00002b7d       0x12 ../server_bsp/\libucosii_bsp.a(udp_open.o)
 .debug_str     0x00002b8f       0x20 ../server_bsp/\libucosii_bsp.a(brdutils.o)
 .debug_str     0x00002baf       0x22 ../server_bsp/\libucosii_bsp.a(osportco.o)
 .debug_str     0x00002bd1       0x12 ../server_bsp/\libucosii_bsp.a(targnios.o)
 .debug_str     0x00002be3       0x1e ../server_bsp/\libucosii_bsp.a(nptcp.o)
 .debug_str     0x00002c01       0x12 ../server_bsp/\libucosii_bsp.a(rawsock.o)
 .debug_str     0x00002c13       0x34 ../server_bsp/\libucosii_bsp.a(sockcall.o)
 .debug_str     0x00002c47       0x18 ../server_bsp/\libucosii_bsp.a(socket.o)
 .debug_str     0x00002c5f       0x12 ../server_bsp/\libucosii_bsp.a(socket2.o)
 .debug_str     0x00002c71       0x12 ../server_bsp/\libucosii_bsp.a(soselect.o)
 .debug_str     0x00002c83       0x12 ../server_bsp/\libucosii_bsp.a(tcp_in.o)
 .debug_str     0x00002c95       0x12 ../server_bsp/\libucosii_bsp.a(tcp_out.o)
 .debug_str     0x00002ca7       0x12 ../server_bsp/\libucosii_bsp.a(tcp_subr.o)
 .debug_str     0x00002cb9       0x12 ../server_bsp/\libucosii_bsp.a(tcp_timr.o)
 .debug_str     0x00002ccb       0x12 ../server_bsp/\libucosii_bsp.a(tcp_usr.o)
 .debug_str     0x00002cdd       0x12 ../server_bsp/\libucosii_bsp.a(tcpport.o)
 .debug_str     0x00002cef       0x1a ../server_bsp/\libucosii_bsp.a(udpsock.o)
 .debug_str     0x00002d09       0x23 ../server_bsp/\libucosii_bsp.a(alt_alarm_start.o)
 .debug_str     0x00002d2c       0x12 ../server_bsp/\libucosii_bsp.a(alt_busy_sleep.o)
 .debug_str     0x00002d3e       0x12 ../server_bsp/\libucosii_bsp.a(alt_close.o)
 .debug_str     0x00002d50       0x12 ../server_bsp/\libucosii_bsp.a(alt_dcache_flush.o)
 .debug_str     0x00002d62       0x12 ../server_bsp/\libucosii_bsp.a(alt_dev.o)
 .debug_str     0x00002d74       0x12 ../server_bsp/\libucosii_bsp.a(alt_dev_llist_insert.o)
 .debug_str     0x00002d86       0x12 ../server_bsp/\libucosii_bsp.a(alt_errno.o)
 .debug_str     0x00002d98       0x12 ../server_bsp/\libucosii_bsp.a(alt_find_dev.o)
 .debug_str     0x00002daa       0x18 ../server_bsp/\libucosii_bsp.a(alt_iic.o)
 .debug_str     0x00002dc2       0x1a ../server_bsp/\libucosii_bsp.a(alt_iic_isr_register.o)
 .debug_str     0x00002ddc       0x12 ../server_bsp/\libucosii_bsp.a(alt_io_redirect.o)
 .debug_str     0x00002dee       0x12 ../server_bsp/\libucosii_bsp.a(alt_irq_handler.o)
 .debug_str     0x00002e00       0x12 ../server_bsp/\libucosii_bsp.a(alt_open.o)
 .debug_str     0x00002e12       0x12 ../server_bsp/\libucosii_bsp.a(alt_read.o)
 .debug_str     0x00002e24       0x12 ../server_bsp/\libucosii_bsp.a(alt_release_fd.o)
 .debug_str     0x00002e36       0x12 ../server_bsp/\libucosii_bsp.a(alt_remap_cached.o)
 .debug_str     0x00002e48       0x12 ../server_bsp/\libucosii_bsp.a(alt_remap_uncached.o)
 .debug_str     0x00002e5a       0x1a ../server_bsp/\libucosii_bsp.a(alt_tick.o)
 .debug_str     0x00002e74       0x12 ../server_bsp/\libucosii_bsp.a(alt_write.o)
 .debug_str     0x00002e86       0x12 ../server_bsp/\libucosii_bsp.a(altera_nios2_qsys_irq.o)
 .debug_str     0x00002e98       0x20 ../server_bsp/\libucosii_bsp.a(os_cpu_c.o)
 .debug_str     0x00002eb8       0x76 ../server_bsp/\libucosii_bsp.a(altera_avalon_cfi_flash_amd.o)
 .debug_str     0x00002f2e       0x7d ../server_bsp/\libucosii_bsp.a(altera_avalon_cfi_flash_intel.o)
 .debug_str     0x00002fab       0x12 ../server_bsp/\libucosii_bsp.a(allports.o)
 .debug_str     0x00002fbd       0x1b ../server_bsp/\libucosii_bsp.a(timeouts.o)
 .debug_str     0x00002fd8       0x12 ../server_bsp/\libucosii_bsp.a(tk_misc.o)
 .debug_str     0x00002fea       0x12 ../server_bsp/\libucosii_bsp.a(alt_iniche_fcntl.o)
 .debug_str     0x00002ffc       0x3d ../server_bsp/\libucosii_bsp.a(et_arp.o)
 .debug_str     0x00003039       0x12 ../server_bsp/\libucosii_bsp.a(iface.o)
 .debug_str     0x0000304b       0x2c ../server_bsp/\libucosii_bsp.a(ip.o)
 .debug_str     0x00003077       0x4e ../server_bsp/\libucosii_bsp.a(ip_reasm.o)
 .debug_str     0x000030c5       0x12 ../server_bsp/\libucosii_bsp.a(ipdemux.o)
 .debug_str     0x000030d7       0x12 ../server_bsp/\libucosii_bsp.a(ipmc.o)
 .debug_str     0x000030e9       0x12 ../server_bsp/\libucosii_bsp.a(ipport.o)
 .debug_str     0x000030fb       0x12 ../server_bsp/\libucosii_bsp.a(ipraw.o)
 .debug_str     0x0000310d       0x12 ../server_bsp/\libucosii_bsp.a(iproute.o)
 .debug_str     0x0000311f       0x12 ../server_bsp/\libucosii_bsp.a(udp.o)
 .debug_str     0x00003131       0x12 ../server_bsp/\libucosii_bsp.a(igmp.o)
 .debug_str     0x00003143       0x20 ../server_bsp/\libucosii_bsp.a(igmp2.o)
 .debug_str     0x00003163       0x12 ../server_bsp/\libucosii_bsp.a(ipopt.o)
 .debug_str     0x00003175       0x12 ../server_bsp/\libucosii_bsp.a(u_mctest.o)
 .debug_str     0x00003187       0x12 ../server_bsp/\libucosii_bsp.a(dhcsetup.o)
 .debug_str     0x00003199       0x1b ../server_bsp/\libucosii_bsp.a(memdev.o)
 .debug_str     0x000031b4       0x12 ../server_bsp/\libucosii_bsp.a(tcpcksum.o)
 .debug_str     0x000031c6       0x12 ../server_bsp/\libucosii_bsp.a(in_pcb.o)
 .debug_str     0x000031d8       0x2b ../server_bsp/\libucosii_bsp.a(vfsfiles.o)
 .debug_str     0x00003203       0x12 ../server_bsp/\libucosii_bsp.a(vfsport.o)
 .debug_str     0x00003215       0x12 ../server_bsp/\libucosii_bsp.a(alt_fcntl.o)
 .debug_str     0x00003227       0x12 ../server_bsp/\libucosii_bsp.a(alt_find_file.o)
 .debug_str     0x00003239       0x12 ../server_bsp/\libucosii_bsp.a(alt_get_fd.o)
 .debug_str     0x0000324b       0x12 ../server_bsp/\libucosii_bsp.a(icmp.o)
 .debug_str     0x0000325d       0x3b c:/altera/13.0/nios2eds/bin/gnu/h-i686-mingw32/bin/../lib/gcc/nios2-elf/4.1.2/../../../../nios2-elf/lib\libc.a(lib_a-atexit.o)
                                0x1bc (size before relaxing)
 .debug_str     0x00003298       0x46 c:/altera/13.0/nios2eds/bin/gnu/h-i686-mingw32/bin/../lib/gcc/nios2-elf/4.1.2/../../../../nios2-elf/lib\libc.a(lib_a-atoi.o)
                                0x4f9 (size before relaxing)
 .debug_str     0x000032de       0x42 c:/altera/13.0/nios2eds/bin/gnu/h-i686-mingw32/bin/../lib/gcc/nios2-elf/4.1.2/../../../../nios2-elf/lib\libc.a(lib_a-calloc.o)
                                0x50d (size before relaxing)
 .debug_str     0x00003320       0x47 c:/altera/13.0/nios2eds/bin/gnu/h-i686-mingw32/bin/../lib/gcc/nios2-elf/4.1.2/../../../../nios2-elf/lib\libc.a(lib_a-malloc.o)
                                0x519 (size before relaxing)
 .debug_str     0x00003367       0x42 c:/altera/13.0/nios2eds/bin/gnu/h-i686-mingw32/bin/../lib/gcc/nios2-elf/4.1.2/../../../../nios2-elf/lib\libc.a(lib_a-memcmp.o)
                                0x167 (size before relaxing)
 .debug_str     0x000033a9       0x46 c:/altera/13.0/nios2eds/bin/gnu/h-i686-mingw32/bin/../lib/gcc/nios2-elf/4.1.2/../../../../nios2-elf/lib\libc.a(lib_a-sprintf.o)
                                0x528 (size before relaxing)
 .debug_str     0x000033ef       0x42 c:/altera/13.0/nios2eds/bin/gnu/h-i686-mingw32/bin/../lib/gcc/nios2-elf/4.1.2/../../../../nios2-elf/lib\libc.a(lib_a-strcpy.o)
                                0x182 (size before relaxing)
 .debug_str     0x00003431       0x44 c:/altera/13.0/nios2eds/bin/gnu/h-i686-mingw32/bin/../lib/gcc/nios2-elf/4.1.2/../../../../nios2-elf/lib\libc.a(lib_a-strncmp.o)
                                0x169 (size before relaxing)
 .debug_str     0x00003475       0x44 c:/altera/13.0/nios2eds/bin/gnu/h-i686-mingw32/bin/../lib/gcc/nios2-elf/4.1.2/../../../../nios2-elf/lib\libc.a(lib_a-strncpy.o)
                                0x191 (size before relaxing)
 .debug_str     0x000034b9       0x61 c:/altera/13.0/nios2eds/bin/gnu/h-i686-mingw32/bin/../lib/gcc/nios2-elf/4.1.2/../../../../nios2-elf/lib\libc.a(lib_a-strtol.o)
                                0x53b (size before relaxing)
 .debug_str     0x0000351a       0x4e c:/altera/13.0/nios2eds/bin/gnu/h-i686-mingw32/bin/../lib/gcc/nios2-elf/4.1.2/../../../../nios2-elf/lib\libc.a(lib_a-vprintf.o)
                                0x523 (size before relaxing)
 .debug_str     0x00003568       0x51 c:/altera/13.0/nios2eds/bin/gnu/h-i686-mingw32/bin/../lib/gcc/nios2-elf/4.1.2/../../../../nios2-elf/lib\libc.a(lib_a-vsprintf.o)
                                0x52b (size before relaxing)
 .debug_str     0x000035b9       0x51 c:/altera/13.0/nios2eds/bin/gnu/h-i686-mingw32/bin/../lib/gcc/nios2-elf/4.1.2/../../../../nios2-elf/lib\libc.a(lib_a-__atexit.o)
                                0x521 (size before relaxing)

.debug_loc      0x00000000    0x13e4f
 *(.debug_loc)
 .debug_loc     0x00000000      0x103 obj/default/LCD.o
 .debug_loc     0x00000103       0x56 obj/default/SSS_DE2_115.o
 .debug_loc     0x00000159       0x81 obj/default/alt_error_handler.o
 .debug_loc     0x000001da      0x25a obj/default/dm9000a.o
 .debug_loc     0x00000434       0xae obj/default/iniche_init.o
 .debug_loc     0x000004e2       0x81 obj/default/led.o
 .debug_loc     0x00000563      0x103 obj/default/network_utilities.o
 .debug_loc     0x00000666      0x15b obj/default/simple_socket_server.o
 .debug_loc     0x000007c1       0x87 c:/altera/13.0/nios2eds/bin/gnu/h-i686-mingw32/bin/../lib/gcc/nios2-elf/4.1.2\libgcc.a(_fixunsdfsi.o)
 .debug_loc     0x00000848      0x47a c:/altera/13.0/nios2eds/bin/gnu/h-i686-mingw32/bin/../lib/gcc/nios2-elf/4.1.2\libgcc.a(_addsub_df.o)
 .debug_loc     0x00000cc2      0x3b4 c:/altera/13.0/nios2eds/bin/gnu/h-i686-mingw32/bin/../lib/gcc/nios2-elf/4.1.2\libgcc.a(_mul_df.o)
 .debug_loc     0x00001076       0x70 c:/altera/13.0/nios2eds/bin/gnu/h-i686-mingw32/bin/../lib/gcc/nios2-elf/4.1.2\libgcc.a(_ge_df.o)
 .debug_loc     0x000010e6       0x8b c:/altera/13.0/nios2eds/bin/gnu/h-i686-mingw32/bin/../lib/gcc/nios2-elf/4.1.2\libgcc.a(_df_to_si.o)
 .debug_loc     0x00001171       0x5b c:/altera/13.0/nios2eds/bin/gnu/h-i686-mingw32/bin/../lib/gcc/nios2-elf/4.1.2\libgcc.a(_usi_to_df.o)
 .debug_loc     0x000011cc       0xc4 c:/altera/13.0/nios2eds/bin/gnu/h-i686-mingw32/bin/../lib/gcc/nios2-elf/4.1.2\libgcc.a(_muldi3.o)
 .debug_loc     0x00001290       0x1e c:/altera/13.0/nios2eds/bin/gnu/h-i686-mingw32/bin/../lib/gcc/nios2-elf/4.1.2\libgcc.a(_clzsi2.o)
 .debug_loc     0x000012ae      0x184 c:/altera/13.0/nios2eds/bin/gnu/h-i686-mingw32/bin/../lib/gcc/nios2-elf/4.1.2\libgcc.a(_pack_df.o)
 .debug_loc     0x00001432       0xe5 c:/altera/13.0/nios2eds/bin/gnu/h-i686-mingw32/bin/../lib/gcc/nios2-elf/4.1.2\libgcc.a(_unpack_df.o)
 .debug_loc     0x00001517       0x3d c:/altera/13.0/nios2eds/bin/gnu/h-i686-mingw32/bin/../lib/gcc/nios2-elf/4.1.2/../../../../nios2-elf/lib\libc.a(lib_a-exit.o)
 .debug_loc     0x00001554       0xf1 c:/altera/13.0/nios2eds/bin/gnu/h-i686-mingw32/bin/../lib/gcc/nios2-elf/4.1.2/../../../../nios2-elf/lib\libc.a(lib_a-fprintf.o)
 .debug_loc     0x00001645      0x18e c:/altera/13.0/nios2eds/bin/gnu/h-i686-mingw32/bin/../lib/gcc/nios2-elf/4.1.2/../../../../nios2-elf/lib\libc.a(lib_a-fwrite.o)
 .debug_loc     0x000017d3      0x10b c:/altera/13.0/nios2eds/bin/gnu/h-i686-mingw32/bin/../lib/gcc/nios2-elf/4.1.2/../../../../nios2-elf/lib\libc.a(lib_a-getc.o)
 .debug_loc     0x000018de       0xca c:/altera/13.0/nios2eds/bin/gnu/h-i686-mingw32/bin/../lib/gcc/nios2-elf/4.1.2/../../../../nios2-elf/lib\libc.a(lib_a-memcpy.o)
 .debug_loc     0x000019a8      0x117 c:/altera/13.0/nios2eds/bin/gnu/h-i686-mingw32/bin/../lib/gcc/nios2-elf/4.1.2/../../../../nios2-elf/lib\libc.a(lib_a-memmove.o)
 .debug_loc     0x00001abf       0xa1 c:/altera/13.0/nios2eds/bin/gnu/h-i686-mingw32/bin/../lib/gcc/nios2-elf/4.1.2/../../../../nios2-elf/lib\libc.a(lib_a-memset.o)
 .debug_loc     0x00001b60       0xa2 c:/altera/13.0/nios2eds/bin/gnu/h-i686-mingw32/bin/../lib/gcc/nios2-elf/4.1.2/../../../../nios2-elf/lib\libc.a(lib_a-perror.o)
 .debug_loc     0x00001c02       0xcb c:/altera/13.0/nios2eds/bin/gnu/h-i686-mingw32/bin/../lib/gcc/nios2-elf/4.1.2/../../../../nios2-elf/lib\libc.a(lib_a-printf.o)
 .debug_loc     0x00001ccd      0x20d c:/altera/13.0/nios2eds/bin/gnu/h-i686-mingw32/bin/../lib/gcc/nios2-elf/4.1.2/../../../../nios2-elf/lib\libc.a(lib_a-putc.o)
 .debug_loc     0x00001eda       0x44 c:/altera/13.0/nios2eds/bin/gnu/h-i686-mingw32/bin/../lib/gcc/nios2-elf/4.1.2/../../../../nios2-elf/lib\libc.a(lib_a-putchar.o)
 .debug_loc     0x00001f1e       0xa2 c:/altera/13.0/nios2eds/bin/gnu/h-i686-mingw32/bin/../lib/gcc/nios2-elf/4.1.2/../../../../nios2-elf/lib\libc.a(lib_a-puts.o)
 .debug_loc     0x00001fc0       0x6e c:/altera/13.0/nios2eds/bin/gnu/h-i686-mingw32/bin/../lib/gcc/nios2-elf/4.1.2/../../../../nios2-elf/lib\libc.a(lib_a-rget.o)
 .debug_loc     0x0000202e       0xf3 c:/altera/13.0/nios2eds/bin/gnu/h-i686-mingw32/bin/../lib/gcc/nios2-elf/4.1.2/../../../../nios2-elf/lib\libc.a(lib_a-strchr.o)
 .debug_loc     0x00002121      0x418 c:/altera/13.0/nios2eds/bin/gnu/h-i686-mingw32/bin/../lib/gcc/nios2-elf/4.1.2/../../../../nios2-elf/lib\libc.a(lib_a-strerror.o)
 .debug_loc     0x00002539       0x3c c:/altera/13.0/nios2eds/bin/gnu/h-i686-mingw32/bin/../lib/gcc/nios2-elf/4.1.2/../../../../nios2-elf/lib\libc.a(lib_a-strlen.o)
 .debug_loc     0x00002575     0x1e0d c:/altera/13.0/nios2eds/bin/gnu/h-i686-mingw32/bin/../lib/gcc/nios2-elf/4.1.2/../../../../nios2-elf/lib\libc.a(lib_a-vfprintf.o)
 .debug_loc     0x00004382      0x157 c:/altera/13.0/nios2eds/bin/gnu/h-i686-mingw32/bin/../lib/gcc/nios2-elf/4.1.2/../../../../nios2-elf/lib\libc.a(lib_a-wbuf.o)
 .debug_loc     0x000044d9       0x7c c:/altera/13.0/nios2eds/bin/gnu/h-i686-mingw32/bin/../lib/gcc/nios2-elf/4.1.2/../../../../nios2-elf/lib\libc.a(lib_a-wsetup.o)
 .debug_loc     0x00004555      0x1cb c:/altera/13.0/nios2eds/bin/gnu/h-i686-mingw32/bin/../lib/gcc/nios2-elf/4.1.2/../../../../nios2-elf/lib\libc.a(lib_a-__call_atexit.o)
 .debug_loc     0x00004720     0x1dfa c:/altera/13.0/nios2eds/bin/gnu/h-i686-mingw32/bin/../lib/gcc/nios2-elf/4.1.2/../../../../nios2-elf/lib\libc.a(lib_a-dtoa.o)
 .debug_loc     0x0000651a      0x1f6 c:/altera/13.0/nios2eds/bin/gnu/h-i686-mingw32/bin/../lib/gcc/nios2-elf/4.1.2/../../../../nios2-elf/lib\libc.a(lib_a-fflush.o)
 .debug_loc     0x00006710      0x19f c:/altera/13.0/nios2eds/bin/gnu/h-i686-mingw32/bin/../lib/gcc/nios2-elf/4.1.2/../../../../nios2-elf/lib\libc.a(lib_a-findfp.o)
 .debug_loc     0x000068af      0x14d c:/altera/13.0/nios2eds/bin/gnu/h-i686-mingw32/bin/../lib/gcc/nios2-elf/4.1.2/../../../../nios2-elf/lib\libc.a(lib_a-fputc.o)
 .debug_loc     0x000069fc       0xcb c:/altera/13.0/nios2eds/bin/gnu/h-i686-mingw32/bin/../lib/gcc/nios2-elf/4.1.2/../../../../nios2-elf/lib\libc.a(lib_a-fputs.o)
 .debug_loc     0x00006ac7      0x4a7 c:/altera/13.0/nios2eds/bin/gnu/h-i686-mingw32/bin/../lib/gcc/nios2-elf/4.1.2/../../../../nios2-elf/lib\libc.a(lib_a-freer.o)
 .debug_loc     0x00006f6e      0x4e4 c:/altera/13.0/nios2eds/bin/gnu/h-i686-mingw32/bin/../lib/gcc/nios2-elf/4.1.2/../../../../nios2-elf/lib\libc.a(lib_a-fvwrite.o)
 .debug_loc     0x00007452      0x1d2 c:/altera/13.0/nios2eds/bin/gnu/h-i686-mingw32/bin/../lib/gcc/nios2-elf/4.1.2/../../../../nios2-elf/lib\libc.a(lib_a-fwalk.o)
 .debug_loc     0x00007624       0xe1 c:/altera/13.0/nios2eds/bin/gnu/h-i686-mingw32/bin/../lib/gcc/nios2-elf/4.1.2/../../../../nios2-elf/lib\libc.a(lib_a-locale.o)
 .debug_loc     0x00007705      0x11c c:/altera/13.0/nios2eds/bin/gnu/h-i686-mingw32/bin/../lib/gcc/nios2-elf/4.1.2/../../../../nios2-elf/lib\libc.a(lib_a-makebuf.o)
 .debug_loc     0x00007821      0xaeb c:/altera/13.0/nios2eds/bin/gnu/h-i686-mingw32/bin/../lib/gcc/nios2-elf/4.1.2/../../../../nios2-elf/lib\libc.a(lib_a-mallocr.o)
 .debug_loc     0x0000830c      0x106 c:/altera/13.0/nios2eds/bin/gnu/h-i686-mingw32/bin/../lib/gcc/nios2-elf/4.1.2/../../../../nios2-elf/lib\libc.a(lib_a-memchr.o)
 .debug_loc     0x00008412     0x14d6 c:/altera/13.0/nios2eds/bin/gnu/h-i686-mingw32/bin/../lib/gcc/nios2-elf/4.1.2/../../../../nios2-elf/lib\libc.a(lib_a-mprec.o)
 .debug_loc     0x000098e8      0x8c0 c:/altera/13.0/nios2eds/bin/gnu/h-i686-mingw32/bin/../lib/gcc/nios2-elf/4.1.2/../../../../nios2-elf/lib\libc.a(lib_a-reallocr.o)
 .debug_loc     0x0000a1a8       0xd1 c:/altera/13.0/nios2eds/bin/gnu/h-i686-mingw32/bin/../lib/gcc/nios2-elf/4.1.2/../../../../nios2-elf/lib\libc.a(lib_a-refill.o)
 .debug_loc     0x0000a279       0x36 c:/altera/13.0/nios2eds/bin/gnu/h-i686-mingw32/bin/../lib/gcc/nios2-elf/4.1.2/../../../../nios2-elf/lib\libc.a(lib_a-s_isinfd.o)
 .debug_loc     0x0000a2af       0x18 c:/altera/13.0/nios2eds/bin/gnu/h-i686-mingw32/bin/../lib/gcc/nios2-elf/4.1.2/../../../../nios2-elf/lib\libc.a(lib_a-s_isnand.o)
 .debug_loc     0x0000a2c7       0x5b c:/altera/13.0/nios2eds/bin/gnu/h-i686-mingw32/bin/../lib/gcc/nios2-elf/4.1.2/../../../../nios2-elf/lib\libc.a(lib_a-sbrkr.o)
 .debug_loc     0x0000a322      0x21f c:/altera/13.0/nios2eds/bin/gnu/h-i686-mingw32/bin/../lib/gcc/nios2-elf/4.1.2/../../../../nios2-elf/lib\libc.a(lib_a-stdio.o)
 .debug_loc     0x0000a541       0x65 c:/altera/13.0/nios2eds/bin/gnu/h-i686-mingw32/bin/../lib/gcc/nios2-elf/4.1.2/../../../../nios2-elf/lib\libc.a(lib_a-strcmp.o)
 .debug_loc     0x0000a5a6       0x97 c:/altera/13.0/nios2eds/bin/gnu/h-i686-mingw32/bin/../lib/gcc/nios2-elf/4.1.2/../../../../nios2-elf/lib\libc.a(lib_a-writer.o)
 .debug_loc     0x0000a63d       0xe9 c:/altera/13.0/nios2eds/bin/gnu/h-i686-mingw32/bin/../lib/gcc/nios2-elf/4.1.2/../../../../nios2-elf/lib\libc.a(lib_a-callocr.o)
 .debug_loc     0x0000a726       0x5b c:/altera/13.0/nios2eds/bin/gnu/h-i686-mingw32/bin/../lib/gcc/nios2-elf/4.1.2/../../../../nios2-elf/lib\libc.a(lib_a-closer.o)
 .debug_loc     0x0000a781       0xe4 c:/altera/13.0/nios2eds/bin/gnu/h-i686-mingw32/bin/../lib/gcc/nios2-elf/4.1.2/../../../../nios2-elf/lib\libc.a(lib_a-fclose.o)
 .debug_loc     0x0000a865       0x79 c:/altera/13.0/nios2eds/bin/gnu/h-i686-mingw32/bin/../lib/gcc/nios2-elf/4.1.2/../../../../nios2-elf/lib\libc.a(lib_a-fstatr.o)
 .debug_loc     0x0000a8de       0x5b c:/altera/13.0/nios2eds/bin/gnu/h-i686-mingw32/bin/../lib/gcc/nios2-elf/4.1.2/../../../../nios2-elf/lib\libc.a(lib_a-isattyr.o)
 .debug_loc     0x0000a939       0x97 c:/altera/13.0/nios2eds/bin/gnu/h-i686-mingw32/bin/../lib/gcc/nios2-elf/4.1.2/../../../../nios2-elf/lib\libc.a(lib_a-lseekr.o)
 .debug_loc     0x0000a9d0       0x97 c:/altera/13.0/nios2eds/bin/gnu/h-i686-mingw32/bin/../lib/gcc/nios2-elf/4.1.2/../../../../nios2-elf/lib\libc.a(lib_a-readr.o)
 .debug_loc     0x0000aa67      0xc12 c:/altera/13.0/nios2eds/bin/gnu/h-i686-mingw32/bin/../lib/gcc/nios2-elf/4.1.2\libgcc.a(_udivdi3.o)
 .debug_loc     0x0000b679      0xc26 c:/altera/13.0/nios2eds/bin/gnu/h-i686-mingw32/bin/../lib/gcc/nios2-elf/4.1.2\libgcc.a(_umoddi3.o)
 .debug_loc     0x0000c29f      0x1df c:/altera/13.0/nios2eds/bin/gnu/h-i686-mingw32/bin/../lib/gcc/nios2-elf/4.1.2\libgcc.a(_div_df.o)
 .debug_loc     0x0000c47e       0x70 c:/altera/13.0/nios2eds/bin/gnu/h-i686-mingw32/bin/../lib/gcc/nios2-elf/4.1.2\libgcc.a(_eq_df.o)
 .debug_loc     0x0000c4ee       0x70 c:/altera/13.0/nios2eds/bin/gnu/h-i686-mingw32/bin/../lib/gcc/nios2-elf/4.1.2\libgcc.a(_ne_df.o)
 .debug_loc     0x0000c55e       0x70 c:/altera/13.0/nios2eds/bin/gnu/h-i686-mingw32/bin/../lib/gcc/nios2-elf/4.1.2\libgcc.a(_gt_df.o)
 .debug_loc     0x0000c5ce       0x70 c:/altera/13.0/nios2eds/bin/gnu/h-i686-mingw32/bin/../lib/gcc/nios2-elf/4.1.2\libgcc.a(_lt_df.o)
 .debug_loc     0x0000c63e       0x9a c:/altera/13.0/nios2eds/bin/gnu/h-i686-mingw32/bin/../lib/gcc/nios2-elf/4.1.2\libgcc.a(_si_to_df.o)
 .debug_loc     0x0000c6d8      0x1d2 c:/altera/13.0/nios2eds/bin/gnu/h-i686-mingw32/bin/../lib/gcc/nios2-elf/4.1.2\libgcc.a(lib2-divmod.o)
 .debug_loc     0x0000c8aa       0x56 ../server_bsp/\libucosii_bsp.a(alt_exit.o)
 .debug_loc     0x0000c900       0x56 ../server_bsp/\libucosii_bsp.a(alt_flash_dev.o)
 .debug_loc     0x0000c956       0x56 ../server_bsp/\libucosii_bsp.a(alt_fstat.o)
 .debug_loc     0x0000c9ac       0x2c ../server_bsp/\libucosii_bsp.a(alt_irq_register.o)
 .debug_loc     0x0000c9d8       0x57 ../server_bsp/\libucosii_bsp.a(alt_isatty.o)
 .debug_loc     0x0000ca2f       0x56 ../server_bsp/\libucosii_bsp.a(alt_lseek.o)
 .debug_loc     0x0000ca85       0x2b ../server_bsp/\libucosii_bsp.a(alt_main.o)
 .debug_loc     0x0000cab0       0x2b ../server_bsp/\libucosii_bsp.a(alt_sbrk.o)
 .debug_loc     0x0000cadb       0x2b ../server_bsp/\libucosii_bsp.a(alt_usleep.o)
 .debug_loc     0x0000cb06       0x57 ../server_bsp/\libucosii_bsp.a(alt_env_lock.o)
 .debug_loc     0x0000cb5d       0x57 ../server_bsp/\libucosii_bsp.a(alt_malloc_lock.o)
 .debug_loc     0x0000cbb4      0x5e2 ../server_bsp/\libucosii_bsp.a(os_core.o)
 .debug_loc     0x0000d196       0x2b ../server_bsp/\libucosii_bsp.a(os_dbg.o)
 .debug_loc     0x0000d1c1      0x232 ../server_bsp/\libucosii_bsp.a(os_flag.o)
 .debug_loc     0x0000d3f3      0x12d ../server_bsp/\libucosii_bsp.a(os_mem.o)
 .debug_loc     0x0000d520      0x1da ../server_bsp/\libucosii_bsp.a(os_q.o)
 .debug_loc     0x0000d6fa      0x158 ../server_bsp/\libucosii_bsp.a(os_sem.o)
 .debug_loc     0x0000d852      0x207 ../server_bsp/\libucosii_bsp.a(os_task.o)
 .debug_loc     0x0000da59       0xd7 ../server_bsp/\libucosii_bsp.a(os_time.o)
 .debug_loc     0x0000db30       0x81 ../server_bsp/\libucosii_bsp.a(alt_sys_init.o)
 .debug_loc     0x0000dbb1      0x12e ../server_bsp/\libucosii_bsp.a(altera_avalon_cfi_flash.o)
 .debug_loc     0x0000dcdf      0x306 ../server_bsp/\libucosii_bsp.a(altera_avalon_cfi_flash_table.o)
 .debug_loc     0x0000dfe5      0x1af ../server_bsp/\libucosii_bsp.a(altera_avalon_epcs_flash_controller.o)
 .debug_loc     0x0000e194       0xac ../server_bsp/\libucosii_bsp.a(altera_avalon_jtag_uart_fd.o)
 .debug_loc     0x0000e240       0xac ../server_bsp/\libucosii_bsp.a(altera_avalon_jtag_uart_init.o)
 .debug_loc     0x0000e2ec       0x2b ../server_bsp/\libucosii_bsp.a(altera_avalon_jtag_uart_ioctl.o)
 .debug_loc     0x0000e317       0x2c ../server_bsp/\libucosii_bsp.a(altera_avalon_jtag_uart_read.o)
 .debug_loc     0x0000e343       0x2c ../server_bsp/\libucosii_bsp.a(altera_avalon_jtag_uart_write.o)
 .debug_loc     0x0000e36f      0x184 ../server_bsp/\libucosii_bsp.a(altera_avalon_lcd_16207.o)
 .debug_loc     0x0000e4f3       0x2b ../server_bsp/\libucosii_bsp.a(altera_avalon_lcd_16207_fd.o)
 .debug_loc     0x0000e51e       0x56 ../server_bsp/\libucosii_bsp.a(altera_avalon_timer_sc.o)
 .debug_loc     0x0000e574       0x81 ../server_bsp/\libucosii_bsp.a(altera_avalon_uart_fd.o)
 .debug_loc     0x0000e5f5       0xd8 ../server_bsp/\libucosii_bsp.a(altera_avalon_uart_init.o)
 .debug_loc     0x0000e6cd       0x57 ../server_bsp/\libucosii_bsp.a(altera_avalon_uart_read.o)
 .debug_loc     0x0000e724       0x57 ../server_bsp/\libucosii_bsp.a(altera_avalon_uart_write.o)
 .debug_loc     0x0000e77b      0x204 ../server_bsp/\libucosii_bsp.a(epcs_commands.o)
 .debug_loc     0x0000e97f       0x2b ../server_bsp/\libucosii_bsp.a(alt_iniche_close.o)
 .debug_loc     0x0000e9aa       0x2b ../server_bsp/\libucosii_bsp.a(alt_iniche_dev.o)
 .debug_loc     0x0000e9d5       0x2b ../server_bsp/\libucosii_bsp.a(alt_iniche_read.o)
 .debug_loc     0x0000ea00       0x2b ../server_bsp/\libucosii_bsp.a(alt_iniche_write.o)
 .debug_loc     0x0000ea2b      0x102 ../server_bsp/\libucosii_bsp.a(ipnet.o)
 .debug_loc     0x0000eb2d       0xac ../server_bsp/\libucosii_bsp.a(ipstart.o)
 .debug_loc     0x0000ebd9      0x159 ../server_bsp/\libucosii_bsp.a(igmp_cmn.o)
 .debug_loc     0x0000ed32      0x1af ../server_bsp/\libucosii_bsp.a(bsdsock.o)
 .debug_loc     0x0000eee1       0x56 ../server_bsp/\libucosii_bsp.a(cksum.o)
 .debug_loc     0x0000ef37      0x204 ../server_bsp/\libucosii_bsp.a(in_utils.o)
 .debug_loc     0x0000f13b       0x81 ../server_bsp/\libucosii_bsp.a(netmain.o)
 .debug_loc     0x0000f1bc      0x183 ../server_bsp/\libucosii_bsp.a(parseip.o)
 .debug_loc     0x0000f33f      0x12f ../server_bsp/\libucosii_bsp.a(tk_crnos.o)
 .debug_loc     0x0000f46e      0x35c ../server_bsp/\libucosii_bsp.a(dhcpclnt.o)
 .debug_loc     0x0000f7ca       0x2b ../server_bsp/\libucosii_bsp.a(dhcputil.o)
 .debug_loc     0x0000f7f5      0x102 ../server_bsp/\libucosii_bsp.a(pktalloc.o)
 .debug_loc     0x0000f8f7       0x81 ../server_bsp/\libucosii_bsp.a(q.o)
 .debug_loc     0x0000f978       0x56 ../server_bsp/\libucosii_bsp.a(udp_open.o)
 .debug_loc     0x0000f9ce      0x158 ../server_bsp/\libucosii_bsp.a(brdutils.o)
 .debug_loc     0x0000fb26       0xd8 ../server_bsp/\libucosii_bsp.a(osportco.o)
 .debug_loc     0x0000fbfe      0x183 ../server_bsp/\libucosii_bsp.a(targnios.o)
 .debug_loc     0x0000fd81      0x306 ../server_bsp/\libucosii_bsp.a(nptcp.o)
 .debug_loc     0x00010087       0x82 ../server_bsp/\libucosii_bsp.a(rawsock.o)
 .debug_loc     0x00010109      0x332 ../server_bsp/\libucosii_bsp.a(sockcall.o)
 .debug_loc     0x0001043b      0x2b1 ../server_bsp/\libucosii_bsp.a(socket.o)
 .debug_loc     0x000106ec      0x3dd ../server_bsp/\libucosii_bsp.a(socket2.o)
 .debug_loc     0x00010ac9      0x184 ../server_bsp/\libucosii_bsp.a(soselect.o)
 .debug_loc     0x00010c4d      0x12e ../server_bsp/\libucosii_bsp.a(tcp_in.o)
 .debug_loc     0x00010d7b       0x82 ../server_bsp/\libucosii_bsp.a(tcp_out.o)
 .debug_loc     0x00010dfd      0x183 ../server_bsp/\libucosii_bsp.a(tcp_subr.o)
 .debug_loc     0x00010f80       0x81 ../server_bsp/\libucosii_bsp.a(tcp_timr.o)
 .debug_loc     0x00011001       0xac ../server_bsp/\libucosii_bsp.a(tcp_usr.o)
 .debug_loc     0x000110ad       0x2b ../server_bsp/\libucosii_bsp.a(tcpport.o)
 .debug_loc     0x000110d8      0x102 ../server_bsp/\libucosii_bsp.a(udpsock.o)
 .debug_loc     0x000111da       0x2b ../server_bsp/\libucosii_bsp.a(alt_alarm_start.o)
 .debug_loc     0x00011205       0x2b ../server_bsp/\libucosii_bsp.a(alt_busy_sleep.o)
 .debug_loc     0x00011230       0x56 ../server_bsp/\libucosii_bsp.a(alt_close.o)
 .debug_loc     0x00011286       0x2b ../server_bsp/\libucosii_bsp.a(alt_dcache_flush.o)
 .debug_loc     0x000112b1       0x2b ../server_bsp/\libucosii_bsp.a(alt_dev.o)
 .debug_loc     0x000112dc       0x56 ../server_bsp/\libucosii_bsp.a(alt_dev_llist_insert.o)
 .debug_loc     0x00011332       0x2b ../server_bsp/\libucosii_bsp.a(alt_do_ctors.o)
 .debug_loc     0x0001135d       0x2b ../server_bsp/\libucosii_bsp.a(alt_do_dtors.o)
 .debug_loc     0x00011388       0x2b ../server_bsp/\libucosii_bsp.a(alt_find_dev.o)
 .debug_loc     0x000113b3       0xac ../server_bsp/\libucosii_bsp.a(alt_iic.o)
 .debug_loc     0x0001145f       0x2b ../server_bsp/\libucosii_bsp.a(alt_iic_isr_register.o)
 .debug_loc     0x0001148a       0x56 ../server_bsp/\libucosii_bsp.a(alt_io_redirect.o)
 .debug_loc     0x000114e0       0x2b ../server_bsp/\libucosii_bsp.a(alt_irq_handler.o)
 .debug_loc     0x0001150b       0x81 ../server_bsp/\libucosii_bsp.a(alt_open.o)
 .debug_loc     0x0001158c       0x56 ../server_bsp/\libucosii_bsp.a(alt_read.o)
 .debug_loc     0x000115e2       0x2b ../server_bsp/\libucosii_bsp.a(alt_release_fd.o)
 .debug_loc     0x0001160d       0x2b ../server_bsp/\libucosii_bsp.a(alt_remap_cached.o)
 .debug_loc     0x00011638       0x2b ../server_bsp/\libucosii_bsp.a(alt_remap_uncached.o)
 .debug_loc     0x00011663       0x56 ../server_bsp/\libucosii_bsp.a(alt_tick.o)
 .debug_loc     0x000116b9       0x56 ../server_bsp/\libucosii_bsp.a(alt_write.o)
 .debug_loc     0x0001170f       0x2b ../server_bsp/\libucosii_bsp.a(altera_nios2_qsys_irq.o)
 .debug_loc     0x0001173a      0x1ae ../server_bsp/\libucosii_bsp.a(os_cpu_c.o)
 .debug_loc     0x000118e8       0xac ../server_bsp/\libucosii_bsp.a(altera_avalon_cfi_flash_amd.o)
 .debug_loc     0x00011994       0xac ../server_bsp/\libucosii_bsp.a(altera_avalon_cfi_flash_intel.o)
 .debug_loc     0x00011a40       0x2b ../server_bsp/\libucosii_bsp.a(altera_avalon_spi.o)
 .debug_loc     0x00011a6b      0x12d ../server_bsp/\libucosii_bsp.a(allports.o)
 .debug_loc     0x00011b98       0xac ../server_bsp/\libucosii_bsp.a(timeouts.o)
 .debug_loc     0x00011c44       0x56 ../server_bsp/\libucosii_bsp.a(tk_misc.o)
 .debug_loc     0x00011c9a       0x2b ../server_bsp/\libucosii_bsp.a(alt_iniche_fcntl.o)
 .debug_loc     0x00011cc5      0x204 ../server_bsp/\libucosii_bsp.a(et_arp.o)
 .debug_loc     0x00011ec9       0xac ../server_bsp/\libucosii_bsp.a(iface.o)
 .debug_loc     0x00011f75      0x207 ../server_bsp/\libucosii_bsp.a(ip.o)
 .debug_loc     0x0001217c      0x2b2 ../server_bsp/\libucosii_bsp.a(ip_reasm.o)
 .debug_loc     0x0001242e       0x81 ../server_bsp/\libucosii_bsp.a(ipdemux.o)
 .debug_loc     0x000124af       0x81 ../server_bsp/\libucosii_bsp.a(ipmc.o)
 .debug_loc     0x00012530       0x81 ../server_bsp/\libucosii_bsp.a(ipport.o)
 .debug_loc     0x000125b1      0x102 ../server_bsp/\libucosii_bsp.a(ipraw.o)
 .debug_loc     0x000126b3       0x81 ../server_bsp/\libucosii_bsp.a(iproute.o)
 .debug_loc     0x00012734      0x12f ../server_bsp/\libucosii_bsp.a(udp.o)
 .debug_loc     0x00012863       0x2b ../server_bsp/\libucosii_bsp.a(igmp.o)
 .debug_loc     0x0001288e       0xd7 ../server_bsp/\libucosii_bsp.a(igmp2.o)
 .debug_loc     0x00012965       0xac ../server_bsp/\libucosii_bsp.a(ipopt.o)
 .debug_loc     0x00012a11       0x57 ../server_bsp/\libucosii_bsp.a(u_mctest.o)
 .debug_loc     0x00012a68       0x56 ../server_bsp/\libucosii_bsp.a(dhcsetup.o)
 .debug_loc     0x00012abe      0x183 ../server_bsp/\libucosii_bsp.a(memdev.o)
 .debug_loc     0x00012c41       0x2b ../server_bsp/\libucosii_bsp.a(tcpcksum.o)
 .debug_loc     0x00012c6c      0x158 ../server_bsp/\libucosii_bsp.a(in_pcb.o)
 .debug_loc     0x00012dc4      0x4b4 ../server_bsp/\libucosii_bsp.a(vfsfiles.o)
 .debug_loc     0x00013278       0x2b ../server_bsp/\libucosii_bsp.a(vfsport.o)
 .debug_loc     0x000132a3       0x56 ../server_bsp/\libucosii_bsp.a(alt_fcntl.o)
 .debug_loc     0x000132f9       0x2b ../server_bsp/\libucosii_bsp.a(alt_find_file.o)
 .debug_loc     0x00013324       0x2b ../server_bsp/\libucosii_bsp.a(alt_get_fd.o)
 .debug_loc     0x0001334f       0xad ../server_bsp/\libucosii_bsp.a(icmp.o)
 .debug_loc     0x000133fc       0x1e c:/altera/13.0/nios2eds/bin/gnu/h-i686-mingw32/bin/../lib/gcc/nios2-elf/4.1.2/../../../../nios2-elf/lib\libc.a(lib_a-atexit.o)
 .debug_loc     0x0001341a       0x39 c:/altera/13.0/nios2eds/bin/gnu/h-i686-mingw32/bin/../lib/gcc/nios2-elf/4.1.2/../../../../nios2-elf/lib\libc.a(lib_a-atoi.o)
 .debug_loc     0x00013453       0x3c c:/altera/13.0/nios2eds/bin/gnu/h-i686-mingw32/bin/../lib/gcc/nios2-elf/4.1.2/../../../../nios2-elf/lib\libc.a(lib_a-calloc.o)
 .debug_loc     0x0001348f       0x3c c:/altera/13.0/nios2eds/bin/gnu/h-i686-mingw32/bin/../lib/gcc/nios2-elf/4.1.2/../../../../nios2-elf/lib\libc.a(lib_a-malloc.o)
 .debug_loc     0x000134cb      0x114 c:/altera/13.0/nios2eds/bin/gnu/h-i686-mingw32/bin/../lib/gcc/nios2-elf/4.1.2/../../../../nios2-elf/lib\libc.a(lib_a-memcmp.o)
 .debug_loc     0x000135df       0xc0 c:/altera/13.0/nios2eds/bin/gnu/h-i686-mingw32/bin/../lib/gcc/nios2-elf/4.1.2/../../../../nios2-elf/lib\libc.a(lib_a-sprintf.o)
 .debug_loc     0x0001369f       0x8b c:/altera/13.0/nios2eds/bin/gnu/h-i686-mingw32/bin/../lib/gcc/nios2-elf/4.1.2/../../../../nios2-elf/lib\libc.a(lib_a-strcpy.o)
 .debug_loc     0x0001372a       0x78 c:/altera/13.0/nios2eds/bin/gnu/h-i686-mingw32/bin/../lib/gcc/nios2-elf/4.1.2/../../../../nios2-elf/lib\libc.a(lib_a-strncmp.o)
 .debug_loc     0x000137a2       0xeb c:/altera/13.0/nios2eds/bin/gnu/h-i686-mingw32/bin/../lib/gcc/nios2-elf/4.1.2/../../../../nios2-elf/lib\libc.a(lib_a-strncpy.o)
 .debug_loc     0x0001388d      0x346 c:/altera/13.0/nios2eds/bin/gnu/h-i686-mingw32/bin/../lib/gcc/nios2-elf/4.1.2/../../../../nios2-elf/lib\libc.a(lib_a-strtol.o)
 .debug_loc     0x00013bd3       0x8b c:/altera/13.0/nios2eds/bin/gnu/h-i686-mingw32/bin/../lib/gcc/nios2-elf/4.1.2/../../../../nios2-elf/lib\libc.a(lib_a-vprintf.o)
 .debug_loc     0x00013c5e       0xd1 c:/altera/13.0/nios2eds/bin/gnu/h-i686-mingw32/bin/../lib/gcc/nios2-elf/4.1.2/../../../../nios2-elf/lib\libc.a(lib_a-vsprintf.o)
 .debug_loc     0x00013d2f      0x120 c:/altera/13.0/nios2eds/bin/gnu/h-i686-mingw32/bin/../lib/gcc/nios2-elf/4.1.2/../../../../nios2-elf/lib\libc.a(lib_a-__atexit.o)

.debug_macinfo
 *(.debug_macinfo)

.debug_weaknames
 *(.debug_weaknames)

.debug_funcnames
 *(.debug_funcnames)

.debug_typenames
 *(.debug_typenames)

.debug_varnames
 *(.debug_varnames)

.debug_alt_sim_info
                0x00000000       0x50
 *(.debug_alt_sim_info)
 .debug_alt_sim_info
                0x00000000       0x20 ../server_bsp//obj/HAL/src/crt0.o
 .debug_alt_sim_info
                0x00000020       0x30 ../server_bsp/\libucosii_bsp.a(alt_busy_sleep.o)
                0x01000000                __alt_data_end = 0x1000000
                0x01000000                PROVIDE (__alt_stack_pointer, __alt_data_end)
                0x00857c84                PROVIDE (__alt_stack_limit, __alt_stack_base)
                0x00857c84                PROVIDE (__alt_heap_start, end)
                0x01000000                PROVIDE (__alt_heap_limit, 0x1000000)
OUTPUT(server.elf elf32-littlenios2)

.debug_ranges   0x00000000      0x9a0
 .debug_ranges  0x00000000       0x30 c:/altera/13.0/nios2eds/bin/gnu/h-i686-mingw32/bin/../lib/gcc/nios2-elf/4.1.2\libgcc.a(_addsub_df.o)
 .debug_ranges  0x00000030       0x88 c:/altera/13.0/nios2eds/bin/gnu/h-i686-mingw32/bin/../lib/gcc/nios2-elf/4.1.2\libgcc.a(_mul_df.o)
 .debug_ranges  0x000000b8       0x18 c:/altera/13.0/nios2eds/bin/gnu/h-i686-mingw32/bin/../lib/gcc/nios2-elf/4.1.2\libgcc.a(_usi_to_df.o)
 .debug_ranges  0x000000d0       0x68 c:/altera/13.0/nios2eds/bin/gnu/h-i686-mingw32/bin/../lib/gcc/nios2-elf/4.1.2\libgcc.a(_muldi3.o)
 .debug_ranges  0x00000138       0x28 c:/altera/13.0/nios2eds/bin/gnu/h-i686-mingw32/bin/../lib/gcc/nios2-elf/4.1.2\libgcc.a(_clzsi2.o)
 .debug_ranges  0x00000160       0x28 c:/altera/13.0/nios2eds/bin/gnu/h-i686-mingw32/bin/../lib/gcc/nios2-elf/4.1.2\libgcc.a(_pack_df.o)
 .debug_ranges  0x00000188      0x168 c:/altera/13.0/nios2eds/bin/gnu/h-i686-mingw32/bin/../lib/gcc/nios2-elf/4.1.2/../../../../nios2-elf/lib\libc.a(lib_a-vfprintf.o)
 .debug_ranges  0x000002f0       0x18 c:/altera/13.0/nios2eds/bin/gnu/h-i686-mingw32/bin/../lib/gcc/nios2-elf/4.1.2/../../../../nios2-elf/lib\libc.a(lib_a-__call_atexit.o)
 .debug_ranges  0x00000308       0x20 c:/altera/13.0/nios2eds/bin/gnu/h-i686-mingw32/bin/../lib/gcc/nios2-elf/4.1.2/../../../../nios2-elf/lib\libc.a(lib_a-fflush.o)
 .debug_ranges  0x00000328       0x28 c:/altera/13.0/nios2eds/bin/gnu/h-i686-mingw32/bin/../lib/gcc/nios2-elf/4.1.2/../../../../nios2-elf/lib\libc.a(lib_a-fvwrite.o)
 .debug_ranges  0x00000350       0xa0 c:/altera/13.0/nios2eds/bin/gnu/h-i686-mingw32/bin/../lib/gcc/nios2-elf/4.1.2/../../../../nios2-elf/lib\libc.a(lib_a-fwalk.o)
 .debug_ranges  0x000003f0       0x70 c:/altera/13.0/nios2eds/bin/gnu/h-i686-mingw32/bin/../lib/gcc/nios2-elf/4.1.2/../../../../nios2-elf/lib\libc.a(lib_a-mallocr.o)
 .debug_ranges  0x00000460      0x110 c:/altera/13.0/nios2eds/bin/gnu/h-i686-mingw32/bin/../lib/gcc/nios2-elf/4.1.2/../../../../nios2-elf/lib\libc.a(lib_a-reallocr.o)
 .debug_ranges  0x00000570       0x38 c:/altera/13.0/nios2eds/bin/gnu/h-i686-mingw32/bin/../lib/gcc/nios2-elf/4.1.2/../../../../nios2-elf/lib\libc.a(lib_a-callocr.o)
 .debug_ranges  0x000005a8      0x188 c:/altera/13.0/nios2eds/bin/gnu/h-i686-mingw32/bin/../lib/gcc/nios2-elf/4.1.2\libgcc.a(_udivdi3.o)
 .debug_ranges  0x00000730      0x198 c:/altera/13.0/nios2eds/bin/gnu/h-i686-mingw32/bin/../lib/gcc/nios2-elf/4.1.2\libgcc.a(_umoddi3.o)
 .debug_ranges  0x000008c8       0x50 c:/altera/13.0/nios2eds/bin/gnu/h-i686-mingw32/bin/../lib/gcc/nios2-elf/4.1.2\libgcc.a(_div_df.o)
 .debug_ranges  0x00000918       0x18 ../server_bsp/\libucosii_bsp.a(altera_avalon_jtag_uart_init.o)
 .debug_ranges  0x00000930       0x18 ../server_bsp/\libucosii_bsp.a(altera_avalon_uart_init.o)
 .debug_ranges  0x00000948       0x28 ../server_bsp/\libucosii_bsp.a(alt_irq_entry.o)
 .debug_ranges  0x00000970       0x30 ../server_bsp/\libucosii_bsp.a(alt_exception_entry.o)
